
touch_screen_MSS_MSS_CM3_0_app:     file format elf32-littlearm

Sections:
Idx Name          Size      VMA       LMA       File off  Algn
  0 .text         0000ae08  20000000  20000000  00008000  2**4
                  CONTENTS, ALLOC, LOAD, READONLY, CODE
  1 .ARM.exidx    00000008  2000ae08  2000ae08  00012e08  2**2
                  CONTENTS, ALLOC, LOAD, READONLY, DATA
  2 .data         00000520  2000ae10  2000ae10  00012e10  2**2
                  CONTENTS, ALLOC, LOAD, DATA
  3 .bss          00000298  2000b330  2000b330  00013330  2**2
                  ALLOC
  4 .stack        00003000  2000b5c8  2000b5c8  00013330  2**0
                  ALLOC
  5 .comment      000001d9  00000000  00000000  00013330  2**0
                  CONTENTS, READONLY
  6 .debug_aranges 00000728  00000000  00000000  00013509  2**0
                  CONTENTS, READONLY, DEBUGGING
  7 .debug_pubnames 00000ef3  00000000  00000000  00013c31  2**0
                  CONTENTS, READONLY, DEBUGGING
  8 .debug_info   00009b5a  00000000  00000000  00014b24  2**0
                  CONTENTS, READONLY, DEBUGGING
  9 .debug_abbrev 00001207  00000000  00000000  0001e67e  2**0
                  CONTENTS, READONLY, DEBUGGING
 10 .debug_line   00003776  00000000  00000000  0001f885  2**0
                  CONTENTS, READONLY, DEBUGGING
 11 .debug_frame  00002448  00000000  00000000  00022ffc  2**2
                  CONTENTS, READONLY, DEBUGGING
 12 .debug_str    00002d89  00000000  00000000  00025444  2**0
                  CONTENTS, READONLY, DEBUGGING
 13 .debug_loc    00002974  00000000  00000000  000281cd  2**0
                  CONTENTS, READONLY, DEBUGGING
 14 .debug_macinfo 00044629  00000000  00000000  0002ab41  2**0
                  CONTENTS, READONLY, DEBUGGING
 15 .ARM.attributes 00000025  00000000  00000000  0006f16a  2**0
                  CONTENTS, READONLY
 16 .debug_ranges 00000708  00000000  00000000  0006f18f  2**0
                  CONTENTS, READONLY, DEBUGGING

Disassembly of section .text:

20000000 <__text_start>:
20000000:	20010000 	.word	0x20010000
20000004:	20000299 	.word	0x20000299
20000008:	20000309 	.word	0x20000309
2000000c:	2000030b 	.word	0x2000030b
20000010:	2000030d 	.word	0x2000030d
20000014:	2000030f 	.word	0x2000030f
20000018:	20000311 	.word	0x20000311
	...
2000002c:	20000313 	.word	0x20000313
20000030:	20000315 	.word	0x20000315
20000034:	00000000 	.word	0x00000000
20000038:	20000317 	.word	0x20000317
2000003c:	20000319 	.word	0x20000319
20000040:	2000031b 	.word	0x2000031b
20000044:	2000031d 	.word	0x2000031d
20000048:	2000031f 	.word	0x2000031f
2000004c:	20000321 	.word	0x20000321
20000050:	20000323 	.word	0x20000323
20000054:	20000325 	.word	0x20000325
20000058:	20000327 	.word	0x20000327
2000005c:	20000329 	.word	0x20000329
20000060:	2000032b 	.word	0x2000032b
20000064:	2000032d 	.word	0x2000032d
20000068:	200025d9 	.word	0x200025d9
2000006c:	20002605 	.word	0x20002605
20000070:	20003155 	.word	0x20003155
20000074:	20003181 	.word	0x20003181
20000078:	20003fa5 	.word	0x20003fa5
2000007c:	20000339 	.word	0x20000339
20000080:	2000033b 	.word	0x2000033b
20000084:	20003fd1 	.word	0x20003fd1
20000088:	2000033f 	.word	0x2000033f
2000008c:	20000341 	.word	0x20000341
20000090:	20000343 	.word	0x20000343
20000094:	20000345 	.word	0x20000345
20000098:	20000347 	.word	0x20000347
2000009c:	20000349 	.word	0x20000349
200000a0:	2000034b 	.word	0x2000034b
	...
200000bc:	2000034d 	.word	0x2000034d
200000c0:	2000034f 	.word	0x2000034f
200000c4:	20000351 	.word	0x20000351
200000c8:	20000353 	.word	0x20000353
200000cc:	20000355 	.word	0x20000355
200000d0:	20000357 	.word	0x20000357
200000d4:	20000359 	.word	0x20000359
200000d8:	2000035b 	.word	0x2000035b
200000dc:	2000035d 	.word	0x2000035d
200000e0:	2000035f 	.word	0x2000035f
200000e4:	20000361 	.word	0x20000361
200000e8:	20000363 	.word	0x20000363
200000ec:	20000365 	.word	0x20000365
200000f0:	20000367 	.word	0x20000367
200000f4:	20000369 	.word	0x20000369
200000f8:	2000036b 	.word	0x2000036b
200000fc:	2000036d 	.word	0x2000036d
20000100:	2000036f 	.word	0x2000036f
20000104:	20000371 	.word	0x20000371
20000108:	20000373 	.word	0x20000373
2000010c:	20000375 	.word	0x20000375
20000110:	20000377 	.word	0x20000377
20000114:	20000379 	.word	0x20000379
20000118:	2000037b 	.word	0x2000037b
2000011c:	2000037d 	.word	0x2000037d
20000120:	2000037f 	.word	0x2000037f
20000124:	20000381 	.word	0x20000381
20000128:	20000383 	.word	0x20000383
2000012c:	20000385 	.word	0x20000385
20000130:	20000387 	.word	0x20000387
20000134:	20000389 	.word	0x20000389
20000138:	2000038b 	.word	0x2000038b
2000013c:	2000038d 	.word	0x2000038d
20000140:	2000038f 	.word	0x2000038f
20000144:	20000391 	.word	0x20000391
20000148:	20000393 	.word	0x20000393
2000014c:	20000395 	.word	0x20000395
20000150:	20000397 	.word	0x20000397
20000154:	20000399 	.word	0x20000399
20000158:	2000039b 	.word	0x2000039b
2000015c:	2000039d 	.word	0x2000039d
20000160:	2000039f 	.word	0x2000039f
20000164:	200003a1 	.word	0x200003a1
20000168:	200003a3 	.word	0x200003a3
2000016c:	200003a5 	.word	0x200003a5
20000170:	200003a7 	.word	0x200003a7
20000174:	200003a9 	.word	0x200003a9
20000178:	200003ab 	.word	0x200003ab
2000017c:	200003ad 	.word	0x200003ad
20000180:	200003af 	.word	0x200003af
20000184:	200003b1 	.word	0x200003b1
20000188:	200003b3 	.word	0x200003b3
2000018c:	200003b5 	.word	0x200003b5
20000190:	200003b7 	.word	0x200003b7
20000194:	200003b9 	.word	0x200003b9
20000198:	200003bb 	.word	0x200003bb
2000019c:	200003bd 	.word	0x200003bd
200001a0:	200003bf 	.word	0x200003bf
200001a4:	200003c1 	.word	0x200003c1
200001a8:	200003c3 	.word	0x200003c3
200001ac:	200003c5 	.word	0x200003c5
200001b0:	200003c7 	.word	0x200003c7
200001b4:	200003c9 	.word	0x200003c9
200001b8:	200003cb 	.word	0x200003cb
200001bc:	200003cd 	.word	0x200003cd
200001c0:	200003cf 	.word	0x200003cf
200001c4:	200003d1 	.word	0x200003d1
200001c8:	200003d3 	.word	0x200003d3
200001cc:	200003d5 	.word	0x200003d5
200001d0:	200003d7 	.word	0x200003d7
200001d4:	200003d9 	.word	0x200003d9
200001d8:	200003db 	.word	0x200003db
200001dc:	200003dd 	.word	0x200003dd
200001e0:	200003df 	.word	0x200003df
200001e4:	200003e1 	.word	0x200003e1
200001e8:	200003e3 	.word	0x200003e3
200001ec:	200003e5 	.word	0x200003e5
200001f0:	200003e7 	.word	0x200003e7
200001f4:	200003e9 	.word	0x200003e9
200001f8:	200003eb 	.word	0x200003eb
200001fc:	200003ed 	.word	0x200003ed
20000200:	200003ef 	.word	0x200003ef
20000204:	200003f1 	.word	0x200003f1
20000208:	200003f3 	.word	0x200003f3
2000020c:	200003f5 	.word	0x200003f5
20000210:	200003f7 	.word	0x200003f7
20000214:	200003f9 	.word	0x200003f9
20000218:	200003fb 	.word	0x200003fb
2000021c:	200003fd 	.word	0x200003fd
20000220:	200003ff 	.word	0x200003ff
20000224:	20000401 	.word	0x20000401
20000228:	20000403 	.word	0x20000403
2000022c:	20000405 	.word	0x20000405
20000230:	20000407 	.word	0x20000407
20000234:	20000409 	.word	0x20000409
20000238:	2000040b 	.word	0x2000040b
2000023c:	2000040d 	.word	0x2000040d
20000240:	2000040f 	.word	0x2000040f
20000244:	20000411 	.word	0x20000411
20000248:	20000413 	.word	0x20000413
2000024c:	20000415 	.word	0x20000415
20000250:	20000417 	.word	0x20000417
20000254:	20000419 	.word	0x20000419
20000258:	2000041b 	.word	0x2000041b
2000025c:	2000041d 	.word	0x2000041d
20000260:	2000041f 	.word	0x2000041f
20000264:	20000421 	.word	0x20000421
20000268:	20000423 	.word	0x20000423
2000026c:	20000425 	.word	0x20000425
20000270:	20000427 	.word	0x20000427
20000274:	20000429 	.word	0x20000429
20000278:	2000042b 	.word	0x2000042b
2000027c:	2000042d 	.word	0x2000042d
20000280:	2000042f 	.word	0x2000042f
20000284:	20000431 	.word	0x20000431
20000288:	20000433 	.word	0x20000433
2000028c:	20000435 	.word	0x20000435
20000290:	20000437 	.word	0x20000437
20000294:	20000439 	.word	0x20000439

20000298 <Reset_Handler>:
20000298:	4868      	ldr	r0, [pc, #416]	; (2000043c <ACE_PPE_Flag31_IRQHandler+0x4>)
2000029a:	4780      	blx	r0
2000029c:	4868      	ldr	r0, [pc, #416]	; (20000440 <ACE_PPE_Flag31_IRQHandler+0x8>)
2000029e:	2800      	cmp	r0, #0
200002a0:	d10b      	bne.n	200002ba <copy_data>
200002a2:	4868      	ldr	r0, [pc, #416]	; (20000444 <ACE_PPE_Flag31_IRQHandler+0xc>)
200002a4:	4968      	ldr	r1, [pc, #416]	; (20000448 <ACE_PPE_Flag31_IRQHandler+0x10>)
200002a6:	4a69      	ldr	r2, [pc, #420]	; (2000044c <ACE_PPE_Flag31_IRQHandler+0x14>)
200002a8:	4288      	cmp	r0, r1
200002aa:	d006      	beq.n	200002ba <copy_data>

200002ac <copy_code_loop>:
200002ac:	4291      	cmp	r1, r2
200002ae:	bf1c      	itt	ne
200002b0:	f850 3b04 	ldrne.w	r3, [r0], #4
200002b4:	f841 3b04 	strne.w	r3, [r1], #4
200002b8:	d1f8      	bne.n	200002ac <copy_code_loop>

200002ba <copy_data>:
200002ba:	4865      	ldr	r0, [pc, #404]	; (20000450 <ACE_PPE_Flag31_IRQHandler+0x18>)
200002bc:	4965      	ldr	r1, [pc, #404]	; (20000454 <ACE_PPE_Flag31_IRQHandler+0x1c>)
200002be:	4a66      	ldr	r2, [pc, #408]	; (20000458 <ACE_PPE_Flag31_IRQHandler+0x20>)
200002c0:	4288      	cmp	r0, r1
200002c2:	d006      	beq.n	200002d2 <clear_bss>

200002c4 <copy_data_loop>:
200002c4:	4291      	cmp	r1, r2
200002c6:	bf1c      	itt	ne
200002c8:	f850 3b04 	ldrne.w	r3, [r0], #4
200002cc:	f841 3b04 	strne.w	r3, [r1], #4
200002d0:	d1f8      	bne.n	200002c4 <copy_data_loop>

200002d2 <clear_bss>:
200002d2:	4862      	ldr	r0, [pc, #392]	; (2000045c <ACE_PPE_Flag31_IRQHandler+0x24>)
200002d4:	4962      	ldr	r1, [pc, #392]	; (20000460 <ACE_PPE_Flag31_IRQHandler+0x28>)
200002d6:	4a63      	ldr	r2, [pc, #396]	; (20000464 <ACE_PPE_Flag31_IRQHandler+0x2c>)

200002d8 <clear_bss_loop>:
200002d8:	4291      	cmp	r1, r2
200002da:	bf18      	it	ne
200002dc:	f841 0b04 	strne.w	r0, [r1], #4
200002e0:	d1fa      	bne.n	200002d8 <clear_bss_loop>
	...

200002f0 <call_glob_ctor>:
200002f0:	f8df 0174 	ldr.w	r0, [pc, #372]	; 20000468 <ACE_PPE_Flag31_IRQHandler+0x30>
200002f4:	f20f 0e03 	addw	lr, pc, #3
200002f8:	4700      	bx	r0

200002fa <branch_to_main>:
200002fa:	f04f 0000 	mov.w	r0, #0
200002fe:	f04f 0100 	mov.w	r1, #0
20000302:	f8df f168 	ldr.w	pc, [pc, #360]	; 2000046c <ACE_PPE_Flag31_IRQHandler+0x34>

20000306 <ExitLoop>:
20000306:	e7fe      	b.n	20000306 <ExitLoop>

20000308 <NMI_Handler>:
20000308:	e7fe      	b.n	20000308 <NMI_Handler>

2000030a <HardFault_Handler>:
2000030a:	e7fe      	b.n	2000030a <HardFault_Handler>

2000030c <MemManage_Handler>:
2000030c:	e7fe      	b.n	2000030c <MemManage_Handler>

2000030e <BusFault_Handler>:
2000030e:	e7fe      	b.n	2000030e <BusFault_Handler>

20000310 <UsageFault_Handler>:
20000310:	e7fe      	b.n	20000310 <UsageFault_Handler>

20000312 <SVC_Handler>:
20000312:	e7fe      	b.n	20000312 <SVC_Handler>

20000314 <DebugMon_Handler>:
20000314:	e7fe      	b.n	20000314 <DebugMon_Handler>

20000316 <PendSV_Handler>:
20000316:	e7fe      	b.n	20000316 <PendSV_Handler>

20000318 <SysTick_Handler>:
20000318:	e7fe      	b.n	20000318 <SysTick_Handler>

2000031a <WdogWakeup_IRQHandler>:
2000031a:	e7fe      	b.n	2000031a <WdogWakeup_IRQHandler>

2000031c <BrownOut_1_5V_IRQHandler>:
2000031c:	e7fe      	b.n	2000031c <BrownOut_1_5V_IRQHandler>

2000031e <BrownOut_3_3V_IRQHandler>:
2000031e:	e7fe      	b.n	2000031e <BrownOut_3_3V_IRQHandler>

20000320 <RTC_Match_IRQHandler>:
20000320:	e7fe      	b.n	20000320 <RTC_Match_IRQHandler>

20000322 <RTCIF_Pub_IRQHandler>:
20000322:	e7fe      	b.n	20000322 <RTCIF_Pub_IRQHandler>

20000324 <EthernetMAC_IRQHandler>:
20000324:	e7fe      	b.n	20000324 <EthernetMAC_IRQHandler>

20000326 <IAP_IRQHandler>:
20000326:	e7fe      	b.n	20000326 <IAP_IRQHandler>

20000328 <ENVM0_IRQHandler>:
20000328:	e7fe      	b.n	20000328 <ENVM0_IRQHandler>

2000032a <ENVM1_IRQHandler>:
2000032a:	e7fe      	b.n	2000032a <ENVM1_IRQHandler>

2000032c <DMA_IRQHandler>:
2000032c:	e7fe      	b.n	2000032c <DMA_IRQHandler>
2000032e:	e7fe      	b.n	2000032e <DMA_IRQHandler+0x2>
20000330:	e7fe      	b.n	20000330 <DMA_IRQHandler+0x4>
20000332:	e7fe      	b.n	20000332 <DMA_IRQHandler+0x6>
20000334:	e7fe      	b.n	20000334 <DMA_IRQHandler+0x8>
20000336:	e7fe      	b.n	20000336 <DMA_IRQHandler+0xa>

20000338 <I2C0_SMBAlert_IRQHandler>:
20000338:	e7fe      	b.n	20000338 <I2C0_SMBAlert_IRQHandler>

2000033a <I2C0_SMBus_IRQHandler>:
2000033a:	e7fe      	b.n	2000033a <I2C0_SMBus_IRQHandler>
2000033c:	e7fe      	b.n	2000033c <I2C0_SMBus_IRQHandler+0x2>

2000033e <I2C1_SMBAlert_IRQHandler>:
2000033e:	e7fe      	b.n	2000033e <I2C1_SMBAlert_IRQHandler>

20000340 <I2C1_SMBus_IRQHandler>:
20000340:	e7fe      	b.n	20000340 <I2C1_SMBus_IRQHandler>

20000342 <Timer1_IRQHandler>:
20000342:	e7fe      	b.n	20000342 <Timer1_IRQHandler>

20000344 <Timer2_IRQHandler>:
20000344:	e7fe      	b.n	20000344 <Timer2_IRQHandler>

20000346 <PLL_Lock_IRQHandler>:
20000346:	e7fe      	b.n	20000346 <PLL_Lock_IRQHandler>

20000348 <PLL_LockLost_IRQHandler>:
20000348:	e7fe      	b.n	20000348 <PLL_LockLost_IRQHandler>

2000034a <CommError_IRQHandler>:
2000034a:	e7fe      	b.n	2000034a <CommError_IRQHandler>

2000034c <Fabric_IRQHandler>:
2000034c:	e7fe      	b.n	2000034c <Fabric_IRQHandler>

2000034e <GPIO0_IRQHandler>:
2000034e:	e7fe      	b.n	2000034e <GPIO0_IRQHandler>

20000350 <GPIO1_IRQHandler>:
20000350:	e7fe      	b.n	20000350 <GPIO1_IRQHandler>

20000352 <GPIO2_IRQHandler>:
20000352:	e7fe      	b.n	20000352 <GPIO2_IRQHandler>

20000354 <GPIO3_IRQHandler>:
20000354:	e7fe      	b.n	20000354 <GPIO3_IRQHandler>

20000356 <GPIO4_IRQHandler>:
20000356:	e7fe      	b.n	20000356 <GPIO4_IRQHandler>

20000358 <GPIO5_IRQHandler>:
20000358:	e7fe      	b.n	20000358 <GPIO5_IRQHandler>

2000035a <GPIO6_IRQHandler>:
2000035a:	e7fe      	b.n	2000035a <GPIO6_IRQHandler>

2000035c <GPIO7_IRQHandler>:
2000035c:	e7fe      	b.n	2000035c <GPIO7_IRQHandler>

2000035e <GPIO8_IRQHandler>:
2000035e:	e7fe      	b.n	2000035e <GPIO8_IRQHandler>

20000360 <GPIO9_IRQHandler>:
20000360:	e7fe      	b.n	20000360 <GPIO9_IRQHandler>

20000362 <GPIO10_IRQHandler>:
20000362:	e7fe      	b.n	20000362 <GPIO10_IRQHandler>

20000364 <GPIO11_IRQHandler>:
20000364:	e7fe      	b.n	20000364 <GPIO11_IRQHandler>

20000366 <GPIO12_IRQHandler>:
20000366:	e7fe      	b.n	20000366 <GPIO12_IRQHandler>

20000368 <GPIO13_IRQHandler>:
20000368:	e7fe      	b.n	20000368 <GPIO13_IRQHandler>

2000036a <GPIO14_IRQHandler>:
2000036a:	e7fe      	b.n	2000036a <GPIO14_IRQHandler>

2000036c <GPIO15_IRQHandler>:
2000036c:	e7fe      	b.n	2000036c <GPIO15_IRQHandler>

2000036e <GPIO16_IRQHandler>:
2000036e:	e7fe      	b.n	2000036e <GPIO16_IRQHandler>

20000370 <GPIO17_IRQHandler>:
20000370:	e7fe      	b.n	20000370 <GPIO17_IRQHandler>

20000372 <GPIO18_IRQHandler>:
20000372:	e7fe      	b.n	20000372 <GPIO18_IRQHandler>

20000374 <GPIO19_IRQHandler>:
20000374:	e7fe      	b.n	20000374 <GPIO19_IRQHandler>

20000376 <GPIO20_IRQHandler>:
20000376:	e7fe      	b.n	20000376 <GPIO20_IRQHandler>

20000378 <GPIO21_IRQHandler>:
20000378:	e7fe      	b.n	20000378 <GPIO21_IRQHandler>

2000037a <GPIO22_IRQHandler>:
2000037a:	e7fe      	b.n	2000037a <GPIO22_IRQHandler>

2000037c <GPIO23_IRQHandler>:
2000037c:	e7fe      	b.n	2000037c <GPIO23_IRQHandler>

2000037e <GPIO24_IRQHandler>:
2000037e:	e7fe      	b.n	2000037e <GPIO24_IRQHandler>

20000380 <GPIO25_IRQHandler>:
20000380:	e7fe      	b.n	20000380 <GPIO25_IRQHandler>

20000382 <GPIO26_IRQHandler>:
20000382:	e7fe      	b.n	20000382 <GPIO26_IRQHandler>

20000384 <GPIO27_IRQHandler>:
20000384:	e7fe      	b.n	20000384 <GPIO27_IRQHandler>

20000386 <GPIO28_IRQHandler>:
20000386:	e7fe      	b.n	20000386 <GPIO28_IRQHandler>

20000388 <GPIO29_IRQHandler>:
20000388:	e7fe      	b.n	20000388 <GPIO29_IRQHandler>

2000038a <GPIO30_IRQHandler>:
2000038a:	e7fe      	b.n	2000038a <GPIO30_IRQHandler>

2000038c <GPIO31_IRQHandler>:
2000038c:	e7fe      	b.n	2000038c <GPIO31_IRQHandler>

2000038e <ACE_PC0_Flag0_IRQHandler>:
2000038e:	e7fe      	b.n	2000038e <ACE_PC0_Flag0_IRQHandler>

20000390 <ACE_PC0_Flag1_IRQHandler>:
20000390:	e7fe      	b.n	20000390 <ACE_PC0_Flag1_IRQHandler>

20000392 <ACE_PC0_Flag2_IRQHandler>:
20000392:	e7fe      	b.n	20000392 <ACE_PC0_Flag2_IRQHandler>

20000394 <ACE_PC0_Flag3_IRQHandler>:
20000394:	e7fe      	b.n	20000394 <ACE_PC0_Flag3_IRQHandler>

20000396 <ACE_PC1_Flag0_IRQHandler>:
20000396:	e7fe      	b.n	20000396 <ACE_PC1_Flag0_IRQHandler>

20000398 <ACE_PC1_Flag1_IRQHandler>:
20000398:	e7fe      	b.n	20000398 <ACE_PC1_Flag1_IRQHandler>

2000039a <ACE_PC1_Flag2_IRQHandler>:
2000039a:	e7fe      	b.n	2000039a <ACE_PC1_Flag2_IRQHandler>

2000039c <ACE_PC1_Flag3_IRQHandler>:
2000039c:	e7fe      	b.n	2000039c <ACE_PC1_Flag3_IRQHandler>

2000039e <ACE_PC2_Flag0_IRQHandler>:
2000039e:	e7fe      	b.n	2000039e <ACE_PC2_Flag0_IRQHandler>

200003a0 <ACE_PC2_Flag1_IRQHandler>:
200003a0:	e7fe      	b.n	200003a0 <ACE_PC2_Flag1_IRQHandler>

200003a2 <ACE_PC2_Flag2_IRQHandler>:
200003a2:	e7fe      	b.n	200003a2 <ACE_PC2_Flag2_IRQHandler>

200003a4 <ACE_PC2_Flag3_IRQHandler>:
200003a4:	e7fe      	b.n	200003a4 <ACE_PC2_Flag3_IRQHandler>

200003a6 <ACE_ADC0_DataValid_IRQHandler>:
200003a6:	e7fe      	b.n	200003a6 <ACE_ADC0_DataValid_IRQHandler>

200003a8 <ACE_ADC1_DataValid_IRQHandler>:
200003a8:	e7fe      	b.n	200003a8 <ACE_ADC1_DataValid_IRQHandler>

200003aa <ACE_ADC2_DataValid_IRQHandler>:
200003aa:	e7fe      	b.n	200003aa <ACE_ADC2_DataValid_IRQHandler>

200003ac <ACE_ADC0_CalDone_IRQHandler>:
200003ac:	e7fe      	b.n	200003ac <ACE_ADC0_CalDone_IRQHandler>

200003ae <ACE_ADC1_CalDone_IRQHandler>:
200003ae:	e7fe      	b.n	200003ae <ACE_ADC1_CalDone_IRQHandler>

200003b0 <ACE_ADC2_CalDone_IRQHandler>:
200003b0:	e7fe      	b.n	200003b0 <ACE_ADC2_CalDone_IRQHandler>

200003b2 <ACE_ADC0_CalStart_IRQHandler>:
200003b2:	e7fe      	b.n	200003b2 <ACE_ADC0_CalStart_IRQHandler>

200003b4 <ACE_ADC1_CalStart_IRQHandler>:
200003b4:	e7fe      	b.n	200003b4 <ACE_ADC1_CalStart_IRQHandler>

200003b6 <ACE_ADC2_CalStart_IRQHandler>:
200003b6:	e7fe      	b.n	200003b6 <ACE_ADC2_CalStart_IRQHandler>

200003b8 <ACE_Comp0_Fall_IRQHandler>:
200003b8:	e7fe      	b.n	200003b8 <ACE_Comp0_Fall_IRQHandler>

200003ba <ACE_Comp1_Fall_IRQHandler>:
200003ba:	e7fe      	b.n	200003ba <ACE_Comp1_Fall_IRQHandler>

200003bc <ACE_Comp2_Fall_IRQHandler>:
200003bc:	e7fe      	b.n	200003bc <ACE_Comp2_Fall_IRQHandler>

200003be <ACE_Comp3_Fall_IRQHandler>:
200003be:	e7fe      	b.n	200003be <ACE_Comp3_Fall_IRQHandler>

200003c0 <ACE_Comp4_Fall_IRQHandler>:
200003c0:	e7fe      	b.n	200003c0 <ACE_Comp4_Fall_IRQHandler>

200003c2 <ACE_Comp5_Fall_IRQHandler>:
200003c2:	e7fe      	b.n	200003c2 <ACE_Comp5_Fall_IRQHandler>

200003c4 <ACE_Comp6_Fall_IRQHandler>:
200003c4:	e7fe      	b.n	200003c4 <ACE_Comp6_Fall_IRQHandler>

200003c6 <ACE_Comp7_Fall_IRQHandler>:
200003c6:	e7fe      	b.n	200003c6 <ACE_Comp7_Fall_IRQHandler>

200003c8 <ACE_Comp8_Fall_IRQHandler>:
200003c8:	e7fe      	b.n	200003c8 <ACE_Comp8_Fall_IRQHandler>

200003ca <ACE_Comp9_Fall_IRQHandler>:
200003ca:	e7fe      	b.n	200003ca <ACE_Comp9_Fall_IRQHandler>

200003cc <ACE_Comp10_Fall_IRQHandler>:
200003cc:	e7fe      	b.n	200003cc <ACE_Comp10_Fall_IRQHandler>

200003ce <ACE_Comp11_Fall_IRQHandler>:
200003ce:	e7fe      	b.n	200003ce <ACE_Comp11_Fall_IRQHandler>

200003d0 <ACE_Comp0_Rise_IRQHandler>:
200003d0:	e7fe      	b.n	200003d0 <ACE_Comp0_Rise_IRQHandler>

200003d2 <ACE_Comp1_Rise_IRQHandler>:
200003d2:	e7fe      	b.n	200003d2 <ACE_Comp1_Rise_IRQHandler>

200003d4 <ACE_Comp2_Rise_IRQHandler>:
200003d4:	e7fe      	b.n	200003d4 <ACE_Comp2_Rise_IRQHandler>

200003d6 <ACE_Comp3_Rise_IRQHandler>:
200003d6:	e7fe      	b.n	200003d6 <ACE_Comp3_Rise_IRQHandler>

200003d8 <ACE_Comp4_Rise_IRQHandler>:
200003d8:	e7fe      	b.n	200003d8 <ACE_Comp4_Rise_IRQHandler>

200003da <ACE_Comp5_Rise_IRQHandler>:
200003da:	e7fe      	b.n	200003da <ACE_Comp5_Rise_IRQHandler>

200003dc <ACE_Comp6_Rise_IRQHandler>:
200003dc:	e7fe      	b.n	200003dc <ACE_Comp6_Rise_IRQHandler>

200003de <ACE_Comp7_Rise_IRQHandler>:
200003de:	e7fe      	b.n	200003de <ACE_Comp7_Rise_IRQHandler>

200003e0 <ACE_Comp8_Rise_IRQHandler>:
200003e0:	e7fe      	b.n	200003e0 <ACE_Comp8_Rise_IRQHandler>

200003e2 <ACE_Comp9_Rise_IRQHandler>:
200003e2:	e7fe      	b.n	200003e2 <ACE_Comp9_Rise_IRQHandler>

200003e4 <ACE_Comp10_Rise_IRQHandler>:
200003e4:	e7fe      	b.n	200003e4 <ACE_Comp10_Rise_IRQHandler>

200003e6 <ACE_Comp11_Rise_IRQHandler>:
200003e6:	e7fe      	b.n	200003e6 <ACE_Comp11_Rise_IRQHandler>

200003e8 <ACE_ADC0_FifoFull_IRQHandler>:
200003e8:	e7fe      	b.n	200003e8 <ACE_ADC0_FifoFull_IRQHandler>

200003ea <ACE_ADC0_FifoAFull_IRQHandler>:
200003ea:	e7fe      	b.n	200003ea <ACE_ADC0_FifoAFull_IRQHandler>

200003ec <ACE_ADC0_FifoEmpty_IRQHandler>:
200003ec:	e7fe      	b.n	200003ec <ACE_ADC0_FifoEmpty_IRQHandler>

200003ee <ACE_ADC1_FifoFull_IRQHandler>:
200003ee:	e7fe      	b.n	200003ee <ACE_ADC1_FifoFull_IRQHandler>

200003f0 <ACE_ADC1_FifoAFull_IRQHandler>:
200003f0:	e7fe      	b.n	200003f0 <ACE_ADC1_FifoAFull_IRQHandler>

200003f2 <ACE_ADC1_FifoEmpty_IRQHandler>:
200003f2:	e7fe      	b.n	200003f2 <ACE_ADC1_FifoEmpty_IRQHandler>

200003f4 <ACE_ADC2_FifoFull_IRQHandler>:
200003f4:	e7fe      	b.n	200003f4 <ACE_ADC2_FifoFull_IRQHandler>

200003f6 <ACE_ADC2_FifoAFull_IRQHandler>:
200003f6:	e7fe      	b.n	200003f6 <ACE_ADC2_FifoAFull_IRQHandler>

200003f8 <ACE_ADC2_FifoEmpty_IRQHandler>:
200003f8:	e7fe      	b.n	200003f8 <ACE_ADC2_FifoEmpty_IRQHandler>

200003fa <ACE_PPE_Flag0_IRQHandler>:
200003fa:	e7fe      	b.n	200003fa <ACE_PPE_Flag0_IRQHandler>

200003fc <ACE_PPE_Flag1_IRQHandler>:
200003fc:	e7fe      	b.n	200003fc <ACE_PPE_Flag1_IRQHandler>

200003fe <ACE_PPE_Flag2_IRQHandler>:
200003fe:	e7fe      	b.n	200003fe <ACE_PPE_Flag2_IRQHandler>

20000400 <ACE_PPE_Flag3_IRQHandler>:
20000400:	e7fe      	b.n	20000400 <ACE_PPE_Flag3_IRQHandler>

20000402 <ACE_PPE_Flag4_IRQHandler>:
20000402:	e7fe      	b.n	20000402 <ACE_PPE_Flag4_IRQHandler>

20000404 <ACE_PPE_Flag5_IRQHandler>:
20000404:	e7fe      	b.n	20000404 <ACE_PPE_Flag5_IRQHandler>

20000406 <ACE_PPE_Flag6_IRQHandler>:
20000406:	e7fe      	b.n	20000406 <ACE_PPE_Flag6_IRQHandler>

20000408 <ACE_PPE_Flag7_IRQHandler>:
20000408:	e7fe      	b.n	20000408 <ACE_PPE_Flag7_IRQHandler>

2000040a <ACE_PPE_Flag8_IRQHandler>:
2000040a:	e7fe      	b.n	2000040a <ACE_PPE_Flag8_IRQHandler>

2000040c <ACE_PPE_Flag9_IRQHandler>:
2000040c:	e7fe      	b.n	2000040c <ACE_PPE_Flag9_IRQHandler>

2000040e <ACE_PPE_Flag10_IRQHandler>:
2000040e:	e7fe      	b.n	2000040e <ACE_PPE_Flag10_IRQHandler>

20000410 <ACE_PPE_Flag11_IRQHandler>:
20000410:	e7fe      	b.n	20000410 <ACE_PPE_Flag11_IRQHandler>

20000412 <ACE_PPE_Flag12_IRQHandler>:
20000412:	e7fe      	b.n	20000412 <ACE_PPE_Flag12_IRQHandler>

20000414 <ACE_PPE_Flag13_IRQHandler>:
20000414:	e7fe      	b.n	20000414 <ACE_PPE_Flag13_IRQHandler>

20000416 <ACE_PPE_Flag14_IRQHandler>:
20000416:	e7fe      	b.n	20000416 <ACE_PPE_Flag14_IRQHandler>

20000418 <ACE_PPE_Flag15_IRQHandler>:
20000418:	e7fe      	b.n	20000418 <ACE_PPE_Flag15_IRQHandler>

2000041a <ACE_PPE_Flag16_IRQHandler>:
2000041a:	e7fe      	b.n	2000041a <ACE_PPE_Flag16_IRQHandler>

2000041c <ACE_PPE_Flag17_IRQHandler>:
2000041c:	e7fe      	b.n	2000041c <ACE_PPE_Flag17_IRQHandler>

2000041e <ACE_PPE_Flag18_IRQHandler>:
2000041e:	e7fe      	b.n	2000041e <ACE_PPE_Flag18_IRQHandler>

20000420 <ACE_PPE_Flag19_IRQHandler>:
20000420:	e7fe      	b.n	20000420 <ACE_PPE_Flag19_IRQHandler>

20000422 <ACE_PPE_Flag20_IRQHandler>:
20000422:	e7fe      	b.n	20000422 <ACE_PPE_Flag20_IRQHandler>

20000424 <ACE_PPE_Flag21_IRQHandler>:
20000424:	e7fe      	b.n	20000424 <ACE_PPE_Flag21_IRQHandler>

20000426 <ACE_PPE_Flag22_IRQHandler>:
20000426:	e7fe      	b.n	20000426 <ACE_PPE_Flag22_IRQHandler>

20000428 <ACE_PPE_Flag23_IRQHandler>:
20000428:	e7fe      	b.n	20000428 <ACE_PPE_Flag23_IRQHandler>

2000042a <ACE_PPE_Flag24_IRQHandler>:
2000042a:	e7fe      	b.n	2000042a <ACE_PPE_Flag24_IRQHandler>

2000042c <ACE_PPE_Flag25_IRQHandler>:
2000042c:	e7fe      	b.n	2000042c <ACE_PPE_Flag25_IRQHandler>

2000042e <ACE_PPE_Flag26_IRQHandler>:
2000042e:	e7fe      	b.n	2000042e <ACE_PPE_Flag26_IRQHandler>

20000430 <ACE_PPE_Flag27_IRQHandler>:
20000430:	e7fe      	b.n	20000430 <ACE_PPE_Flag27_IRQHandler>

20000432 <ACE_PPE_Flag28_IRQHandler>:
20000432:	e7fe      	b.n	20000432 <ACE_PPE_Flag28_IRQHandler>

20000434 <ACE_PPE_Flag29_IRQHandler>:
20000434:	e7fe      	b.n	20000434 <ACE_PPE_Flag29_IRQHandler>

20000436 <ACE_PPE_Flag30_IRQHandler>:
20000436:	e7fe      	b.n	20000436 <ACE_PPE_Flag30_IRQHandler>

20000438 <ACE_PPE_Flag31_IRQHandler>:
20000438:	e7fe      	b.n	20000438 <ACE_PPE_Flag31_IRQHandler>
2000043a:	0000      	.short	0x0000
2000043c:	20004035 	.word	0x20004035
20000440:	00000000 	.word	0x00000000
20000444:	20000000 	.word	0x20000000
20000448:	20000000 	.word	0x20000000
2000044c:	2000ae10 	.word	0x2000ae10
20000450:	2000ae10 	.word	0x2000ae10
20000454:	2000ae10 	.word	0x2000ae10
20000458:	2000b330 	.word	0x2000b330
2000045c:	00000000 	.word	0x00000000
20000460:	2000b330 	.word	0x2000b330
20000464:	2000b5c8 	.word	0x2000b5c8
20000468:	200042a5 	.word	0x200042a5
2000046c:	20001e49 	.word	0x20001e49

20000470 <__do_global_dtors_aux>:
20000470:	f24b 3330 	movw	r3, #45872	; 0xb330
20000474:	f2c2 0300 	movt	r3, #8192	; 0x2000
20000478:	781a      	ldrb	r2, [r3, #0]
2000047a:	b90a      	cbnz	r2, 20000480 <__do_global_dtors_aux+0x10>
2000047c:	2001      	movs	r0, #1
2000047e:	7018      	strb	r0, [r3, #0]
20000480:	4770      	bx	lr
20000482:	bf00      	nop

20000484 <frame_dummy>:
20000484:	f64a 6010 	movw	r0, #44560	; 0xae10
20000488:	f2c2 0000 	movt	r0, #8192	; 0x2000
2000048c:	b508      	push	{r3, lr}
2000048e:	6803      	ldr	r3, [r0, #0]
20000490:	b12b      	cbz	r3, 2000049e <frame_dummy+0x1a>
20000492:	f240 0300 	movw	r3, #0
20000496:	f2c0 0300 	movt	r3, #0
2000049a:	b103      	cbz	r3, 2000049e <frame_dummy+0x1a>
2000049c:	4798      	blx	r3
2000049e:	bd08      	pop	{r3, pc}

200004a0 <ts_begin>:
/**************************************************************************/
/*!
    @brief  Setups the HW
*/
/**************************************************************************/
bool ts_begin(struct Adafruit_FT6206 * ts, uint8_t thresh) {
200004a0:	b580      	push	{r7, lr}
200004a2:	b082      	sub	sp, #8
200004a4:	af00      	add	r7, sp, #0
200004a6:	6078      	str	r0, [r7, #4]
200004a8:	460b      	mov	r3, r1
200004aa:	70fb      	strb	r3, [r7, #3]
	  //Wire.begin();
		//dont init i2c here because we must call init each time a different address is used!

	  // change threshhold to be higher/lower
	   writeRegister8(FT6206_REG_THRESHHOLD, thresh);
200004ac:	78fb      	ldrb	r3, [r7, #3]
200004ae:	f04f 0080 	mov.w	r0, #128	; 0x80
200004b2:	4619      	mov	r1, r3
200004b4:	f000 f99c 	bl	200007f0 <writeRegister8>
  return true;
200004b8:	f04f 0301 	mov.w	r3, #1
}
200004bc:	4618      	mov	r0, r3
200004be:	f107 0708 	add.w	r7, r7, #8
200004c2:	46bd      	mov	sp, r7
200004c4:	bd80      	pop	{r7, pc}
200004c6:	bf00      	nop

200004c8 <touched>:

bool touched(struct Adafruit_FT6206 * ts) {
200004c8:	b580      	push	{r7, lr}
200004ca:	b084      	sub	sp, #16
200004cc:	af00      	add	r7, sp, #0
200004ce:	6078      	str	r0, [r7, #4]

  uint8_t n = readRegister8(FT6206_REG_NUMTOUCHES);
200004d0:	f04f 0002 	mov.w	r0, #2
200004d4:	f000 f958 	bl	20000788 <readRegister8>
200004d8:	4603      	mov	r3, r0
200004da:	73fb      	strb	r3, [r7, #15]
  if ((n == 1) || (n == 2)) return true;
200004dc:	7bfb      	ldrb	r3, [r7, #15]
200004de:	2b01      	cmp	r3, #1
200004e0:	d002      	beq.n	200004e8 <touched+0x20>
200004e2:	7bfb      	ldrb	r3, [r7, #15]
200004e4:	2b02      	cmp	r3, #2
200004e6:	d102      	bne.n	200004ee <touched+0x26>
200004e8:	f04f 0301 	mov.w	r3, #1
200004ec:	e001      	b.n	200004f2 <touched+0x2a>
  return false;
200004ee:	f04f 0300 	mov.w	r3, #0
}
200004f2:	4618      	mov	r0, r3
200004f4:	f107 0710 	add.w	r7, r7, #16
200004f8:	46bd      	mov	sp, r7
200004fa:	bd80      	pop	{r7, pc}

200004fc <readData>:

/*****************************/

void readData(struct Adafruit_FT6206 * ts, uint16_t *x, uint16_t *y) {
200004fc:	b580      	push	{r7, lr}
200004fe:	b08e      	sub	sp, #56	; 0x38
20000500:	af04      	add	r7, sp, #16
20000502:	60f8      	str	r0, [r7, #12]
20000504:	60b9      	str	r1, [r7, #8]
20000506:	607a      	str	r2, [r7, #4]
	//  for (uint8_t i=0; i<16; i++)
	//    i2cdat[i] = Wire.read();
	//  Wire.endTransmission();
	//
	//
	  uint8_t zero =0;
20000508:	f04f 0300 	mov.w	r3, #0
2000050c:	74fb      	strb	r3, [r7, #19]
	  MSS_I2C_init(&g_mss_i2c1, FT6206_ADDR, MSS_I2C_PCLK_DIV_256 );
2000050e:	f24b 504c 	movw	r0, #46412	; 0xb54c
20000512:	f2c2 0000 	movt	r0, #8192	; 0x2000
20000516:	f04f 0138 	mov.w	r1, #56	; 0x38
2000051a:	f04f 0200 	mov.w	r2, #0
2000051e:	f002 fe9d 	bl	2000325c <MSS_I2C_init>
	  MSS_I2C_write_read( &g_mss_i2c1, FT6206_ADDR, &zero,
20000522:	f107 0313 	add.w	r3, r7, #19
20000526:	f107 0214 	add.w	r2, r7, #20
2000052a:	9200      	str	r2, [sp, #0]
2000052c:	f04f 0210 	mov.w	r2, #16
20000530:	9201      	str	r2, [sp, #4]
20000532:	f04f 0200 	mov.w	r2, #0
20000536:	9202      	str	r2, [sp, #8]
20000538:	f24b 504c 	movw	r0, #46412	; 0xb54c
2000053c:	f2c2 0000 	movt	r0, #8192	; 0x2000
20000540:	f04f 0138 	mov.w	r1, #56	; 0x38
20000544:	461a      	mov	r2, r3
20000546:	f04f 0301 	mov.w	r3, #1
2000054a:	f002 ffb7 	bl	200034bc <MSS_I2C_write_read>
	                              sizeof(zero), i2cdat, sizeof(i2cdat),
	                              MSS_I2C_RELEASE_BUS );
	  MSS_I2C_wait_complete(&g_mss_i2c1, 1);
2000054e:	f24b 504c 	movw	r0, #46412	; 0xb54c
20000552:	f2c2 0000 	movt	r0, #8192	; 0x2000
20000556:	f04f 0101 	mov.w	r1, #1
2000055a:	f003 f845 	bl	200035e8 <MSS_I2C_wait_complete>
	  ts->touches = i2cdat[0x02];
2000055e:	7dba      	ldrb	r2, [r7, #22]
20000560:	68fb      	ldr	r3, [r7, #12]
20000562:	701a      	strb	r2, [r3, #0]

	  //Serial.println(touches);
	  if (ts->touches > 2) {
20000564:	68fb      	ldr	r3, [r7, #12]
20000566:	781b      	ldrb	r3, [r3, #0]
20000568:	2b02      	cmp	r3, #2
2000056a:	d90b      	bls.n	20000584 <readData+0x88>
		  ts->touches = 0;
2000056c:	68fb      	ldr	r3, [r7, #12]
2000056e:	f04f 0200 	mov.w	r2, #0
20000572:	701a      	strb	r2, [r3, #0]
	    *x = *y = 0;
20000574:	687b      	ldr	r3, [r7, #4]
20000576:	f04f 0200 	mov.w	r2, #0
2000057a:	801a      	strh	r2, [r3, #0]
2000057c:	687b      	ldr	r3, [r7, #4]
2000057e:	881a      	ldrh	r2, [r3, #0]
20000580:	68bb      	ldr	r3, [r7, #8]
20000582:	801a      	strh	r2, [r3, #0]
	  }
	  if (ts->touches == 0) {
20000584:	68fb      	ldr	r3, [r7, #12]
20000586:	781b      	ldrb	r3, [r3, #0]
20000588:	2b00      	cmp	r3, #0
2000058a:	d108      	bne.n	2000059e <readData+0xa2>
	    *x = *y = 0;
2000058c:	687b      	ldr	r3, [r7, #4]
2000058e:	f04f 0200 	mov.w	r2, #0
20000592:	801a      	strh	r2, [r3, #0]
20000594:	687b      	ldr	r3, [r7, #4]
20000596:	881a      	ldrh	r2, [r3, #0]
20000598:	68bb      	ldr	r3, [r7, #8]
2000059a:	801a      	strh	r2, [r3, #0]
	    return;
2000059c:	e0c7      	b.n	2000072e <readData+0x232>
	  }

	  uint8_t i;
	    for ( i=0; i<2; i++) {
2000059e:	f04f 0300 	mov.w	r3, #0
200005a2:	f887 3027 	strb.w	r3, [r7, #39]	; 0x27
200005a6:	e0b5      	b.n	20000714 <readData+0x218>
	      ts->touchX[i] = i2cdat[0x03 + i*6] & 0x0F;
200005a8:	f897 0027 	ldrb.w	r0, [r7, #39]	; 0x27
200005ac:	f897 2027 	ldrb.w	r2, [r7, #39]	; 0x27
200005b0:	4613      	mov	r3, r2
200005b2:	ea4f 0343 	mov.w	r3, r3, lsl #1
200005b6:	4413      	add	r3, r2
200005b8:	ea4f 0343 	mov.w	r3, r3, lsl #1
200005bc:	f103 0303 	add.w	r3, r3, #3
200005c0:	f107 0228 	add.w	r2, r7, #40	; 0x28
200005c4:	4413      	add	r3, r2
200005c6:	f813 3c14 	ldrb.w	r3, [r3, #-20]
200005ca:	461a      	mov	r2, r3
200005cc:	f002 020f 	and.w	r2, r2, #15
200005d0:	68f9      	ldr	r1, [r7, #12]
200005d2:	ea4f 0340 	mov.w	r3, r0, lsl #1
200005d6:	440b      	add	r3, r1
200005d8:	805a      	strh	r2, [r3, #2]
	      ts->touchX[i] <<= 8;
200005da:	f897 0027 	ldrb.w	r0, [r7, #39]	; 0x27
200005de:	f897 3027 	ldrb.w	r3, [r7, #39]	; 0x27
200005e2:	68fa      	ldr	r2, [r7, #12]
200005e4:	ea4f 0343 	mov.w	r3, r3, lsl #1
200005e8:	4413      	add	r3, r2
200005ea:	885b      	ldrh	r3, [r3, #2]
200005ec:	ea4f 2303 	mov.w	r3, r3, lsl #8
200005f0:	b29a      	uxth	r2, r3
200005f2:	68f9      	ldr	r1, [r7, #12]
200005f4:	ea4f 0340 	mov.w	r3, r0, lsl #1
200005f8:	440b      	add	r3, r1
200005fa:	805a      	strh	r2, [r3, #2]
	      ts->touchX[i] |= i2cdat[0x04 + i*6];
200005fc:	f897 0027 	ldrb.w	r0, [r7, #39]	; 0x27
20000600:	f897 3027 	ldrb.w	r3, [r7, #39]	; 0x27
20000604:	68fa      	ldr	r2, [r7, #12]
20000606:	ea4f 0343 	mov.w	r3, r3, lsl #1
2000060a:	4413      	add	r3, r2
2000060c:	8859      	ldrh	r1, [r3, #2]
2000060e:	f897 2027 	ldrb.w	r2, [r7, #39]	; 0x27
20000612:	4613      	mov	r3, r2
20000614:	ea4f 0343 	mov.w	r3, r3, lsl #1
20000618:	4413      	add	r3, r2
2000061a:	ea4f 0343 	mov.w	r3, r3, lsl #1
2000061e:	f103 0304 	add.w	r3, r3, #4
20000622:	f107 0228 	add.w	r2, r7, #40	; 0x28
20000626:	4413      	add	r3, r2
20000628:	f813 3c14 	ldrb.w	r3, [r3, #-20]
2000062c:	ea41 0303 	orr.w	r3, r1, r3
20000630:	b29a      	uxth	r2, r3
20000632:	68f9      	ldr	r1, [r7, #12]
20000634:	ea4f 0340 	mov.w	r3, r0, lsl #1
20000638:	440b      	add	r3, r1
2000063a:	805a      	strh	r2, [r3, #2]
	      ts->touchY[i] = i2cdat[0x05 + i*6] & 0x0F;
2000063c:	f897 0027 	ldrb.w	r0, [r7, #39]	; 0x27
20000640:	f897 2027 	ldrb.w	r2, [r7, #39]	; 0x27
20000644:	4613      	mov	r3, r2
20000646:	ea4f 0343 	mov.w	r3, r3, lsl #1
2000064a:	4413      	add	r3, r2
2000064c:	ea4f 0343 	mov.w	r3, r3, lsl #1
20000650:	f103 0305 	add.w	r3, r3, #5
20000654:	f107 0228 	add.w	r2, r7, #40	; 0x28
20000658:	4413      	add	r3, r2
2000065a:	f813 3c14 	ldrb.w	r3, [r3, #-20]
2000065e:	461a      	mov	r2, r3
20000660:	f002 020f 	and.w	r2, r2, #15
20000664:	68f9      	ldr	r1, [r7, #12]
20000666:	ea4f 0340 	mov.w	r3, r0, lsl #1
2000066a:	440b      	add	r3, r1
2000066c:	80da      	strh	r2, [r3, #6]
	      ts->touchY[i] <<= 8;
2000066e:	f897 0027 	ldrb.w	r0, [r7, #39]	; 0x27
20000672:	f897 3027 	ldrb.w	r3, [r7, #39]	; 0x27
20000676:	68fa      	ldr	r2, [r7, #12]
20000678:	ea4f 0343 	mov.w	r3, r3, lsl #1
2000067c:	4413      	add	r3, r2
2000067e:	88db      	ldrh	r3, [r3, #6]
20000680:	ea4f 2303 	mov.w	r3, r3, lsl #8
20000684:	b29a      	uxth	r2, r3
20000686:	68f9      	ldr	r1, [r7, #12]
20000688:	ea4f 0340 	mov.w	r3, r0, lsl #1
2000068c:	440b      	add	r3, r1
2000068e:	80da      	strh	r2, [r3, #6]
	      ts->touchY[i] |= i2cdat[0x06 + i*6];
20000690:	f897 0027 	ldrb.w	r0, [r7, #39]	; 0x27
20000694:	f897 3027 	ldrb.w	r3, [r7, #39]	; 0x27
20000698:	68fa      	ldr	r2, [r7, #12]
2000069a:	ea4f 0343 	mov.w	r3, r3, lsl #1
2000069e:	4413      	add	r3, r2
200006a0:	88d9      	ldrh	r1, [r3, #6]
200006a2:	f897 3027 	ldrb.w	r3, [r7, #39]	; 0x27
200006a6:	f103 0201 	add.w	r2, r3, #1
200006aa:	4613      	mov	r3, r2
200006ac:	ea4f 0343 	mov.w	r3, r3, lsl #1
200006b0:	4413      	add	r3, r2
200006b2:	ea4f 0343 	mov.w	r3, r3, lsl #1
200006b6:	f107 0228 	add.w	r2, r7, #40	; 0x28
200006ba:	4413      	add	r3, r2
200006bc:	f813 3c14 	ldrb.w	r3, [r3, #-20]
200006c0:	ea41 0303 	orr.w	r3, r1, r3
200006c4:	b29a      	uxth	r2, r3
200006c6:	68f9      	ldr	r1, [r7, #12]
200006c8:	ea4f 0340 	mov.w	r3, r0, lsl #1
200006cc:	440b      	add	r3, r1
200006ce:	80da      	strh	r2, [r3, #6]
	      ts->touchID[i] = i2cdat[0x05 + i*6] >> 4;
200006d0:	f897 0027 	ldrb.w	r0, [r7, #39]	; 0x27
200006d4:	f897 2027 	ldrb.w	r2, [r7, #39]	; 0x27
200006d8:	4613      	mov	r3, r2
200006da:	ea4f 0343 	mov.w	r3, r3, lsl #1
200006de:	4413      	add	r3, r2
200006e0:	ea4f 0343 	mov.w	r3, r3, lsl #1
200006e4:	f103 0305 	add.w	r3, r3, #5
200006e8:	f107 0228 	add.w	r2, r7, #40	; 0x28
200006ec:	4413      	add	r3, r2
200006ee:	f813 3c14 	ldrb.w	r3, [r3, #-20]
200006f2:	ea4f 1313 	mov.w	r3, r3, lsr #4
200006f6:	b2db      	uxtb	r3, r3
200006f8:	461a      	mov	r2, r3
200006fa:	68f9      	ldr	r1, [r7, #12]
200006fc:	f100 0304 	add.w	r3, r0, #4
20000700:	ea4f 0343 	mov.w	r3, r3, lsl #1
20000704:	440b      	add	r3, r1
20000706:	805a      	strh	r2, [r3, #2]
	    *x = *y = 0;
	    return;
	  }

	  uint8_t i;
	    for ( i=0; i<2; i++) {
20000708:	f897 3027 	ldrb.w	r3, [r7, #39]	; 0x27
2000070c:	f103 0301 	add.w	r3, r3, #1
20000710:	f887 3027 	strb.w	r3, [r7, #39]	; 0x27
20000714:	f897 3027 	ldrb.w	r3, [r7, #39]	; 0x27
20000718:	2b01      	cmp	r3, #1
2000071a:	f67f af45 	bls.w	200005a8 <readData+0xac>
	      Serial.print(", "); Serial.print(touchY[i]);
	      Serial.print (") ");
	    }
	    Serial.println();
	    */
	    *x = ts->touchX[0]; *y = ts->touchY[0];
2000071e:	68fb      	ldr	r3, [r7, #12]
20000720:	885a      	ldrh	r2, [r3, #2]
20000722:	68bb      	ldr	r3, [r7, #8]
20000724:	801a      	strh	r2, [r3, #0]
20000726:	68fb      	ldr	r3, [r7, #12]
20000728:	88da      	ldrh	r2, [r3, #6]
2000072a:	687b      	ldr	r3, [r7, #4]
2000072c:	801a      	strh	r2, [r3, #0]
}
2000072e:	f107 0728 	add.w	r7, r7, #40	; 0x28
20000732:	46bd      	mov	sp, r7
20000734:	bd80      	pop	{r7, pc}
20000736:	bf00      	nop

20000738 <getPoint>:

struct TS_Point* getPoint(struct Adafruit_FT6206 * ts) {
20000738:	b580      	push	{r7, lr}
2000073a:	b086      	sub	sp, #24
2000073c:	af00      	add	r7, sp, #0
2000073e:	6078      	str	r0, [r7, #4]
  uint16_t x, y;
  uint8_t z = 1;
20000740:	f04f 0301 	mov.w	r3, #1
20000744:	74fb      	strb	r3, [r7, #19]
  readData(ts, &x, &y);
20000746:	f107 0210 	add.w	r2, r7, #16
2000074a:	f107 030e 	add.w	r3, r7, #14
2000074e:	6878      	ldr	r0, [r7, #4]
20000750:	4611      	mov	r1, r2
20000752:	461a      	mov	r2, r3
20000754:	f7ff fed2 	bl	200004fc <readData>
  struct TS_Point * pt_to_return;
  pt_to_return = (struct TS_Point *) malloc(sizeof(struct TS_Point));
20000758:	f04f 0006 	mov.w	r0, #6
2000075c:	f003 fdd2 	bl	20004304 <malloc>
20000760:	4603      	mov	r3, r0
20000762:	617b      	str	r3, [r7, #20]
  pt_to_return->x = x;
20000764:	8a3b      	ldrh	r3, [r7, #16]
20000766:	461a      	mov	r2, r3
20000768:	697b      	ldr	r3, [r7, #20]
2000076a:	801a      	strh	r2, [r3, #0]
  pt_to_return->y = y;
2000076c:	89fb      	ldrh	r3, [r7, #14]
2000076e:	461a      	mov	r2, r3
20000770:	697b      	ldr	r3, [r7, #20]
20000772:	805a      	strh	r2, [r3, #2]
  pt_to_return->z = z;
20000774:	7cfa      	ldrb	r2, [r7, #19]
20000776:	697b      	ldr	r3, [r7, #20]
20000778:	809a      	strh	r2, [r3, #4]
  return pt_to_return;
2000077a:	697b      	ldr	r3, [r7, #20]
}
2000077c:	4618      	mov	r0, r3
2000077e:	f107 0718 	add.w	r7, r7, #24
20000782:	46bd      	mov	sp, r7
20000784:	bd80      	pop	{r7, pc}
20000786:	bf00      	nop

20000788 <readRegister8>:


uint8_t readRegister8(uint8_t reg) {
20000788:	b580      	push	{r7, lr}
2000078a:	b088      	sub	sp, #32
2000078c:	af04      	add	r7, sp, #16
2000078e:	4603      	mov	r3, r0
20000790:	71fb      	strb	r3, [r7, #7]
	//    Wire.beginTransmission(FT6206_ADDR);
	//    Wire.requestFrom((byte)FT6206_ADDR, (byte)1);
	//    x = Wire.read();
	//    Wire.endTransmission();

	  MSS_I2C_init(&g_mss_i2c1, FT6206_ADDR, MSS_I2C_PCLK_DIV_256 );
20000792:	f24b 504c 	movw	r0, #46412	; 0xb54c
20000796:	f2c2 0000 	movt	r0, #8192	; 0x2000
2000079a:	f04f 0138 	mov.w	r1, #56	; 0x38
2000079e:	f04f 0200 	mov.w	r2, #0
200007a2:	f002 fd5b 	bl	2000325c <MSS_I2C_init>
	  MSS_I2C_write_read(    &g_mss_i2c1, FT6206_ADDR, &reg,
200007a6:	f107 0307 	add.w	r3, r7, #7
200007aa:	f107 020f 	add.w	r2, r7, #15
200007ae:	9200      	str	r2, [sp, #0]
200007b0:	f04f 0201 	mov.w	r2, #1
200007b4:	9201      	str	r2, [sp, #4]
200007b6:	f04f 0200 	mov.w	r2, #0
200007ba:	9202      	str	r2, [sp, #8]
200007bc:	f24b 504c 	movw	r0, #46412	; 0xb54c
200007c0:	f2c2 0000 	movt	r0, #8192	; 0x2000
200007c4:	f04f 0138 	mov.w	r1, #56	; 0x38
200007c8:	461a      	mov	r2, r3
200007ca:	f04f 0301 	mov.w	r3, #1
200007ce:	f002 fe75 	bl	200034bc <MSS_I2C_write_read>
              sizeof(reg), &x, sizeof(x),
              MSS_I2C_RELEASE_BUS);
	  MSS_I2C_wait_complete(&g_mss_i2c1, 1);
200007d2:	f24b 504c 	movw	r0, #46412	; 0xb54c
200007d6:	f2c2 0000 	movt	r0, #8192	; 0x2000
200007da:	f04f 0101 	mov.w	r1, #1
200007de:	f002 ff03 	bl	200035e8 <MSS_I2C_wait_complete>

	  //  Serial.print("$"); Serial.print(reg, HEX);
	  //  Serial.print(": 0x"); Serial.println(x, HEX);

	  return x;
200007e2:	7bfb      	ldrb	r3, [r7, #15]
}
200007e4:	4618      	mov	r0, r3
200007e6:	f107 0710 	add.w	r7, r7, #16
200007ea:	46bd      	mov	sp, r7
200007ec:	bd80      	pop	{r7, pc}
200007ee:	bf00      	nop

200007f0 <writeRegister8>:

void writeRegister8(uint8_t reg, uint8_t val) {
200007f0:	b580      	push	{r7, lr}
200007f2:	b084      	sub	sp, #16
200007f4:	af02      	add	r7, sp, #8
200007f6:	4602      	mov	r2, r0
200007f8:	460b      	mov	r3, r1
200007fa:	71fa      	strb	r2, [r7, #7]
200007fc:	71bb      	strb	r3, [r7, #6]
	//    Wire.beginTransmission(FT6206_ADDR);
	//    Wire.write((byte)reg);
	//    Wire.write((byte)val);
	//    Wire.endTransmission();

		MSS_I2C_init(&g_mss_i2c1, FT6206_ADDR, MSS_I2C_PCLK_DIV_256 );
200007fe:	f24b 504c 	movw	r0, #46412	; 0xb54c
20000802:	f2c2 0000 	movt	r0, #8192	; 0x2000
20000806:	f04f 0138 	mov.w	r1, #56	; 0x38
2000080a:	f04f 0200 	mov.w	r2, #0
2000080e:	f002 fd25 	bl	2000325c <MSS_I2C_init>

		MSS_I2C_write
20000812:	f107 0307 	add.w	r3, r7, #7
20000816:	f04f 0200 	mov.w	r2, #0
2000081a:	9200      	str	r2, [sp, #0]
2000081c:	f24b 504c 	movw	r0, #46412	; 0xb54c
20000820:	f2c2 0000 	movt	r0, #8192	; 0x2000
20000824:	f04f 0138 	mov.w	r1, #56	; 0x38
20000828:	461a      	mov	r2, r3
2000082a:	f04f 0301 	mov.w	r3, #1
2000082e:	f002 fdcb 	bl	200033c8 <MSS_I2C_write>
					FT6206_ADDR, //target address
					&reg,
					sizeof(reg),
					MSS_I2C_RELEASE_BUS
				);
		MSS_I2C_wait_complete(&g_mss_i2c1, 1);
20000832:	f24b 504c 	movw	r0, #46412	; 0xb54c
20000836:	f2c2 0000 	movt	r0, #8192	; 0x2000
2000083a:	f04f 0101 	mov.w	r1, #1
2000083e:	f002 fed3 	bl	200035e8 <MSS_I2C_wait_complete>

		MSS_I2C_write
20000842:	f107 0306 	add.w	r3, r7, #6
20000846:	f04f 0200 	mov.w	r2, #0
2000084a:	9200      	str	r2, [sp, #0]
2000084c:	f24b 504c 	movw	r0, #46412	; 0xb54c
20000850:	f2c2 0000 	movt	r0, #8192	; 0x2000
20000854:	f04f 0138 	mov.w	r1, #56	; 0x38
20000858:	461a      	mov	r2, r3
2000085a:	f04f 0301 	mov.w	r3, #1
2000085e:	f002 fdb3 	bl	200033c8 <MSS_I2C_write>
						FT6206_ADDR, //target address
						&val,
						sizeof(val),
						MSS_I2C_RELEASE_BUS
					);
			MSS_I2C_wait_complete(&g_mss_i2c1, 1);
20000862:	f24b 504c 	movw	r0, #46412	; 0xb54c
20000866:	f2c2 0000 	movt	r0, #8192	; 0x2000
2000086a:	f04f 0101 	mov.w	r1, #1
2000086e:	f002 febb 	bl	200035e8 <MSS_I2C_wait_complete>
}
20000872:	f107 0708 	add.w	r7, r7, #8
20000876:	46bd      	mov	sp, r7
20000878:	bd80      	pop	{r7, pc}
2000087a:	bf00      	nop

2000087c <fillScreen>:
//        writeFastVLine(i, y, h, color);
//    }
//
//}

void fillScreen(struct Print * print, uint16_t color) {
2000087c:	b580      	push	{r7, lr}
2000087e:	b084      	sub	sp, #16
20000880:	af02      	add	r7, sp, #8
20000882:	6078      	str	r0, [r7, #4]
20000884:	460b      	mov	r3, r1
20000886:	807b      	strh	r3, [r7, #2]
    // Update in subclasses if desired!
    fillRect(print, 0, 0, print->widthe, print->heighte, color);
20000888:	687b      	ldr	r3, [r7, #4]
2000088a:	889b      	ldrh	r3, [r3, #4]
2000088c:	687a      	ldr	r2, [r7, #4]
2000088e:	88d2      	ldrh	r2, [r2, #6]
20000890:	b21b      	sxth	r3, r3
20000892:	b212      	sxth	r2, r2
20000894:	9200      	str	r2, [sp, #0]
20000896:	887a      	ldrh	r2, [r7, #2]
20000898:	9201      	str	r2, [sp, #4]
2000089a:	6878      	ldr	r0, [r7, #4]
2000089c:	f04f 0100 	mov.w	r1, #0
200008a0:	f04f 0200 	mov.w	r2, #0
200008a4:	f000 fe22 	bl	200014ec <fillRect>
}
200008a8:	f107 0708 	add.w	r7, r7, #8
200008ac:	46bd      	mov	sp, r7
200008ae:	bd80      	pop	{r7, pc}

200008b0 <fillCircleHelper>:

}

// Used to do circles and roundrects
void fillCircleHelper(struct Print * print, int16_t x0, int16_t y0, int16_t r,
        uint8_t cornername, int16_t delta, uint16_t color) {
200008b0:	b580      	push	{r7, lr}
200008b2:	b08a      	sub	sp, #40	; 0x28
200008b4:	af02      	add	r7, sp, #8
200008b6:	60f8      	str	r0, [r7, #12]
200008b8:	8179      	strh	r1, [r7, #10]
200008ba:	813a      	strh	r2, [r7, #8]
200008bc:	80fb      	strh	r3, [r7, #6]

    int16_t f     = 1 - r;
200008be:	88fb      	ldrh	r3, [r7, #6]
200008c0:	f1c3 0301 	rsb	r3, r3, #1
200008c4:	b29b      	uxth	r3, r3
200008c6:	82fb      	strh	r3, [r7, #22]
    int16_t ddF_x = 1;
200008c8:	f04f 0301 	mov.w	r3, #1
200008cc:	833b      	strh	r3, [r7, #24]
    int16_t ddF_y = -2 * r;
200008ce:	88fb      	ldrh	r3, [r7, #6]
200008d0:	461a      	mov	r2, r3
200008d2:	ea4f 32c2 	mov.w	r2, r2, lsl #15
200008d6:	ebc3 0302 	rsb	r3, r3, r2
200008da:	ea4f 0343 	mov.w	r3, r3, lsl #1
200008de:	b29b      	uxth	r3, r3
200008e0:	837b      	strh	r3, [r7, #26]
    int16_t x     = 0;
200008e2:	f04f 0300 	mov.w	r3, #0
200008e6:	83bb      	strh	r3, [r7, #28]
    int16_t y     = r;
200008e8:	88fb      	ldrh	r3, [r7, #6]
200008ea:	83fb      	strh	r3, [r7, #30]

    while (x<y) {
200008ec:	e0a2      	b.n	20000a34 <fillCircleHelper+0x184>
        if (f >= 0) {
200008ee:	f9b7 3016 	ldrsh.w	r3, [r7, #22]
200008f2:	2b00      	cmp	r3, #0
200008f4:	db0d      	blt.n	20000912 <fillCircleHelper+0x62>
            y--;
200008f6:	8bfb      	ldrh	r3, [r7, #30]
200008f8:	f103 33ff 	add.w	r3, r3, #4294967295
200008fc:	83fb      	strh	r3, [r7, #30]
            ddF_y += 2;
200008fe:	8b7b      	ldrh	r3, [r7, #26]
20000900:	f103 0302 	add.w	r3, r3, #2
20000904:	b29b      	uxth	r3, r3
20000906:	837b      	strh	r3, [r7, #26]
            f     += ddF_y;
20000908:	8afa      	ldrh	r2, [r7, #22]
2000090a:	8b7b      	ldrh	r3, [r7, #26]
2000090c:	4413      	add	r3, r2
2000090e:	b29b      	uxth	r3, r3
20000910:	82fb      	strh	r3, [r7, #22]
        }
        x++;
20000912:	8bbb      	ldrh	r3, [r7, #28]
20000914:	f103 0301 	add.w	r3, r3, #1
20000918:	83bb      	strh	r3, [r7, #28]
        ddF_x += 2;
2000091a:	8b3b      	ldrh	r3, [r7, #24]
2000091c:	f103 0302 	add.w	r3, r3, #2
20000920:	b29b      	uxth	r3, r3
20000922:	833b      	strh	r3, [r7, #24]
        f     += ddF_x;
20000924:	8afa      	ldrh	r2, [r7, #22]
20000926:	8b3b      	ldrh	r3, [r7, #24]
20000928:	4413      	add	r3, r2
2000092a:	b29b      	uxth	r3, r3
2000092c:	82fb      	strh	r3, [r7, #22]

        if (cornername & 0x1) {
2000092e:	f897 3028 	ldrb.w	r3, [r7, #40]	; 0x28
20000932:	f003 0301 	and.w	r3, r3, #1
20000936:	b2db      	uxtb	r3, r3
20000938:	2b00      	cmp	r3, #0
2000093a:	d039      	beq.n	200009b0 <fillCircleHelper+0x100>
            writeFastVLine(print, x0+x, y0-y, 2*y+1+delta, color);
2000093c:	897a      	ldrh	r2, [r7, #10]
2000093e:	8bbb      	ldrh	r3, [r7, #28]
20000940:	4413      	add	r3, r2
20000942:	b29b      	uxth	r3, r3
20000944:	4619      	mov	r1, r3
20000946:	893a      	ldrh	r2, [r7, #8]
20000948:	8bfb      	ldrh	r3, [r7, #30]
2000094a:	ebc3 0302 	rsb	r3, r3, r2
2000094e:	b29b      	uxth	r3, r3
20000950:	461a      	mov	r2, r3
20000952:	8bfb      	ldrh	r3, [r7, #30]
20000954:	ea4f 0343 	mov.w	r3, r3, lsl #1
20000958:	b298      	uxth	r0, r3
2000095a:	8dbb      	ldrh	r3, [r7, #44]	; 0x2c
2000095c:	4403      	add	r3, r0
2000095e:	b29b      	uxth	r3, r3
20000960:	f103 0301 	add.w	r3, r3, #1
20000964:	b29b      	uxth	r3, r3
20000966:	b209      	sxth	r1, r1
20000968:	b212      	sxth	r2, r2
2000096a:	b21b      	sxth	r3, r3
2000096c:	8e38      	ldrh	r0, [r7, #48]	; 0x30
2000096e:	9000      	str	r0, [sp, #0]
20000970:	68f8      	ldr	r0, [r7, #12]
20000972:	f000 fd9f 	bl	200014b4 <writeFastVLine>
            writeFastVLine(print, x0+y, y0-x, 2*x+1+delta, color);
20000976:	897a      	ldrh	r2, [r7, #10]
20000978:	8bfb      	ldrh	r3, [r7, #30]
2000097a:	4413      	add	r3, r2
2000097c:	b29b      	uxth	r3, r3
2000097e:	4619      	mov	r1, r3
20000980:	893a      	ldrh	r2, [r7, #8]
20000982:	8bbb      	ldrh	r3, [r7, #28]
20000984:	ebc3 0302 	rsb	r3, r3, r2
20000988:	b29b      	uxth	r3, r3
2000098a:	461a      	mov	r2, r3
2000098c:	8bbb      	ldrh	r3, [r7, #28]
2000098e:	ea4f 0343 	mov.w	r3, r3, lsl #1
20000992:	b298      	uxth	r0, r3
20000994:	8dbb      	ldrh	r3, [r7, #44]	; 0x2c
20000996:	4403      	add	r3, r0
20000998:	b29b      	uxth	r3, r3
2000099a:	f103 0301 	add.w	r3, r3, #1
2000099e:	b29b      	uxth	r3, r3
200009a0:	b209      	sxth	r1, r1
200009a2:	b212      	sxth	r2, r2
200009a4:	b21b      	sxth	r3, r3
200009a6:	8e38      	ldrh	r0, [r7, #48]	; 0x30
200009a8:	9000      	str	r0, [sp, #0]
200009aa:	68f8      	ldr	r0, [r7, #12]
200009ac:	f000 fd82 	bl	200014b4 <writeFastVLine>
        }
        if (cornername & 0x2) {
200009b0:	f897 3028 	ldrb.w	r3, [r7, #40]	; 0x28
200009b4:	f003 0302 	and.w	r3, r3, #2
200009b8:	2b00      	cmp	r3, #0
200009ba:	d03b      	beq.n	20000a34 <fillCircleHelper+0x184>
            writeFastVLine(print, x0-x, y0-y, 2*y+1+delta, color);
200009bc:	897a      	ldrh	r2, [r7, #10]
200009be:	8bbb      	ldrh	r3, [r7, #28]
200009c0:	ebc3 0302 	rsb	r3, r3, r2
200009c4:	b29b      	uxth	r3, r3
200009c6:	4619      	mov	r1, r3
200009c8:	893a      	ldrh	r2, [r7, #8]
200009ca:	8bfb      	ldrh	r3, [r7, #30]
200009cc:	ebc3 0302 	rsb	r3, r3, r2
200009d0:	b29b      	uxth	r3, r3
200009d2:	461a      	mov	r2, r3
200009d4:	8bfb      	ldrh	r3, [r7, #30]
200009d6:	ea4f 0343 	mov.w	r3, r3, lsl #1
200009da:	b298      	uxth	r0, r3
200009dc:	8dbb      	ldrh	r3, [r7, #44]	; 0x2c
200009de:	4403      	add	r3, r0
200009e0:	b29b      	uxth	r3, r3
200009e2:	f103 0301 	add.w	r3, r3, #1
200009e6:	b29b      	uxth	r3, r3
200009e8:	b209      	sxth	r1, r1
200009ea:	b212      	sxth	r2, r2
200009ec:	b21b      	sxth	r3, r3
200009ee:	8e38      	ldrh	r0, [r7, #48]	; 0x30
200009f0:	9000      	str	r0, [sp, #0]
200009f2:	68f8      	ldr	r0, [r7, #12]
200009f4:	f000 fd5e 	bl	200014b4 <writeFastVLine>
            writeFastVLine(print, x0-y, y0-x, 2*x+1+delta, color);
200009f8:	897a      	ldrh	r2, [r7, #10]
200009fa:	8bfb      	ldrh	r3, [r7, #30]
200009fc:	ebc3 0302 	rsb	r3, r3, r2
20000a00:	b29b      	uxth	r3, r3
20000a02:	4619      	mov	r1, r3
20000a04:	893a      	ldrh	r2, [r7, #8]
20000a06:	8bbb      	ldrh	r3, [r7, #28]
20000a08:	ebc3 0302 	rsb	r3, r3, r2
20000a0c:	b29b      	uxth	r3, r3
20000a0e:	461a      	mov	r2, r3
20000a10:	8bbb      	ldrh	r3, [r7, #28]
20000a12:	ea4f 0343 	mov.w	r3, r3, lsl #1
20000a16:	b298      	uxth	r0, r3
20000a18:	8dbb      	ldrh	r3, [r7, #44]	; 0x2c
20000a1a:	4403      	add	r3, r0
20000a1c:	b29b      	uxth	r3, r3
20000a1e:	f103 0301 	add.w	r3, r3, #1
20000a22:	b29b      	uxth	r3, r3
20000a24:	b209      	sxth	r1, r1
20000a26:	b212      	sxth	r2, r2
20000a28:	b21b      	sxth	r3, r3
20000a2a:	8e38      	ldrh	r0, [r7, #48]	; 0x30
20000a2c:	9000      	str	r0, [sp, #0]
20000a2e:	68f8      	ldr	r0, [r7, #12]
20000a30:	f000 fd40 	bl	200014b4 <writeFastVLine>
    int16_t ddF_x = 1;
    int16_t ddF_y = -2 * r;
    int16_t x     = 0;
    int16_t y     = r;

    while (x<y) {
20000a34:	f9b7 201c 	ldrsh.w	r2, [r7, #28]
20000a38:	f9b7 301e 	ldrsh.w	r3, [r7, #30]
20000a3c:	429a      	cmp	r2, r3
20000a3e:	f6ff af56 	blt.w	200008ee <fillCircleHelper+0x3e>
        if (cornername & 0x2) {
            writeFastVLine(print, x0-x, y0-y, 2*y+1+delta, color);
            writeFastVLine(print, x0-y, y0-x, 2*x+1+delta, color);
        }
    }
}
20000a42:	f107 0720 	add.w	r7, r7, #32
20000a46:	46bd      	mov	sp, r7
20000a48:	bd80      	pop	{r7, pc}
20000a4a:	bf00      	nop

20000a4c <fillRoundRect>:

}

// Fill a rounded rectangle
void fillRoundRect(struct Print * print, int16_t x, int16_t y, int16_t w,
        int16_t h, int16_t r, uint16_t color) {
20000a4c:	b580      	push	{r7, lr}
20000a4e:	b088      	sub	sp, #32
20000a50:	af04      	add	r7, sp, #16
20000a52:	60f8      	str	r0, [r7, #12]
20000a54:	8179      	strh	r1, [r7, #10]
20000a56:	813a      	strh	r2, [r7, #8]
20000a58:	80fb      	strh	r3, [r7, #6]
    // smarter version

    writeFillRect(print, x+r, y, w-2*r, h, color);
20000a5a:	897a      	ldrh	r2, [r7, #10]
20000a5c:	8bbb      	ldrh	r3, [r7, #28]
20000a5e:	4413      	add	r3, r2
20000a60:	b29b      	uxth	r3, r3
20000a62:	461a      	mov	r2, r3
20000a64:	8bbb      	ldrh	r3, [r7, #28]
20000a66:	4619      	mov	r1, r3
20000a68:	ea4f 31c1 	mov.w	r1, r1, lsl #15
20000a6c:	ebc3 0301 	rsb	r3, r3, r1
20000a70:	ea4f 0343 	mov.w	r3, r3, lsl #1
20000a74:	b299      	uxth	r1, r3
20000a76:	88fb      	ldrh	r3, [r7, #6]
20000a78:	440b      	add	r3, r1
20000a7a:	b29b      	uxth	r3, r3
20000a7c:	b211      	sxth	r1, r2
20000a7e:	f9b7 2008 	ldrsh.w	r2, [r7, #8]
20000a82:	b21b      	sxth	r3, r3
20000a84:	f9b7 0018 	ldrsh.w	r0, [r7, #24]
20000a88:	9000      	str	r0, [sp, #0]
20000a8a:	8c38      	ldrh	r0, [r7, #32]
20000a8c:	9001      	str	r0, [sp, #4]
20000a8e:	68f8      	ldr	r0, [r7, #12]
20000a90:	f000 fc8c 	bl	200013ac <writeFillRect>

    // draw four corners
    fillCircleHelper(print, x+w-r-1, y+r, r, 1, h-2*r-1, color);
20000a94:	897a      	ldrh	r2, [r7, #10]
20000a96:	88fb      	ldrh	r3, [r7, #6]
20000a98:	4413      	add	r3, r2
20000a9a:	b29a      	uxth	r2, r3
20000a9c:	8bbb      	ldrh	r3, [r7, #28]
20000a9e:	ebc3 0302 	rsb	r3, r3, r2
20000aa2:	b29b      	uxth	r3, r3
20000aa4:	f103 33ff 	add.w	r3, r3, #4294967295
20000aa8:	b29b      	uxth	r3, r3
20000aaa:	4619      	mov	r1, r3
20000aac:	893a      	ldrh	r2, [r7, #8]
20000aae:	8bbb      	ldrh	r3, [r7, #28]
20000ab0:	4413      	add	r3, r2
20000ab2:	b29b      	uxth	r3, r3
20000ab4:	461a      	mov	r2, r3
20000ab6:	8bbb      	ldrh	r3, [r7, #28]
20000ab8:	4618      	mov	r0, r3
20000aba:	ea4f 30c0 	mov.w	r0, r0, lsl #15
20000abe:	ebc3 0300 	rsb	r3, r3, r0
20000ac2:	ea4f 0343 	mov.w	r3, r3, lsl #1
20000ac6:	b298      	uxth	r0, r3
20000ac8:	8b3b      	ldrh	r3, [r7, #24]
20000aca:	4403      	add	r3, r0
20000acc:	b29b      	uxth	r3, r3
20000ace:	f103 33ff 	add.w	r3, r3, #4294967295
20000ad2:	b29b      	uxth	r3, r3
20000ad4:	4618      	mov	r0, r3
20000ad6:	b209      	sxth	r1, r1
20000ad8:	b212      	sxth	r2, r2
20000ada:	f9b7 301c 	ldrsh.w	r3, [r7, #28]
20000ade:	f04f 0c01 	mov.w	ip, #1
20000ae2:	f8cd c000 	str.w	ip, [sp]
20000ae6:	b200      	sxth	r0, r0
20000ae8:	9001      	str	r0, [sp, #4]
20000aea:	8c38      	ldrh	r0, [r7, #32]
20000aec:	9002      	str	r0, [sp, #8]
20000aee:	68f8      	ldr	r0, [r7, #12]
20000af0:	f7ff fede 	bl	200008b0 <fillCircleHelper>
    fillCircleHelper(print, x+r    , y+r, r, 2, h-2*r-1, color);
20000af4:	897a      	ldrh	r2, [r7, #10]
20000af6:	8bbb      	ldrh	r3, [r7, #28]
20000af8:	4413      	add	r3, r2
20000afa:	b29b      	uxth	r3, r3
20000afc:	4619      	mov	r1, r3
20000afe:	893a      	ldrh	r2, [r7, #8]
20000b00:	8bbb      	ldrh	r3, [r7, #28]
20000b02:	4413      	add	r3, r2
20000b04:	b29b      	uxth	r3, r3
20000b06:	461a      	mov	r2, r3
20000b08:	8bbb      	ldrh	r3, [r7, #28]
20000b0a:	4618      	mov	r0, r3
20000b0c:	ea4f 30c0 	mov.w	r0, r0, lsl #15
20000b10:	ebc3 0300 	rsb	r3, r3, r0
20000b14:	ea4f 0343 	mov.w	r3, r3, lsl #1
20000b18:	b298      	uxth	r0, r3
20000b1a:	8b3b      	ldrh	r3, [r7, #24]
20000b1c:	4403      	add	r3, r0
20000b1e:	b29b      	uxth	r3, r3
20000b20:	f103 33ff 	add.w	r3, r3, #4294967295
20000b24:	b29b      	uxth	r3, r3
20000b26:	4618      	mov	r0, r3
20000b28:	b209      	sxth	r1, r1
20000b2a:	b212      	sxth	r2, r2
20000b2c:	f9b7 301c 	ldrsh.w	r3, [r7, #28]
20000b30:	f04f 0c02 	mov.w	ip, #2
20000b34:	f8cd c000 	str.w	ip, [sp]
20000b38:	b200      	sxth	r0, r0
20000b3a:	9001      	str	r0, [sp, #4]
20000b3c:	8c38      	ldrh	r0, [r7, #32]
20000b3e:	9002      	str	r0, [sp, #8]
20000b40:	68f8      	ldr	r0, [r7, #12]
20000b42:	f7ff feb5 	bl	200008b0 <fillCircleHelper>

}
20000b46:	f107 0710 	add.w	r7, r7, #16
20000b4a:	46bd      	mov	sp, r7
20000b4c:	bd80      	pop	{r7, pc}
20000b4e:	bf00      	nop

20000b50 <drawChar>:

}

// Draw a character
void drawChar(struct Print * print, int16_t x, int16_t y, unsigned char c,
        uint16_t color, uint16_t bg, uint8_t size) {
20000b50:	b580      	push	{r7, lr}
20000b52:	b088      	sub	sp, #32
20000b54:	af02      	add	r7, sp, #8
20000b56:	60f8      	str	r0, [r7, #12]
20000b58:	8179      	strh	r1, [r7, #10]
20000b5a:	813a      	strh	r2, [r7, #8]
20000b5c:	71fb      	strb	r3, [r7, #7]
	int8_t j, i;
//    if(!print->gfxFont) { // 'Classic' built-in font

        if((x >= print->widthe)            || // Clip right
20000b5e:	68fb      	ldr	r3, [r7, #12]
20000b60:	889b      	ldrh	r3, [r3, #4]
20000b62:	f9b7 200a 	ldrsh.w	r2, [r7, #10]
20000b66:	b21b      	sxth	r3, r3
20000b68:	429a      	cmp	r2, r3
20000b6a:	f280 80ed 	bge.w	20000d48 <drawChar+0x1f8>
                (y >= print->heighte)           || // Clip bottom
20000b6e:	68fb      	ldr	r3, [r7, #12]
20000b70:	88db      	ldrh	r3, [r3, #6]
void drawChar(struct Print * print, int16_t x, int16_t y, unsigned char c,
        uint16_t color, uint16_t bg, uint8_t size) {
	int8_t j, i;
//    if(!print->gfxFont) { // 'Classic' built-in font

        if((x >= print->widthe)            || // Clip right
20000b72:	f9b7 2008 	ldrsh.w	r2, [r7, #8]
20000b76:	b21b      	sxth	r3, r3
20000b78:	429a      	cmp	r2, r3
20000b7a:	f280 80e7 	bge.w	20000d4c <drawChar+0x1fc>
                (y >= print->heighte)           || // Clip bottom
                ((x + 6 * size - 1) < 0) || // Clip left
20000b7e:	f9b7 100a 	ldrsh.w	r1, [r7, #10]
20000b82:	f897 2028 	ldrb.w	r2, [r7, #40]	; 0x28
20000b86:	4613      	mov	r3, r2
20000b88:	ea4f 0343 	mov.w	r3, r3, lsl #1
20000b8c:	4413      	add	r3, r2
20000b8e:	ea4f 0343 	mov.w	r3, r3, lsl #1
20000b92:	440b      	add	r3, r1
20000b94:	f103 33ff 	add.w	r3, r3, #4294967295
void drawChar(struct Print * print, int16_t x, int16_t y, unsigned char c,
        uint16_t color, uint16_t bg, uint8_t size) {
	int8_t j, i;
//    if(!print->gfxFont) { // 'Classic' built-in font

        if((x >= print->widthe)            || // Clip right
20000b98:	2b00      	cmp	r3, #0
20000b9a:	f2c0 80d9 	blt.w	20000d50 <drawChar+0x200>
                (y >= print->heighte)           || // Clip bottom
                ((x + 6 * size - 1) < 0) || // Clip left
                ((y + 8 * size - 1) < 0))   // Clip top
20000b9e:	f9b7 2008 	ldrsh.w	r2, [r7, #8]
20000ba2:	f897 3028 	ldrb.w	r3, [r7, #40]	; 0x28
20000ba6:	ea4f 03c3 	mov.w	r3, r3, lsl #3
20000baa:	4413      	add	r3, r2
20000bac:	f103 33ff 	add.w	r3, r3, #4294967295
void drawChar(struct Print * print, int16_t x, int16_t y, unsigned char c,
        uint16_t color, uint16_t bg, uint8_t size) {
	int8_t j, i;
//    if(!print->gfxFont) { // 'Classic' built-in font

        if((x >= print->widthe)            || // Clip right
20000bb0:	2b00      	cmp	r3, #0
20000bb2:	f2c0 80cf 	blt.w	20000d54 <drawChar+0x204>
                (y >= print->heighte)           || // Clip bottom
                ((x + 6 * size - 1) < 0) || // Clip left
                ((y + 8 * size - 1) < 0))   // Clip top
            return;

        if(!print->cp437 && (c >= 176)) c++; // Handle 'classic' charset behavior
20000bb6:	68fb      	ldr	r3, [r7, #12]
20000bb8:	699b      	ldr	r3, [r3, #24]
20000bba:	2b00      	cmp	r3, #0
20000bbc:	d106      	bne.n	20000bcc <drawChar+0x7c>
20000bbe:	79fb      	ldrb	r3, [r7, #7]
20000bc0:	2baf      	cmp	r3, #175	; 0xaf
20000bc2:	d903      	bls.n	20000bcc <drawChar+0x7c>
20000bc4:	79fb      	ldrb	r3, [r7, #7]
20000bc6:	f103 0301 	add.w	r3, r3, #1
20000bca:	71fb      	strb	r3, [r7, #7]


        for(i=0; i<6; i++ ) {
20000bcc:	f04f 0300 	mov.w	r3, #0
20000bd0:	75bb      	strb	r3, [r7, #22]
20000bd2:	e0b3      	b.n	20000d3c <drawChar+0x1ec>
            uint8_t line;
            if(i < 5) line = pgm_read_byte(font+(c*5)+i);
20000bd4:	f997 3016 	ldrsb.w	r3, [r7, #22]
20000bd8:	2b04      	cmp	r3, #4
20000bda:	dc10      	bgt.n	20000bfe <drawChar+0xae>
20000bdc:	79fa      	ldrb	r2, [r7, #7]
20000bde:	4613      	mov	r3, r2
20000be0:	ea4f 0383 	mov.w	r3, r3, lsl #2
20000be4:	4413      	add	r3, r2
20000be6:	461a      	mov	r2, r3
20000be8:	f997 3016 	ldrsb.w	r3, [r7, #22]
20000bec:	441a      	add	r2, r3
20000bee:	f24a 6320 	movw	r3, #42528	; 0xa620
20000bf2:	f2c2 0300 	movt	r3, #8192	; 0x2000
20000bf6:	4413      	add	r3, r2
20000bf8:	781b      	ldrb	r3, [r3, #0]
20000bfa:	75fb      	strb	r3, [r7, #23]
20000bfc:	e002      	b.n	20000c04 <drawChar+0xb4>
            else      line = 0x0;
20000bfe:	f04f 0300 	mov.w	r3, #0
20000c02:	75fb      	strb	r3, [r7, #23]
            for( j=0; j<8; j++, line >>= 1) {
20000c04:	f04f 0300 	mov.w	r3, #0
20000c08:	757b      	strb	r3, [r7, #21]
20000c0a:	e08e      	b.n	20000d2a <drawChar+0x1da>
                if(line & 0x1) {
20000c0c:	7dfb      	ldrb	r3, [r7, #23]
20000c0e:	f003 0301 	and.w	r3, r3, #1
20000c12:	b2db      	uxtb	r3, r3
20000c14:	2b00      	cmp	r3, #0
20000c16:	d03e      	beq.n	20000c96 <drawChar+0x146>
                    if(size == 1) writePixelCoordinates(print, x+i, y+j, color);
20000c18:	f897 3028 	ldrb.w	r3, [r7, #40]	; 0x28
20000c1c:	2b01      	cmp	r3, #1
20000c1e:	d113      	bne.n	20000c48 <drawChar+0xf8>
20000c20:	f997 3016 	ldrsb.w	r3, [r7, #22]
20000c24:	b29a      	uxth	r2, r3
20000c26:	897b      	ldrh	r3, [r7, #10]
20000c28:	4413      	add	r3, r2
20000c2a:	b29b      	uxth	r3, r3
20000c2c:	461a      	mov	r2, r3
20000c2e:	f997 3015 	ldrsb.w	r3, [r7, #21]
20000c32:	b299      	uxth	r1, r3
20000c34:	893b      	ldrh	r3, [r7, #8]
20000c36:	440b      	add	r3, r1
20000c38:	b29b      	uxth	r3, r3
20000c3a:	b211      	sxth	r1, r2
20000c3c:	b21a      	sxth	r2, r3
20000c3e:	8c3b      	ldrh	r3, [r7, #32]
20000c40:	68f8      	ldr	r0, [r7, #12]
20000c42:	f000 fb57 	bl	200012f4 <writePixelCoordinates>
                    else          writeFillRect(print, x+(i*size), y+(j*size), size, size, color);
20000c46:	e068      	b.n	20000d1a <drawChar+0x1ca>
20000c48:	f997 3016 	ldrsb.w	r3, [r7, #22]
20000c4c:	b29b      	uxth	r3, r3
20000c4e:	f897 2028 	ldrb.w	r2, [r7, #40]	; 0x28
20000c52:	fb02 f303 	mul.w	r3, r2, r3
20000c56:	b29a      	uxth	r2, r3
20000c58:	897b      	ldrh	r3, [r7, #10]
20000c5a:	4413      	add	r3, r2
20000c5c:	b29b      	uxth	r3, r3
20000c5e:	4619      	mov	r1, r3
20000c60:	f997 3015 	ldrsb.w	r3, [r7, #21]
20000c64:	b29b      	uxth	r3, r3
20000c66:	f897 2028 	ldrb.w	r2, [r7, #40]	; 0x28
20000c6a:	fb02 f303 	mul.w	r3, r2, r3
20000c6e:	b29a      	uxth	r2, r3
20000c70:	893b      	ldrh	r3, [r7, #8]
20000c72:	4413      	add	r3, r2
20000c74:	b29b      	uxth	r3, r3
20000c76:	461a      	mov	r2, r3
20000c78:	f897 3028 	ldrb.w	r3, [r7, #40]	; 0x28
20000c7c:	f897 0028 	ldrb.w	r0, [r7, #40]	; 0x28
20000c80:	b209      	sxth	r1, r1
20000c82:	b212      	sxth	r2, r2
20000c84:	b21b      	sxth	r3, r3
20000c86:	b200      	sxth	r0, r0
20000c88:	9000      	str	r0, [sp, #0]
20000c8a:	8c38      	ldrh	r0, [r7, #32]
20000c8c:	9001      	str	r0, [sp, #4]
20000c8e:	68f8      	ldr	r0, [r7, #12]
20000c90:	f000 fb8c 	bl	200013ac <writeFillRect>
20000c94:	e041      	b.n	20000d1a <drawChar+0x1ca>
                } else if(bg != color) {
20000c96:	8cba      	ldrh	r2, [r7, #36]	; 0x24
20000c98:	8c3b      	ldrh	r3, [r7, #32]
20000c9a:	429a      	cmp	r2, r3
20000c9c:	d03d      	beq.n	20000d1a <drawChar+0x1ca>
                    if(size == 1) writePixelCoordinates(print, x+i, y+j, bg);
20000c9e:	f897 3028 	ldrb.w	r3, [r7, #40]	; 0x28
20000ca2:	2b01      	cmp	r3, #1
20000ca4:	d113      	bne.n	20000cce <drawChar+0x17e>
20000ca6:	f997 3016 	ldrsb.w	r3, [r7, #22]
20000caa:	b29a      	uxth	r2, r3
20000cac:	897b      	ldrh	r3, [r7, #10]
20000cae:	4413      	add	r3, r2
20000cb0:	b29b      	uxth	r3, r3
20000cb2:	461a      	mov	r2, r3
20000cb4:	f997 3015 	ldrsb.w	r3, [r7, #21]
20000cb8:	b299      	uxth	r1, r3
20000cba:	893b      	ldrh	r3, [r7, #8]
20000cbc:	440b      	add	r3, r1
20000cbe:	b29b      	uxth	r3, r3
20000cc0:	b211      	sxth	r1, r2
20000cc2:	b21a      	sxth	r2, r3
20000cc4:	8cbb      	ldrh	r3, [r7, #36]	; 0x24
20000cc6:	68f8      	ldr	r0, [r7, #12]
20000cc8:	f000 fb14 	bl	200012f4 <writePixelCoordinates>
20000ccc:	e025      	b.n	20000d1a <drawChar+0x1ca>
                    else          writeFillRect(print, x+i*size, y+j*size, size, size, bg);
20000cce:	f997 3016 	ldrsb.w	r3, [r7, #22]
20000cd2:	b29b      	uxth	r3, r3
20000cd4:	f897 2028 	ldrb.w	r2, [r7, #40]	; 0x28
20000cd8:	fb02 f303 	mul.w	r3, r2, r3
20000cdc:	b29a      	uxth	r2, r3
20000cde:	897b      	ldrh	r3, [r7, #10]
20000ce0:	4413      	add	r3, r2
20000ce2:	b29b      	uxth	r3, r3
20000ce4:	4619      	mov	r1, r3
20000ce6:	f997 3015 	ldrsb.w	r3, [r7, #21]
20000cea:	b29b      	uxth	r3, r3
20000cec:	f897 2028 	ldrb.w	r2, [r7, #40]	; 0x28
20000cf0:	fb02 f303 	mul.w	r3, r2, r3
20000cf4:	b29a      	uxth	r2, r3
20000cf6:	893b      	ldrh	r3, [r7, #8]
20000cf8:	4413      	add	r3, r2
20000cfa:	b29b      	uxth	r3, r3
20000cfc:	461a      	mov	r2, r3
20000cfe:	f897 3028 	ldrb.w	r3, [r7, #40]	; 0x28
20000d02:	f897 0028 	ldrb.w	r0, [r7, #40]	; 0x28
20000d06:	b209      	sxth	r1, r1
20000d08:	b212      	sxth	r2, r2
20000d0a:	b21b      	sxth	r3, r3
20000d0c:	b200      	sxth	r0, r0
20000d0e:	9000      	str	r0, [sp, #0]
20000d10:	8cb8      	ldrh	r0, [r7, #36]	; 0x24
20000d12:	9001      	str	r0, [sp, #4]
20000d14:	68f8      	ldr	r0, [r7, #12]
20000d16:	f000 fb49 	bl	200013ac <writeFillRect>

        for(i=0; i<6; i++ ) {
            uint8_t line;
            if(i < 5) line = pgm_read_byte(font+(c*5)+i);
            else      line = 0x0;
            for( j=0; j<8; j++, line >>= 1) {
20000d1a:	7d7b      	ldrb	r3, [r7, #21]
20000d1c:	f103 0301 	add.w	r3, r3, #1
20000d20:	757b      	strb	r3, [r7, #21]
20000d22:	7dfb      	ldrb	r3, [r7, #23]
20000d24:	ea4f 0353 	mov.w	r3, r3, lsr #1
20000d28:	75fb      	strb	r3, [r7, #23]
20000d2a:	f997 3015 	ldrsb.w	r3, [r7, #21]
20000d2e:	2b07      	cmp	r3, #7
20000d30:	f77f af6c 	ble.w	20000c0c <drawChar+0xbc>
            return;

        if(!print->cp437 && (c >= 176)) c++; // Handle 'classic' charset behavior


        for(i=0; i<6; i++ ) {
20000d34:	7dbb      	ldrb	r3, [r7, #22]
20000d36:	f103 0301 	add.w	r3, r3, #1
20000d3a:	75bb      	strb	r3, [r7, #22]
20000d3c:	f997 3016 	ldrsb.w	r3, [r7, #22]
20000d40:	2b05      	cmp	r3, #5
20000d42:	f77f af47 	ble.w	20000bd4 <drawChar+0x84>
20000d46:	e006      	b.n	20000d56 <drawChar+0x206>

        if((x >= print->widthe)            || // Clip right
                (y >= print->heighte)           || // Clip bottom
                ((x + 6 * size - 1) < 0) || // Clip left
                ((y + 8 * size - 1) < 0))   // Clip top
            return;
20000d48:	bf00      	nop
20000d4a:	e004      	b.n	20000d56 <drawChar+0x206>
20000d4c:	bf00      	nop
20000d4e:	e002      	b.n	20000d56 <drawChar+0x206>
20000d50:	bf00      	nop
20000d52:	e000      	b.n	20000d56 <drawChar+0x206>
20000d54:	bf00      	nop
//                bits <<= 1;
//            }
//        }

    //} // End classic vs custom font
}
20000d56:	f107 0718 	add.w	r7, r7, #24
20000d5a:	46bd      	mov	sp, r7
20000d5c:	bd80      	pop	{r7, pc}
20000d5e:	bf00      	nop

20000d60 <height>:
// Return the size of the display (per current rotation)
int16_t width(struct Print* print)  {
    return print->widthe;
}

int16_t height(struct Print* print)  {
20000d60:	b480      	push	{r7}
20000d62:	b083      	sub	sp, #12
20000d64:	af00      	add	r7, sp, #0
20000d66:	6078      	str	r0, [r7, #4]
    return print->heighte;
20000d68:	687b      	ldr	r3, [r7, #4]
20000d6a:	88db      	ldrh	r3, [r3, #6]
20000d6c:	b21b      	sxth	r3, r3
}
20000d6e:	4618      	mov	r0, r3
20000d70:	f107 070c 	add.w	r7, r7, #12
20000d74:	46bd      	mov	sp, r7
20000d76:	bc80      	pop	{r7}
20000d78:	4770      	bx	lr
20000d7a:	bf00      	nop

20000d7c <delay>:

#include <time.h>

static uint8_t g_rx_frame = 0;

void delay(int milliseconds) {
20000d7c:	b580      	push	{r7, lr}
20000d7e:	b086      	sub	sp, #24
20000d80:	af00      	add	r7, sp, #0
20000d82:	6078      	str	r0, [r7, #4]
	long pause;
	clock_t now,then;

	pause = milliseconds*(CLOCKS_PER_SEC/1000);
20000d84:	f04f 0300 	mov.w	r3, #0
20000d88:	60fb      	str	r3, [r7, #12]
	now = then = clock();
20000d8a:	f003 fa75 	bl	20004278 <clock>
20000d8e:	4603      	mov	r3, r0
20000d90:	617b      	str	r3, [r7, #20]
20000d92:	697b      	ldr	r3, [r7, #20]
20000d94:	613b      	str	r3, [r7, #16]
	while( (now-then) < pause )
20000d96:	e003      	b.n	20000da0 <delay+0x24>
		now = clock();
20000d98:	f003 fa6e 	bl	20004278 <clock>
20000d9c:	4603      	mov	r3, r0
20000d9e:	613b      	str	r3, [r7, #16]
	long pause;
	clock_t now,then;

	pause = milliseconds*(CLOCKS_PER_SEC/1000);
	now = then = clock();
	while( (now-then) < pause )
20000da0:	693a      	ldr	r2, [r7, #16]
20000da2:	697b      	ldr	r3, [r7, #20]
20000da4:	ebc3 0202 	rsb	r2, r3, r2
20000da8:	68fb      	ldr	r3, [r7, #12]
20000daa:	429a      	cmp	r2, r3
20000dac:	d3f4      	bcc.n	20000d98 <delay+0x1c>
		now = clock();
}
20000dae:	f107 0718 	add.w	r7, r7, #24
20000db2:	46bd      	mov	sp, r7
20000db4:	bd80      	pop	{r7, pc}
20000db6:	bf00      	nop

20000db8 <startWrite>:
// Pass 8-bit (each) R,G,B, get back 16-bit packed color
uint16_t color565(uint8_t r, uint8_t g, uint8_t b) {
    return ((r & 0xF8) << 8) | ((g & 0xFC) << 3) | ((b & 0xF8) >> 3);
}

void startWrite(mss_spi_slave_t slave){
20000db8:	b580      	push	{r7, lr}
20000dba:	b082      	sub	sp, #8
20000dbc:	af00      	add	r7, sp, #0
20000dbe:	4603      	mov	r3, r0
20000dc0:	71fb      	strb	r3, [r7, #7]
	MSS_SPI_set_slave_select( &g_mss_spi1, slave );
20000dc2:	79fb      	ldrb	r3, [r7, #7]
20000dc4:	f24b 30d0 	movw	r0, #46032	; 0xb3d0
20000dc8:	f2c2 0000 	movt	r0, #8192	; 0x2000
20000dcc:	4619      	mov	r1, r3
20000dce:	f001 fe61 	bl	20002a94 <MSS_SPI_set_slave_select>
}
20000dd2:	f107 0708 	add.w	r7, r7, #8
20000dd6:	46bd      	mov	sp, r7
20000dd8:	bd80      	pop	{r7, pc}
20000dda:	bf00      	nop

20000ddc <spiWrite>:

void spiWrite(uint8_t msg) {
20000ddc:	b580      	push	{r7, lr}
20000dde:	b082      	sub	sp, #8
20000de0:	af00      	add	r7, sp, #0
20000de2:	4603      	mov	r3, r0
20000de4:	71fb      	strb	r3, [r7, #7]
	startWrite(MSS_SPI_SLAVE_0);
20000de6:	f04f 0000 	mov.w	r0, #0
20000dea:	f7ff ffe5 	bl	20000db8 <startWrite>
	MSS_SPI_transfer_frame(&g_mss_spi1, msg);
20000dee:	79fb      	ldrb	r3, [r7, #7]
20000df0:	f24b 30d0 	movw	r0, #46032	; 0xb3d0
20000df4:	f2c2 0000 	movt	r0, #8192	; 0x2000
20000df8:	4619      	mov	r1, r3
20000dfa:	f001 ff17 	bl	20002c2c <MSS_SPI_transfer_frame>
	endWrite(MSS_SPI_SLAVE_0);
20000dfe:	f04f 0000 	mov.w	r0, #0
20000e02:	f000 f805 	bl	20000e10 <endWrite>
}
20000e06:	f107 0708 	add.w	r7, r7, #8
20000e0a:	46bd      	mov	sp, r7
20000e0c:	bd80      	pop	{r7, pc}
20000e0e:	bf00      	nop

20000e10 <endWrite>:

void endWrite(mss_spi_slave_t slave) {
20000e10:	b580      	push	{r7, lr}
20000e12:	b082      	sub	sp, #8
20000e14:	af00      	add	r7, sp, #0
20000e16:	4603      	mov	r3, r0
20000e18:	71fb      	strb	r3, [r7, #7]
	MSS_SPI_clear_slave_select( &g_mss_spi1, slave );
20000e1a:	79fb      	ldrb	r3, [r7, #7]
20000e1c:	f24b 30d0 	movw	r0, #46032	; 0xb3d0
20000e20:	f2c2 0000 	movt	r0, #8192	; 0x2000
20000e24:	4619      	mov	r1, r3
20000e26:	f001 feb9 	bl	20002b9c <MSS_SPI_clear_slave_select>
}
20000e2a:	f107 0708 	add.w	r7, r7, #8
20000e2e:	46bd      	mov	sp, r7
20000e30:	bd80      	pop	{r7, pc}
20000e32:	bf00      	nop

20000e34 <writeCommand>:
		spiWrite(((uint8_t*)((uint8_t*)colors))[i+1]);
		spiWrite(((uint8_t*)((uint8_t*)colors))[i]);
	}
}

void writeCommand(uint8_t cmd) {
20000e34:	b580      	push	{r7, lr}
20000e36:	b082      	sub	sp, #8
20000e38:	af00      	add	r7, sp, #0
20000e3a:	4603      	mov	r3, r0
20000e3c:	71fb      	strb	r3, [r7, #7]
	//*CD_REG = 0;
	startWrite(MSS_SPI_SLAVE_1);
20000e3e:	f04f 0001 	mov.w	r0, #1
20000e42:	f7ff ffb9 	bl	20000db8 <startWrite>
	spiWrite(cmd);
20000e46:	79fb      	ldrb	r3, [r7, #7]
20000e48:	4618      	mov	r0, r3
20000e4a:	f7ff ffc7 	bl	20000ddc <spiWrite>
	endWrite(MSS_SPI_SLAVE_1);
20000e4e:	f04f 0001 	mov.w	r0, #1
20000e52:	f7ff ffdd 	bl	20000e10 <endWrite>
	//*CD_REG = 1;
}
20000e56:	f107 0708 	add.w	r7, r7, #8
20000e5a:	46bd      	mov	sp, r7
20000e5c:	bd80      	pop	{r7, pc}
20000e5e:	bf00      	nop

20000e60 <begin>:

void begin(struct Print * print) {
20000e60:	b580      	push	{r7, lr}
20000e62:	b082      	sub	sp, #8
20000e64:	af00      	add	r7, sp, #0
20000e66:	6078      	str	r0, [r7, #4]
    writeCommand(0xEF);
20000e68:	f04f 00ef 	mov.w	r0, #239	; 0xef
20000e6c:	f7ff ffe2 	bl	20000e34 <writeCommand>
    spiWrite(0x03);
20000e70:	f04f 0003 	mov.w	r0, #3
20000e74:	f7ff ffb2 	bl	20000ddc <spiWrite>
    spiWrite(0x80);
20000e78:	f04f 0080 	mov.w	r0, #128	; 0x80
20000e7c:	f7ff ffae 	bl	20000ddc <spiWrite>
    spiWrite(0x02);
20000e80:	f04f 0002 	mov.w	r0, #2
20000e84:	f7ff ffaa 	bl	20000ddc <spiWrite>

    writeCommand(0xCF);
20000e88:	f04f 00cf 	mov.w	r0, #207	; 0xcf
20000e8c:	f7ff ffd2 	bl	20000e34 <writeCommand>
    spiWrite(0x00);
20000e90:	f04f 0000 	mov.w	r0, #0
20000e94:	f7ff ffa2 	bl	20000ddc <spiWrite>
    spiWrite(0XC1);
20000e98:	f04f 00c1 	mov.w	r0, #193	; 0xc1
20000e9c:	f7ff ff9e 	bl	20000ddc <spiWrite>
    spiWrite(0X30);
20000ea0:	f04f 0030 	mov.w	r0, #48	; 0x30
20000ea4:	f7ff ff9a 	bl	20000ddc <spiWrite>

    writeCommand(0xED);
20000ea8:	f04f 00ed 	mov.w	r0, #237	; 0xed
20000eac:	f7ff ffc2 	bl	20000e34 <writeCommand>
    spiWrite(0x64);
20000eb0:	f04f 0064 	mov.w	r0, #100	; 0x64
20000eb4:	f7ff ff92 	bl	20000ddc <spiWrite>
    spiWrite(0x03);
20000eb8:	f04f 0003 	mov.w	r0, #3
20000ebc:	f7ff ff8e 	bl	20000ddc <spiWrite>
    spiWrite(0X12);
20000ec0:	f04f 0012 	mov.w	r0, #18
20000ec4:	f7ff ff8a 	bl	20000ddc <spiWrite>
    spiWrite(0X81);
20000ec8:	f04f 0081 	mov.w	r0, #129	; 0x81
20000ecc:	f7ff ff86 	bl	20000ddc <spiWrite>

    writeCommand(0xE8);
20000ed0:	f04f 00e8 	mov.w	r0, #232	; 0xe8
20000ed4:	f7ff ffae 	bl	20000e34 <writeCommand>
    spiWrite(0x85);
20000ed8:	f04f 0085 	mov.w	r0, #133	; 0x85
20000edc:	f7ff ff7e 	bl	20000ddc <spiWrite>
    spiWrite(0x00);
20000ee0:	f04f 0000 	mov.w	r0, #0
20000ee4:	f7ff ff7a 	bl	20000ddc <spiWrite>
    spiWrite(0x78);
20000ee8:	f04f 0078 	mov.w	r0, #120	; 0x78
20000eec:	f7ff ff76 	bl	20000ddc <spiWrite>

    writeCommand(0xCB);
20000ef0:	f04f 00cb 	mov.w	r0, #203	; 0xcb
20000ef4:	f7ff ff9e 	bl	20000e34 <writeCommand>
    spiWrite(0x39);
20000ef8:	f04f 0039 	mov.w	r0, #57	; 0x39
20000efc:	f7ff ff6e 	bl	20000ddc <spiWrite>
    spiWrite(0x2C);
20000f00:	f04f 002c 	mov.w	r0, #44	; 0x2c
20000f04:	f7ff ff6a 	bl	20000ddc <spiWrite>
    spiWrite(0x00);
20000f08:	f04f 0000 	mov.w	r0, #0
20000f0c:	f7ff ff66 	bl	20000ddc <spiWrite>
    spiWrite(0x34);
20000f10:	f04f 0034 	mov.w	r0, #52	; 0x34
20000f14:	f7ff ff62 	bl	20000ddc <spiWrite>
    spiWrite(0x02);
20000f18:	f04f 0002 	mov.w	r0, #2
20000f1c:	f7ff ff5e 	bl	20000ddc <spiWrite>

    writeCommand(0xF7);
20000f20:	f04f 00f7 	mov.w	r0, #247	; 0xf7
20000f24:	f7ff ff86 	bl	20000e34 <writeCommand>
    spiWrite(0x20);
20000f28:	f04f 0020 	mov.w	r0, #32
20000f2c:	f7ff ff56 	bl	20000ddc <spiWrite>

    writeCommand(0xEA);
20000f30:	f04f 00ea 	mov.w	r0, #234	; 0xea
20000f34:	f7ff ff7e 	bl	20000e34 <writeCommand>
    spiWrite(0x00);
20000f38:	f04f 0000 	mov.w	r0, #0
20000f3c:	f7ff ff4e 	bl	20000ddc <spiWrite>
    spiWrite(0x00);
20000f40:	f04f 0000 	mov.w	r0, #0
20000f44:	f7ff ff4a 	bl	20000ddc <spiWrite>

    writeCommand(ILI9341_PWCTR1);    //Power control
20000f48:	f04f 00c0 	mov.w	r0, #192	; 0xc0
20000f4c:	f7ff ff72 	bl	20000e34 <writeCommand>
    spiWrite(0x23);   //VRH[5:0]
20000f50:	f04f 0023 	mov.w	r0, #35	; 0x23
20000f54:	f7ff ff42 	bl	20000ddc <spiWrite>

    writeCommand(ILI9341_PWCTR2);    //Power control
20000f58:	f04f 00c1 	mov.w	r0, #193	; 0xc1
20000f5c:	f7ff ff6a 	bl	20000e34 <writeCommand>
    spiWrite(0x10);   //SAP[2:0];BT[3:0]
20000f60:	f04f 0010 	mov.w	r0, #16
20000f64:	f7ff ff3a 	bl	20000ddc <spiWrite>

    writeCommand(ILI9341_VMCTR1);    //VCM control
20000f68:	f04f 00c5 	mov.w	r0, #197	; 0xc5
20000f6c:	f7ff ff62 	bl	20000e34 <writeCommand>
    spiWrite(0x3e);
20000f70:	f04f 003e 	mov.w	r0, #62	; 0x3e
20000f74:	f7ff ff32 	bl	20000ddc <spiWrite>
    spiWrite(0x28);
20000f78:	f04f 0028 	mov.w	r0, #40	; 0x28
20000f7c:	f7ff ff2e 	bl	20000ddc <spiWrite>

    writeCommand(ILI9341_VMCTR2);    //VCM control2
20000f80:	f04f 00c7 	mov.w	r0, #199	; 0xc7
20000f84:	f7ff ff56 	bl	20000e34 <writeCommand>
    spiWrite(0x86);  //--
20000f88:	f04f 0086 	mov.w	r0, #134	; 0x86
20000f8c:	f7ff ff26 	bl	20000ddc <spiWrite>

    writeCommand(ILI9341_MADCTL);    // Memory Access Control
20000f90:	f04f 0036 	mov.w	r0, #54	; 0x36
20000f94:	f7ff ff4e 	bl	20000e34 <writeCommand>
    spiWrite(0x48);
20000f98:	f04f 0048 	mov.w	r0, #72	; 0x48
20000f9c:	f7ff ff1e 	bl	20000ddc <spiWrite>

    writeCommand(ILI9341_VSCRSADD); // Vertical scroll
20000fa0:	f04f 0037 	mov.w	r0, #55	; 0x37
20000fa4:	f7ff ff46 	bl	20000e34 <writeCommand>
	spiWrite(0x00);
20000fa8:	f04f 0000 	mov.w	r0, #0
20000fac:	f7ff ff16 	bl	20000ddc <spiWrite>
	spiWrite(0x00);
20000fb0:	f04f 0000 	mov.w	r0, #0
20000fb4:	f7ff ff12 	bl	20000ddc <spiWrite>

    writeCommand(ILI9341_PIXFMT);
20000fb8:	f04f 003a 	mov.w	r0, #58	; 0x3a
20000fbc:	f7ff ff3a 	bl	20000e34 <writeCommand>
    spiWrite(0x55);
20000fc0:	f04f 0055 	mov.w	r0, #85	; 0x55
20000fc4:	f7ff ff0a 	bl	20000ddc <spiWrite>

    writeCommand(ILI9341_FRMCTR1);
20000fc8:	f04f 00b1 	mov.w	r0, #177	; 0xb1
20000fcc:	f7ff ff32 	bl	20000e34 <writeCommand>
    spiWrite(0x00);
20000fd0:	f04f 0000 	mov.w	r0, #0
20000fd4:	f7ff ff02 	bl	20000ddc <spiWrite>
    spiWrite(0x18);
20000fd8:	f04f 0018 	mov.w	r0, #24
20000fdc:	f7ff fefe 	bl	20000ddc <spiWrite>

    writeCommand(ILI9341_DFUNCTR);    // Display Function Control
20000fe0:	f04f 00b6 	mov.w	r0, #182	; 0xb6
20000fe4:	f7ff ff26 	bl	20000e34 <writeCommand>
    spiWrite(0x08);
20000fe8:	f04f 0008 	mov.w	r0, #8
20000fec:	f7ff fef6 	bl	20000ddc <spiWrite>
    spiWrite(0x82);
20000ff0:	f04f 0082 	mov.w	r0, #130	; 0x82
20000ff4:	f7ff fef2 	bl	20000ddc <spiWrite>
    spiWrite(0x27);
20000ff8:	f04f 0027 	mov.w	r0, #39	; 0x27
20000ffc:	f7ff feee 	bl	20000ddc <spiWrite>

    writeCommand(0xF2);    // 3Gamma Function Disable
20001000:	f04f 00f2 	mov.w	r0, #242	; 0xf2
20001004:	f7ff ff16 	bl	20000e34 <writeCommand>
    spiWrite(0x00);
20001008:	f04f 0000 	mov.w	r0, #0
2000100c:	f7ff fee6 	bl	20000ddc <spiWrite>

    writeCommand(ILI9341_GAMMASET);    //Gamma curve selected
20001010:	f04f 0026 	mov.w	r0, #38	; 0x26
20001014:	f7ff ff0e 	bl	20000e34 <writeCommand>
    spiWrite(0x01);
20001018:	f04f 0001 	mov.w	r0, #1
2000101c:	f7ff fede 	bl	20000ddc <spiWrite>

    writeCommand(ILI9341_GMCTRP1);    //Set Gamma
20001020:	f04f 00e0 	mov.w	r0, #224	; 0xe0
20001024:	f7ff ff06 	bl	20000e34 <writeCommand>
    spiWrite(0x0F);
20001028:	f04f 000f 	mov.w	r0, #15
2000102c:	f7ff fed6 	bl	20000ddc <spiWrite>
    spiWrite(0x31);
20001030:	f04f 0031 	mov.w	r0, #49	; 0x31
20001034:	f7ff fed2 	bl	20000ddc <spiWrite>
    spiWrite(0x2B);
20001038:	f04f 002b 	mov.w	r0, #43	; 0x2b
2000103c:	f7ff fece 	bl	20000ddc <spiWrite>
    spiWrite(0x0C);
20001040:	f04f 000c 	mov.w	r0, #12
20001044:	f7ff feca 	bl	20000ddc <spiWrite>
    spiWrite(0x0E);
20001048:	f04f 000e 	mov.w	r0, #14
2000104c:	f7ff fec6 	bl	20000ddc <spiWrite>
    spiWrite(0x08);
20001050:	f04f 0008 	mov.w	r0, #8
20001054:	f7ff fec2 	bl	20000ddc <spiWrite>
    spiWrite(0x4E);
20001058:	f04f 004e 	mov.w	r0, #78	; 0x4e
2000105c:	f7ff febe 	bl	20000ddc <spiWrite>
    spiWrite(0xF1);
20001060:	f04f 00f1 	mov.w	r0, #241	; 0xf1
20001064:	f7ff feba 	bl	20000ddc <spiWrite>
    spiWrite(0x37);
20001068:	f04f 0037 	mov.w	r0, #55	; 0x37
2000106c:	f7ff feb6 	bl	20000ddc <spiWrite>
    spiWrite(0x07);
20001070:	f04f 0007 	mov.w	r0, #7
20001074:	f7ff feb2 	bl	20000ddc <spiWrite>
    spiWrite(0x10);
20001078:	f04f 0010 	mov.w	r0, #16
2000107c:	f7ff feae 	bl	20000ddc <spiWrite>
    spiWrite(0x03);
20001080:	f04f 0003 	mov.w	r0, #3
20001084:	f7ff feaa 	bl	20000ddc <spiWrite>
    spiWrite(0x0E);
20001088:	f04f 000e 	mov.w	r0, #14
2000108c:	f7ff fea6 	bl	20000ddc <spiWrite>
    spiWrite(0x09);
20001090:	f04f 0009 	mov.w	r0, #9
20001094:	f7ff fea2 	bl	20000ddc <spiWrite>
    spiWrite(0x00);
20001098:	f04f 0000 	mov.w	r0, #0
2000109c:	f7ff fe9e 	bl	20000ddc <spiWrite>

    writeCommand(ILI9341_GMCTRN1);    //Set Gamma
200010a0:	f04f 00e1 	mov.w	r0, #225	; 0xe1
200010a4:	f7ff fec6 	bl	20000e34 <writeCommand>
    spiWrite(0x00);
200010a8:	f04f 0000 	mov.w	r0, #0
200010ac:	f7ff fe96 	bl	20000ddc <spiWrite>
    spiWrite(0x0E);
200010b0:	f04f 000e 	mov.w	r0, #14
200010b4:	f7ff fe92 	bl	20000ddc <spiWrite>
    spiWrite(0x14);
200010b8:	f04f 0014 	mov.w	r0, #20
200010bc:	f7ff fe8e 	bl	20000ddc <spiWrite>
    spiWrite(0x03);
200010c0:	f04f 0003 	mov.w	r0, #3
200010c4:	f7ff fe8a 	bl	20000ddc <spiWrite>
    spiWrite(0x11);
200010c8:	f04f 0011 	mov.w	r0, #17
200010cc:	f7ff fe86 	bl	20000ddc <spiWrite>
    spiWrite(0x07);
200010d0:	f04f 0007 	mov.w	r0, #7
200010d4:	f7ff fe82 	bl	20000ddc <spiWrite>
    spiWrite(0x31);
200010d8:	f04f 0031 	mov.w	r0, #49	; 0x31
200010dc:	f7ff fe7e 	bl	20000ddc <spiWrite>
    spiWrite(0xC1);
200010e0:	f04f 00c1 	mov.w	r0, #193	; 0xc1
200010e4:	f7ff fe7a 	bl	20000ddc <spiWrite>
    spiWrite(0x48);
200010e8:	f04f 0048 	mov.w	r0, #72	; 0x48
200010ec:	f7ff fe76 	bl	20000ddc <spiWrite>
    spiWrite(0x08);
200010f0:	f04f 0008 	mov.w	r0, #8
200010f4:	f7ff fe72 	bl	20000ddc <spiWrite>
    spiWrite(0x0F);
200010f8:	f04f 000f 	mov.w	r0, #15
200010fc:	f7ff fe6e 	bl	20000ddc <spiWrite>
    spiWrite(0x0C);
20001100:	f04f 000c 	mov.w	r0, #12
20001104:	f7ff fe6a 	bl	20000ddc <spiWrite>
    spiWrite(0x31);
20001108:	f04f 0031 	mov.w	r0, #49	; 0x31
2000110c:	f7ff fe66 	bl	20000ddc <spiWrite>
    spiWrite(0x36);
20001110:	f04f 0036 	mov.w	r0, #54	; 0x36
20001114:	f7ff fe62 	bl	20000ddc <spiWrite>
    spiWrite(0x0F);
20001118:	f04f 000f 	mov.w	r0, #15
2000111c:	f7ff fe5e 	bl	20000ddc <spiWrite>

    writeCommand(ILI9341_SLPOUT);    //Exit Sleep
20001120:	f04f 0011 	mov.w	r0, #17
20001124:	f7ff fe86 	bl	20000e34 <writeCommand>
    delay(120);
20001128:	f04f 0078 	mov.w	r0, #120	; 0x78
2000112c:	f7ff fe26 	bl	20000d7c <delay>
    writeCommand(ILI9341_DISPON);    //Display on
20001130:	f04f 0029 	mov.w	r0, #41	; 0x29
20001134:	f7ff fe7e 	bl	20000e34 <writeCommand>
    delay(120);
20001138:	f04f 0078 	mov.w	r0, #120	; 0x78
2000113c:	f7ff fe1e 	bl	20000d7c <delay>

    print->widthe = ILI9341_TFTWIDTH;
20001140:	687b      	ldr	r3, [r7, #4]
20001142:	f04f 02f0 	mov.w	r2, #240	; 0xf0
20001146:	809a      	strh	r2, [r3, #4]
    print->heighte = ILI9341_TFTHEIGHT;
20001148:	687b      	ldr	r3, [r7, #4]
2000114a:	f44f 72a0 	mov.w	r2, #320	; 0x140
2000114e:	80da      	strh	r2, [r3, #6]
}
20001150:	f107 0708 	add.w	r7, r7, #8
20001154:	46bd      	mov	sp, r7
20001156:	bd80      	pop	{r7, pc}

20001158 <setRotation>:

void setRotation(struct Print * print, uint8_t m) {
20001158:	b580      	push	{r7, lr}
2000115a:	b082      	sub	sp, #8
2000115c:	af00      	add	r7, sp, #0
2000115e:	6078      	str	r0, [r7, #4]
20001160:	460b      	mov	r3, r1
20001162:	70fb      	strb	r3, [r7, #3]
    print->rotation = m % 4; // can't be higher than 3
20001164:	78fb      	ldrb	r3, [r7, #3]
20001166:	f003 0303 	and.w	r3, r3, #3
2000116a:	687a      	ldr	r2, [r7, #4]
2000116c:	7453      	strb	r3, [r2, #17]
    switch (print->rotation) {
2000116e:	687b      	ldr	r3, [r7, #4]
20001170:	7c5b      	ldrb	r3, [r3, #17]
20001172:	2b03      	cmp	r3, #3
20001174:	d839      	bhi.n	200011ea <setRotation+0x92>
20001176:	a201      	add	r2, pc, #4	; (adr r2, 2000117c <setRotation+0x24>)
20001178:	f852 f023 	ldr.w	pc, [r2, r3, lsl #2]
2000117c:	2000118d 	.word	0x2000118d
20001180:	200011a5 	.word	0x200011a5
20001184:	200011bd 	.word	0x200011bd
20001188:	200011d5 	.word	0x200011d5
        case 0:
            m = (MADCTL_MX | MADCTL_BGR);
2000118c:	f04f 0348 	mov.w	r3, #72	; 0x48
20001190:	70fb      	strb	r3, [r7, #3]
            print->widthe  = ILI9341_TFTWIDTH;
20001192:	687b      	ldr	r3, [r7, #4]
20001194:	f04f 02f0 	mov.w	r2, #240	; 0xf0
20001198:	809a      	strh	r2, [r3, #4]
            print->heighte = ILI9341_TFTHEIGHT;
2000119a:	687b      	ldr	r3, [r7, #4]
2000119c:	f44f 72a0 	mov.w	r2, #320	; 0x140
200011a0:	80da      	strh	r2, [r3, #6]
            break;
200011a2:	e022      	b.n	200011ea <setRotation+0x92>
        case 1:
            m = (MADCTL_MV | MADCTL_BGR);
200011a4:	f04f 0328 	mov.w	r3, #40	; 0x28
200011a8:	70fb      	strb	r3, [r7, #3]
            print->widthe  = ILI9341_TFTHEIGHT;
200011aa:	687b      	ldr	r3, [r7, #4]
200011ac:	f44f 72a0 	mov.w	r2, #320	; 0x140
200011b0:	809a      	strh	r2, [r3, #4]
            print->heighte = ILI9341_TFTWIDTH;
200011b2:	687b      	ldr	r3, [r7, #4]
200011b4:	f04f 02f0 	mov.w	r2, #240	; 0xf0
200011b8:	80da      	strh	r2, [r3, #6]
            break;
200011ba:	e016      	b.n	200011ea <setRotation+0x92>
        case 2:
            m = (MADCTL_MY | MADCTL_BGR);
200011bc:	f06f 0377 	mvn.w	r3, #119	; 0x77
200011c0:	70fb      	strb	r3, [r7, #3]
            print->widthe  = ILI9341_TFTWIDTH;
200011c2:	687b      	ldr	r3, [r7, #4]
200011c4:	f04f 02f0 	mov.w	r2, #240	; 0xf0
200011c8:	809a      	strh	r2, [r3, #4]
            print->heighte = ILI9341_TFTHEIGHT;
200011ca:	687b      	ldr	r3, [r7, #4]
200011cc:	f44f 72a0 	mov.w	r2, #320	; 0x140
200011d0:	80da      	strh	r2, [r3, #6]
            break;
200011d2:	e00a      	b.n	200011ea <setRotation+0x92>
        case 3:
            m = (MADCTL_MX | MADCTL_MY | MADCTL_MV | MADCTL_BGR);
200011d4:	f06f 0317 	mvn.w	r3, #23
200011d8:	70fb      	strb	r3, [r7, #3]
            print->widthe  = ILI9341_TFTHEIGHT;
200011da:	687b      	ldr	r3, [r7, #4]
200011dc:	f44f 72a0 	mov.w	r2, #320	; 0x140
200011e0:	809a      	strh	r2, [r3, #4]
            print->heighte = ILI9341_TFTWIDTH;
200011e2:	687b      	ldr	r3, [r7, #4]
200011e4:	f04f 02f0 	mov.w	r2, #240	; 0xf0
200011e8:	80da      	strh	r2, [r3, #6]
            break;
    }

    writeCommand(ILI9341_MADCTL);
200011ea:	f04f 0036 	mov.w	r0, #54	; 0x36
200011ee:	f7ff fe21 	bl	20000e34 <writeCommand>
    spiWrite(m);
200011f2:	78fb      	ldrb	r3, [r7, #3]
200011f4:	4618      	mov	r0, r3
200011f6:	f7ff fdf1 	bl	20000ddc <spiWrite>
}
200011fa:	f107 0708 	add.w	r7, r7, #8
200011fe:	46bd      	mov	sp, r7
20001200:	bd80      	pop	{r7, pc}
20001202:	bf00      	nop

20001204 <setAddrWindow>:
void scrollTo(uint16_t y) {
    writeCommand(ILI9341_VSCRSADD);
    spiWrite((y>>8) & 0x0011);
    spiWrite(y & 0x0011);
}
void setAddrWindow(uint16_t x, uint16_t y, uint16_t w, uint16_t h) {
20001204:	b580      	push	{r7, lr}
20001206:	b084      	sub	sp, #16
20001208:	af00      	add	r7, sp, #0
2000120a:	80f8      	strh	r0, [r7, #6]
2000120c:	80b9      	strh	r1, [r7, #4]
2000120e:	807a      	strh	r2, [r7, #2]
20001210:	803b      	strh	r3, [r7, #0]
    uint32_t xa = ((uint32_t)x << 16) | (x+w-1);
20001212:	88fb      	ldrh	r3, [r7, #6]
20001214:	ea4f 4203 	mov.w	r2, r3, lsl #16
20001218:	88f9      	ldrh	r1, [r7, #6]
2000121a:	887b      	ldrh	r3, [r7, #2]
2000121c:	440b      	add	r3, r1
2000121e:	f103 33ff 	add.w	r3, r3, #4294967295
20001222:	ea42 0303 	orr.w	r3, r2, r3
20001226:	60bb      	str	r3, [r7, #8]
    uint32_t ya = ((uint32_t)y << 16) | (y+h-1);
20001228:	88bb      	ldrh	r3, [r7, #4]
2000122a:	ea4f 4203 	mov.w	r2, r3, lsl #16
2000122e:	88b9      	ldrh	r1, [r7, #4]
20001230:	883b      	ldrh	r3, [r7, #0]
20001232:	440b      	add	r3, r1
20001234:	f103 33ff 	add.w	r3, r3, #4294967295
20001238:	ea42 0303 	orr.w	r3, r2, r3
2000123c:	60fb      	str	r3, [r7, #12]
    writeCommand(ILI9341_CASET); // Column addr set
2000123e:	f04f 002a 	mov.w	r0, #42	; 0x2a
20001242:	f7ff fdf7 	bl	20000e34 <writeCommand>
    //SPI_WRITE32(xa);
    spiWrite((xa) >> 24);
20001246:	68bb      	ldr	r3, [r7, #8]
20001248:	ea4f 6313 	mov.w	r3, r3, lsr #24
2000124c:	b2db      	uxtb	r3, r3
2000124e:	4618      	mov	r0, r3
20001250:	f7ff fdc4 	bl	20000ddc <spiWrite>
    spiWrite((xa) >> 16);
20001254:	68bb      	ldr	r3, [r7, #8]
20001256:	ea4f 4313 	mov.w	r3, r3, lsr #16
2000125a:	b2db      	uxtb	r3, r3
2000125c:	4618      	mov	r0, r3
2000125e:	f7ff fdbd 	bl	20000ddc <spiWrite>
    spiWrite((xa) >> 8);
20001262:	68bb      	ldr	r3, [r7, #8]
20001264:	ea4f 2313 	mov.w	r3, r3, lsr #8
20001268:	b2db      	uxtb	r3, r3
2000126a:	4618      	mov	r0, r3
2000126c:	f7ff fdb6 	bl	20000ddc <spiWrite>
    spiWrite(xa);
20001270:	68bb      	ldr	r3, [r7, #8]
20001272:	b2db      	uxtb	r3, r3
20001274:	4618      	mov	r0, r3
20001276:	f7ff fdb1 	bl	20000ddc <spiWrite>

    writeCommand(ILI9341_PASET); // Row addr set
2000127a:	f04f 002b 	mov.w	r0, #43	; 0x2b
2000127e:	f7ff fdd9 	bl	20000e34 <writeCommand>
    //SPI_WRITE32(ya);
    spiWrite((ya) >> 24);
20001282:	68fb      	ldr	r3, [r7, #12]
20001284:	ea4f 6313 	mov.w	r3, r3, lsr #24
20001288:	b2db      	uxtb	r3, r3
2000128a:	4618      	mov	r0, r3
2000128c:	f7ff fda6 	bl	20000ddc <spiWrite>
    spiWrite((ya) >> 16);
20001290:	68fb      	ldr	r3, [r7, #12]
20001292:	ea4f 4313 	mov.w	r3, r3, lsr #16
20001296:	b2db      	uxtb	r3, r3
20001298:	4618      	mov	r0, r3
2000129a:	f7ff fd9f 	bl	20000ddc <spiWrite>
    spiWrite((ya) >> 8);
2000129e:	68fb      	ldr	r3, [r7, #12]
200012a0:	ea4f 2313 	mov.w	r3, r3, lsr #8
200012a4:	b2db      	uxtb	r3, r3
200012a6:	4618      	mov	r0, r3
200012a8:	f7ff fd98 	bl	20000ddc <spiWrite>
    spiWrite(ya);
200012ac:	68fb      	ldr	r3, [r7, #12]
200012ae:	b2db      	uxtb	r3, r3
200012b0:	4618      	mov	r0, r3
200012b2:	f7ff fd93 	bl	20000ddc <spiWrite>

    writeCommand(ILI9341_RAMWR); // write to RAM
200012b6:	f04f 002c 	mov.w	r0, #44	; 0x2c
200012ba:	f7ff fdbb 	bl	20000e34 <writeCommand>
}
200012be:	f107 0710 	add.w	r7, r7, #16
200012c2:	46bd      	mov	sp, r7
200012c4:	bd80      	pop	{r7, pc}
200012c6:	bf00      	nop

200012c8 <writePixel>:
void pushColor(uint16_t color) {
  SPI_WRITE16(color);
}


void writePixel(uint16_t color){
200012c8:	b580      	push	{r7, lr}
200012ca:	b082      	sub	sp, #8
200012cc:	af00      	add	r7, sp, #0
200012ce:	4603      	mov	r3, r0
200012d0:	80fb      	strh	r3, [r7, #6]
    SPI_WRITE16(color);
200012d2:	88fb      	ldrh	r3, [r7, #6]
200012d4:	ea4f 2313 	mov.w	r3, r3, lsr #8
200012d8:	b29b      	uxth	r3, r3
200012da:	b2db      	uxtb	r3, r3
200012dc:	4618      	mov	r0, r3
200012de:	f7ff fd7d 	bl	20000ddc <spiWrite>
200012e2:	88fb      	ldrh	r3, [r7, #6]
200012e4:	b2db      	uxtb	r3, r3
200012e6:	4618      	mov	r0, r3
200012e8:	f7ff fd78 	bl	20000ddc <spiWrite>
}
200012ec:	f107 0708 	add.w	r7, r7, #8
200012f0:	46bd      	mov	sp, r7
200012f2:	bd80      	pop	{r7, pc}

200012f4 <writePixelCoordinates>:
void writePixels(uint16_t * colors, uint32_t len){
	 SPI_WRITE_PIXELS((uint8_t*)colors , len * 2);
}


void writePixelCoordinates(struct Print * print, int16_t x, int16_t y, uint16_t color) {
200012f4:	b580      	push	{r7, lr}
200012f6:	b084      	sub	sp, #16
200012f8:	af00      	add	r7, sp, #0
200012fa:	60f8      	str	r0, [r7, #12]
200012fc:	8179      	strh	r1, [r7, #10]
200012fe:	813a      	strh	r2, [r7, #8]
20001300:	80fb      	strh	r3, [r7, #6]
    if((x < 0) ||(x >= print->widthe) || (y < 0) || (y >= print->heighte)) return;
20001302:	f9b7 300a 	ldrsh.w	r3, [r7, #10]
20001306:	2b00      	cmp	r3, #0
20001308:	db20      	blt.n	2000134c <writePixelCoordinates+0x58>
2000130a:	68fb      	ldr	r3, [r7, #12]
2000130c:	889b      	ldrh	r3, [r3, #4]
2000130e:	f9b7 200a 	ldrsh.w	r2, [r7, #10]
20001312:	b21b      	sxth	r3, r3
20001314:	429a      	cmp	r2, r3
20001316:	da1b      	bge.n	20001350 <writePixelCoordinates+0x5c>
20001318:	f9b7 3008 	ldrsh.w	r3, [r7, #8]
2000131c:	2b00      	cmp	r3, #0
2000131e:	db19      	blt.n	20001354 <writePixelCoordinates+0x60>
20001320:	68fb      	ldr	r3, [r7, #12]
20001322:	88db      	ldrh	r3, [r3, #6]
20001324:	f9b7 2008 	ldrsh.w	r2, [r7, #8]
20001328:	b21b      	sxth	r3, r3
2000132a:	429a      	cmp	r2, r3
2000132c:	da14      	bge.n	20001358 <writePixelCoordinates+0x64>
    setAddrWindow(x,y,1,1);
2000132e:	897a      	ldrh	r2, [r7, #10]
20001330:	893b      	ldrh	r3, [r7, #8]
20001332:	4610      	mov	r0, r2
20001334:	4619      	mov	r1, r3
20001336:	f04f 0201 	mov.w	r2, #1
2000133a:	f04f 0301 	mov.w	r3, #1
2000133e:	f7ff ff61 	bl	20001204 <setAddrWindow>
    writePixel(color);
20001342:	88fb      	ldrh	r3, [r7, #6]
20001344:	4618      	mov	r0, r3
20001346:	f7ff ffbf 	bl	200012c8 <writePixel>
2000134a:	e006      	b.n	2000135a <writePixelCoordinates+0x66>
	 SPI_WRITE_PIXELS((uint8_t*)colors , len * 2);
}


void writePixelCoordinates(struct Print * print, int16_t x, int16_t y, uint16_t color) {
    if((x < 0) ||(x >= print->widthe) || (y < 0) || (y >= print->heighte)) return;
2000134c:	bf00      	nop
2000134e:	e004      	b.n	2000135a <writePixelCoordinates+0x66>
20001350:	bf00      	nop
20001352:	e002      	b.n	2000135a <writePixelCoordinates+0x66>
20001354:	bf00      	nop
20001356:	e000      	b.n	2000135a <writePixelCoordinates+0x66>
20001358:	bf00      	nop
    setAddrWindow(x,y,1,1);
    writePixel(color);
}
2000135a:	f107 0710 	add.w	r7, r7, #16
2000135e:	46bd      	mov	sp, r7
20001360:	bd80      	pop	{r7, pc}
20001362:	bf00      	nop

20001364 <writeColor>:
void writeColor(struct Print * print, uint16_t color, uint32_t len){
20001364:	b580      	push	{r7, lr}
20001366:	b086      	sub	sp, #24
20001368:	af00      	add	r7, sp, #0
2000136a:	60f8      	str	r0, [r7, #12]
2000136c:	460b      	mov	r3, r1
2000136e:	607a      	str	r2, [r7, #4]
20001370:	817b      	strh	r3, [r7, #10]
	uint32_t t;
	uint8_t hi = color >> 8, lo = color;
20001372:	897b      	ldrh	r3, [r7, #10]
20001374:	ea4f 2313 	mov.w	r3, r3, lsr #8
20001378:	b29b      	uxth	r3, r3
2000137a:	75bb      	strb	r3, [r7, #22]
2000137c:	897b      	ldrh	r3, [r7, #10]
2000137e:	75fb      	strb	r3, [r7, #23]
	for ( t=len; t; t--){
20001380:	687b      	ldr	r3, [r7, #4]
20001382:	613b      	str	r3, [r7, #16]
20001384:	e00b      	b.n	2000139e <writeColor+0x3a>
		spiWrite(hi);
20001386:	7dbb      	ldrb	r3, [r7, #22]
20001388:	4618      	mov	r0, r3
2000138a:	f7ff fd27 	bl	20000ddc <spiWrite>
		spiWrite(lo);
2000138e:	7dfb      	ldrb	r3, [r7, #23]
20001390:	4618      	mov	r0, r3
20001392:	f7ff fd23 	bl	20000ddc <spiWrite>
    writePixel(color);
}
void writeColor(struct Print * print, uint16_t color, uint32_t len){
	uint32_t t;
	uint8_t hi = color >> 8, lo = color;
	for ( t=len; t; t--){
20001396:	693b      	ldr	r3, [r7, #16]
20001398:	f103 33ff 	add.w	r3, r3, #4294967295
2000139c:	613b      	str	r3, [r7, #16]
2000139e:	693b      	ldr	r3, [r7, #16]
200013a0:	2b00      	cmp	r3, #0
200013a2:	d1f0      	bne.n	20001386 <writeColor+0x22>
		spiWrite(hi);
		spiWrite(lo);
	}

}
200013a4:	f107 0718 	add.w	r7, r7, #24
200013a8:	46bd      	mov	sp, r7
200013aa:	bd80      	pop	{r7, pc}

200013ac <writeFillRect>:

void writeFillRect(struct Print * print,int16_t x, int16_t y, int16_t w, int16_t h, uint16_t color){
200013ac:	b580      	push	{r7, lr}
200013ae:	b086      	sub	sp, #24
200013b0:	af00      	add	r7, sp, #0
200013b2:	60f8      	str	r0, [r7, #12]
200013b4:	8179      	strh	r1, [r7, #10]
200013b6:	813a      	strh	r2, [r7, #8]
200013b8:	80fb      	strh	r3, [r7, #6]
    if((x >= print->widthe) || (y >= print->heighte)) return;
200013ba:	68fb      	ldr	r3, [r7, #12]
200013bc:	889b      	ldrh	r3, [r3, #4]
200013be:	f9b7 200a 	ldrsh.w	r2, [r7, #10]
200013c2:	b21b      	sxth	r3, r3
200013c4:	429a      	cmp	r2, r3
200013c6:	da69      	bge.n	2000149c <writeFillRect+0xf0>
200013c8:	68fb      	ldr	r3, [r7, #12]
200013ca:	88db      	ldrh	r3, [r3, #6]
200013cc:	f9b7 2008 	ldrsh.w	r2, [r7, #8]
200013d0:	b21b      	sxth	r3, r3
200013d2:	429a      	cmp	r2, r3
200013d4:	da64      	bge.n	200014a0 <writeFillRect+0xf4>
    int16_t x2 = x + w - 1, y2 = y + h - 1;
200013d6:	897a      	ldrh	r2, [r7, #10]
200013d8:	88fb      	ldrh	r3, [r7, #6]
200013da:	4413      	add	r3, r2
200013dc:	b29b      	uxth	r3, r3
200013de:	f103 33ff 	add.w	r3, r3, #4294967295
200013e2:	b29b      	uxth	r3, r3
200013e4:	823b      	strh	r3, [r7, #16]
200013e6:	893a      	ldrh	r2, [r7, #8]
200013e8:	8c3b      	ldrh	r3, [r7, #32]
200013ea:	4413      	add	r3, r2
200013ec:	b29b      	uxth	r3, r3
200013ee:	f103 33ff 	add.w	r3, r3, #4294967295
200013f2:	b29b      	uxth	r3, r3
200013f4:	827b      	strh	r3, [r7, #18]
    if((x2 < 0) || (y2 < 0)) return;
200013f6:	f9b7 3010 	ldrsh.w	r3, [r7, #16]
200013fa:	2b00      	cmp	r3, #0
200013fc:	db52      	blt.n	200014a4 <writeFillRect+0xf8>
200013fe:	f9b7 3012 	ldrsh.w	r3, [r7, #18]
20001402:	2b00      	cmp	r3, #0
20001404:	db50      	blt.n	200014a8 <writeFillRect+0xfc>

    // Clip left/top
    if(x < 0) {
20001406:	f9b7 300a 	ldrsh.w	r3, [r7, #10]
2000140a:	2b00      	cmp	r3, #0
2000140c:	da07      	bge.n	2000141e <writeFillRect+0x72>
        x = 0;
2000140e:	f04f 0300 	mov.w	r3, #0
20001412:	817b      	strh	r3, [r7, #10]
        w = x2 + 1;
20001414:	8a3b      	ldrh	r3, [r7, #16]
20001416:	f103 0301 	add.w	r3, r3, #1
2000141a:	b29b      	uxth	r3, r3
2000141c:	80fb      	strh	r3, [r7, #6]
    }
    if(y < 0) {
2000141e:	f9b7 3008 	ldrsh.w	r3, [r7, #8]
20001422:	2b00      	cmp	r3, #0
20001424:	da07      	bge.n	20001436 <writeFillRect+0x8a>
        y = 0;
20001426:	f04f 0300 	mov.w	r3, #0
2000142a:	813b      	strh	r3, [r7, #8]
        h = y2 + 1;
2000142c:	8a7b      	ldrh	r3, [r7, #18]
2000142e:	f103 0301 	add.w	r3, r3, #1
20001432:	b29b      	uxth	r3, r3
20001434:	843b      	strh	r3, [r7, #32]
    }

    // Clip right/bottom
    if(x2 >= print->widthe)  w = print->widthe  - x;
20001436:	68fb      	ldr	r3, [r7, #12]
20001438:	889b      	ldrh	r3, [r3, #4]
2000143a:	f9b7 2010 	ldrsh.w	r2, [r7, #16]
2000143e:	b21b      	sxth	r3, r3
20001440:	429a      	cmp	r2, r3
20001442:	db07      	blt.n	20001454 <writeFillRect+0xa8>
20001444:	68fb      	ldr	r3, [r7, #12]
20001446:	889b      	ldrh	r3, [r3, #4]
20001448:	b29a      	uxth	r2, r3
2000144a:	897b      	ldrh	r3, [r7, #10]
2000144c:	ebc3 0302 	rsb	r3, r3, r2
20001450:	b29b      	uxth	r3, r3
20001452:	80fb      	strh	r3, [r7, #6]
    if(y2 >= print->heighte) h = print->heighte - y;
20001454:	68fb      	ldr	r3, [r7, #12]
20001456:	88db      	ldrh	r3, [r3, #6]
20001458:	f9b7 2012 	ldrsh.w	r2, [r7, #18]
2000145c:	b21b      	sxth	r3, r3
2000145e:	429a      	cmp	r2, r3
20001460:	db07      	blt.n	20001472 <writeFillRect+0xc6>
20001462:	68fb      	ldr	r3, [r7, #12]
20001464:	88db      	ldrh	r3, [r3, #6]
20001466:	b29a      	uxth	r2, r3
20001468:	893b      	ldrh	r3, [r7, #8]
2000146a:	ebc3 0302 	rsb	r3, r3, r2
2000146e:	b29b      	uxth	r3, r3
20001470:	843b      	strh	r3, [r7, #32]

    int32_t len = (int32_t)w * h;
20001472:	f9b7 3006 	ldrsh.w	r3, [r7, #6]
20001476:	f9b7 2020 	ldrsh.w	r2, [r7, #32]
2000147a:	fb02 f303 	mul.w	r3, r2, r3
2000147e:	617b      	str	r3, [r7, #20]
    setAddrWindow(x, y, w, h);
20001480:	8978      	ldrh	r0, [r7, #10]
20001482:	8939      	ldrh	r1, [r7, #8]
20001484:	88fa      	ldrh	r2, [r7, #6]
20001486:	8c3b      	ldrh	r3, [r7, #32]
20001488:	f7ff febc 	bl	20001204 <setAddrWindow>

    writeColor(print, color, len);
2000148c:	697b      	ldr	r3, [r7, #20]
2000148e:	8cba      	ldrh	r2, [r7, #36]	; 0x24
20001490:	68f8      	ldr	r0, [r7, #12]
20001492:	4611      	mov	r1, r2
20001494:	461a      	mov	r2, r3
20001496:	f7ff ff65 	bl	20001364 <writeColor>
2000149a:	e006      	b.n	200014aa <writeFillRect+0xfe>
	}

}

void writeFillRect(struct Print * print,int16_t x, int16_t y, int16_t w, int16_t h, uint16_t color){
    if((x >= print->widthe) || (y >= print->heighte)) return;
2000149c:	bf00      	nop
2000149e:	e004      	b.n	200014aa <writeFillRect+0xfe>
200014a0:	bf00      	nop
200014a2:	e002      	b.n	200014aa <writeFillRect+0xfe>
    int16_t x2 = x + w - 1, y2 = y + h - 1;
    if((x2 < 0) || (y2 < 0)) return;
200014a4:	bf00      	nop
200014a6:	e000      	b.n	200014aa <writeFillRect+0xfe>
200014a8:	bf00      	nop

    int32_t len = (int32_t)w * h;
    setAddrWindow(x, y, w, h);

    writeColor(print, color, len);
}
200014aa:	f107 0718 	add.w	r7, r7, #24
200014ae:	46bd      	mov	sp, r7
200014b0:	bd80      	pop	{r7, pc}
200014b2:	bf00      	nop

200014b4 <writeFastVLine>:

void writeFastVLine(struct Print * print,int16_t x, int16_t y, int16_t h, uint16_t color){
200014b4:	b580      	push	{r7, lr}
200014b6:	b086      	sub	sp, #24
200014b8:	af02      	add	r7, sp, #8
200014ba:	60f8      	str	r0, [r7, #12]
200014bc:	8179      	strh	r1, [r7, #10]
200014be:	813a      	strh	r2, [r7, #8]
200014c0:	80fb      	strh	r3, [r7, #6]
    writeFillRect(print, x, y, 1, h, color);
200014c2:	f9b7 200a 	ldrsh.w	r2, [r7, #10]
200014c6:	f9b7 3008 	ldrsh.w	r3, [r7, #8]
200014ca:	f9b7 1006 	ldrsh.w	r1, [r7, #6]
200014ce:	9100      	str	r1, [sp, #0]
200014d0:	8b39      	ldrh	r1, [r7, #24]
200014d2:	9101      	str	r1, [sp, #4]
200014d4:	68f8      	ldr	r0, [r7, #12]
200014d6:	4611      	mov	r1, r2
200014d8:	461a      	mov	r2, r3
200014da:	f04f 0301 	mov.w	r3, #1
200014de:	f7ff ff65 	bl	200013ac <writeFillRect>
}
200014e2:	f107 0710 	add.w	r7, r7, #16
200014e6:	46bd      	mov	sp, r7
200014e8:	bd80      	pop	{r7, pc}
200014ea:	bf00      	nop

200014ec <fillRect>:
        int16_t w, uint16_t color) {
    writeFastHLine(print, x, y, w, color);
}

void fillRect(struct Print * print, int16_t x, int16_t y, int16_t w, int16_t h,
        uint16_t color) {
200014ec:	b580      	push	{r7, lr}
200014ee:	b086      	sub	sp, #24
200014f0:	af02      	add	r7, sp, #8
200014f2:	60f8      	str	r0, [r7, #12]
200014f4:	8179      	strh	r1, [r7, #10]
200014f6:	813a      	strh	r2, [r7, #8]
200014f8:	80fb      	strh	r3, [r7, #6]
    writeFillRect(print, x,y,w,h,color);
200014fa:	f9b7 100a 	ldrsh.w	r1, [r7, #10]
200014fe:	f9b7 2008 	ldrsh.w	r2, [r7, #8]
20001502:	f9b7 3006 	ldrsh.w	r3, [r7, #6]
20001506:	f9b7 0018 	ldrsh.w	r0, [r7, #24]
2000150a:	9000      	str	r0, [sp, #0]
2000150c:	8bb8      	ldrh	r0, [r7, #28]
2000150e:	9001      	str	r0, [sp, #4]
20001510:	68f8      	ldr	r0, [r7, #12]
20001512:	f7ff ff4b 	bl	200013ac <writeFillRect>
}
20001516:	f107 0710 	add.w	r7, r7, #16
2000151a:	46bd      	mov	sp, r7
2000151c:	bd80      	pop	{r7, pc}
2000151e:	bf00      	nop

20001520 <map>:
boolean N64ControlOn = false;

#define min(a,b) (((a)<(b))?(a):(b))

long map(long x, long in_min, long in_max, long out_min, long out_max)
{
20001520:	b480      	push	{r7}
20001522:	b085      	sub	sp, #20
20001524:	af00      	add	r7, sp, #0
20001526:	60f8      	str	r0, [r7, #12]
20001528:	60b9      	str	r1, [r7, #8]
2000152a:	607a      	str	r2, [r7, #4]
2000152c:	603b      	str	r3, [r7, #0]
  return (x - in_min) * (out_max - out_min) / (in_max - in_min) + out_min;
2000152e:	68fa      	ldr	r2, [r7, #12]
20001530:	68bb      	ldr	r3, [r7, #8]
20001532:	ebc3 0302 	rsb	r3, r3, r2
20001536:	69b9      	ldr	r1, [r7, #24]
20001538:	683a      	ldr	r2, [r7, #0]
2000153a:	ebc2 0201 	rsb	r2, r2, r1
2000153e:	fb02 f203 	mul.w	r2, r2, r3
20001542:	6879      	ldr	r1, [r7, #4]
20001544:	68bb      	ldr	r3, [r7, #8]
20001546:	ebc3 0301 	rsb	r3, r3, r1
2000154a:	fb92 f2f3 	sdiv	r2, r2, r3
2000154e:	683b      	ldr	r3, [r7, #0]
20001550:	4413      	add	r3, r2
}
20001552:	4618      	mov	r0, r3
20001554:	f107 0714 	add.w	r7, r7, #20
20001558:	46bd      	mov	sp, r7
2000155a:	bc80      	pop	{r7}
2000155c:	4770      	bx	lr
2000155e:	bf00      	nop

20001560 <redBtn>:
{
  drawRect(print, FRAME_X, FRAME_Y, FRAME_W, FRAME_H, ILI9341_BLACK);
}

void redBtn(struct Print * print)
{
20001560:	b580      	push	{r7, lr}
20001562:	b086      	sub	sp, #24
20001564:	af04      	add	r7, sp, #16
20001566:	6078      	str	r0, [r7, #4]
	//fillRoundRect(print, REDBUTTON_X, REDBUTTON_Y, REDBUTTON_W, REDBUTTON_H, REDBUTTON_W/8, ILI9341_RED);
	//fillRoundRect(print, GREENBUTTON_X, GREENBUTTON_Y, GREENBUTTON_W, GREENBUTTON_H, GREENBUTTON_W/8, ILI9341_GREEN);
  drawChar(print, GREENBUTTON_X+(GREENBUTTON_W/3) , GREENBUTTON_Y + (GREENBUTTON_H/2.5), 'O', ILI9341_WHITE,ILI9341_WHITE, 4 );
20001568:	f64f 73ff 	movw	r3, #65535	; 0xffff
2000156c:	9300      	str	r3, [sp, #0]
2000156e:	f64f 73ff 	movw	r3, #65535	; 0xffff
20001572:	9301      	str	r3, [sp, #4]
20001574:	f04f 0304 	mov.w	r3, #4
20001578:	9302      	str	r3, [sp, #8]
2000157a:	6878      	ldr	r0, [r7, #4]
2000157c:	f04f 01e2 	mov.w	r1, #226	; 0xe2
20001580:	f04f 0230 	mov.w	r2, #48	; 0x30
20001584:	f04f 034f 	mov.w	r3, #79	; 0x4f
20001588:	f7ff fae2 	bl	20000b50 <drawChar>
  drawChar(print, GREENBUTTON_X +(GREENBUTTON_W/3) + 25 , GREENBUTTON_Y + (GREENBUTTON_H/2.5), 'N', ILI9341_WHITE,ILI9341_WHITE, 4 );
2000158c:	f64f 73ff 	movw	r3, #65535	; 0xffff
20001590:	9300      	str	r3, [sp, #0]
20001592:	f64f 73ff 	movw	r3, #65535	; 0xffff
20001596:	9301      	str	r3, [sp, #4]
20001598:	f04f 0304 	mov.w	r3, #4
2000159c:	9302      	str	r3, [sp, #8]
2000159e:	6878      	ldr	r0, [r7, #4]
200015a0:	f04f 01fb 	mov.w	r1, #251	; 0xfb
200015a4:	f04f 0230 	mov.w	r2, #48	; 0x30
200015a8:	f04f 034e 	mov.w	r3, #78	; 0x4e
200015ac:	f7ff fad0 	bl	20000b50 <drawChar>

  drawChar(print, REDBUTTON_X + REDBUTTON_W/4, REDBUTTON_Y + (REDBUTTON_H/2.5), 'O', ILI9341_DARKGREY,ILI9341_RED, 4);
200015b0:	f647 33ef 	movw	r3, #31727	; 0x7bef
200015b4:	9300      	str	r3, [sp, #0]
200015b6:	f44f 4378 	mov.w	r3, #63488	; 0xf800
200015ba:	9301      	str	r3, [sp, #4]
200015bc:	f04f 0304 	mov.w	r3, #4
200015c0:	9302      	str	r3, [sp, #8]
200015c2:	6878      	ldr	r0, [r7, #4]
200015c4:	f04f 01d7 	mov.w	r1, #215	; 0xd7
200015c8:	f04f 02a8 	mov.w	r2, #168	; 0xa8
200015cc:	f04f 034f 	mov.w	r3, #79	; 0x4f
200015d0:	f7ff fabe 	bl	20000b50 <drawChar>
  drawChar(print, REDBUTTON_X + REDBUTTON_W/4 + 25 , REDBUTTON_Y + (REDBUTTON_H/2.5), 'F', ILI9341_DARKGREY,ILI9341_RED, 4);
200015d4:	f647 33ef 	movw	r3, #31727	; 0x7bef
200015d8:	9300      	str	r3, [sp, #0]
200015da:	f44f 4378 	mov.w	r3, #63488	; 0xf800
200015de:	9301      	str	r3, [sp, #4]
200015e0:	f04f 0304 	mov.w	r3, #4
200015e4:	9302      	str	r3, [sp, #8]
200015e6:	6878      	ldr	r0, [r7, #4]
200015e8:	f04f 01f0 	mov.w	r1, #240	; 0xf0
200015ec:	f04f 02a8 	mov.w	r2, #168	; 0xa8
200015f0:	f04f 0346 	mov.w	r3, #70	; 0x46
200015f4:	f7ff faac 	bl	20000b50 <drawChar>
  drawChar(print, REDBUTTON_X + REDBUTTON_W/4 + 50 , REDBUTTON_Y + (REDBUTTON_H/2.5), 'F', ILI9341_DARKGREY,ILI9341_RED, 4);
200015f8:	f647 33ef 	movw	r3, #31727	; 0x7bef
200015fc:	9300      	str	r3, [sp, #0]
200015fe:	f44f 4378 	mov.w	r3, #63488	; 0xf800
20001602:	9301      	str	r3, [sp, #4]
20001604:	f04f 0304 	mov.w	r3, #4
20001608:	9302      	str	r3, [sp, #8]
2000160a:	6878      	ldr	r0, [r7, #4]
2000160c:	f240 1109 	movw	r1, #265	; 0x109
20001610:	f04f 02a8 	mov.w	r2, #168	; 0xa8
20001614:	f04f 0346 	mov.w	r3, #70	; 0x46
20001618:	f7ff fa9a 	bl	20000b50 <drawChar>
  MovementOn = false;
2000161c:	f24b 3334 	movw	r3, #45876	; 0xb334
20001620:	f2c2 0300 	movt	r3, #8192	; 0x2000
20001624:	f04f 0200 	mov.w	r2, #0
20001628:	601a      	str	r2, [r3, #0]
}
2000162a:	f107 0708 	add.w	r7, r7, #8
2000162e:	46bd      	mov	sp, r7
20001630:	bd80      	pop	{r7, pc}
20001632:	bf00      	nop

20001634 <greenBtn>:

void greenBtn(struct Print * print)
{
20001634:	b580      	push	{r7, lr}
20001636:	b086      	sub	sp, #24
20001638:	af04      	add	r7, sp, #16
2000163a:	6078      	str	r0, [r7, #4]
	//fillRoundRect(print, GREENBUTTON_X, GREENBUTTON_Y, GREENBUTTON_W, GREENBUTTON_H, GREENBUTTON_W/8, ILI9341_GREEN);
	  drawChar(print, GREENBUTTON_X+(GREENBUTTON_W/3) , GREENBUTTON_Y + (GREENBUTTON_H/2.5), 'O', ILI9341_DARKGREY,ILI9341_GREEN, 4 );
2000163c:	f647 33ef 	movw	r3, #31727	; 0x7bef
20001640:	9300      	str	r3, [sp, #0]
20001642:	f44f 63fc 	mov.w	r3, #2016	; 0x7e0
20001646:	9301      	str	r3, [sp, #4]
20001648:	f04f 0304 	mov.w	r3, #4
2000164c:	9302      	str	r3, [sp, #8]
2000164e:	6878      	ldr	r0, [r7, #4]
20001650:	f04f 01e2 	mov.w	r1, #226	; 0xe2
20001654:	f04f 0230 	mov.w	r2, #48	; 0x30
20001658:	f04f 034f 	mov.w	r3, #79	; 0x4f
2000165c:	f7ff fa78 	bl	20000b50 <drawChar>
	  drawChar(print, GREENBUTTON_X +(GREENBUTTON_W/3) + 25 , GREENBUTTON_Y + (GREENBUTTON_H/2.5), 'N', ILI9341_DARKGREY,ILI9341_GREEN, 4 );
20001660:	f647 33ef 	movw	r3, #31727	; 0x7bef
20001664:	9300      	str	r3, [sp, #0]
20001666:	f44f 63fc 	mov.w	r3, #2016	; 0x7e0
2000166a:	9301      	str	r3, [sp, #4]
2000166c:	f04f 0304 	mov.w	r3, #4
20001670:	9302      	str	r3, [sp, #8]
20001672:	6878      	ldr	r0, [r7, #4]
20001674:	f04f 01fb 	mov.w	r1, #251	; 0xfb
20001678:	f04f 0230 	mov.w	r2, #48	; 0x30
2000167c:	f04f 034e 	mov.w	r3, #78	; 0x4e
20001680:	f7ff fa66 	bl	20000b50 <drawChar>
	//fillRoundRect(print, REDBUTTON_X, REDBUTTON_Y, REDBUTTON_W, REDBUTTON_H,REDBUTTON_W/8, ILI9341_RED);
  drawChar(print, REDBUTTON_X + REDBUTTON_W/4, REDBUTTON_Y + (REDBUTTON_H/2.5), 'O', ILI9341_WHITE,ILI9341_WHITE, 4);
20001684:	f64f 73ff 	movw	r3, #65535	; 0xffff
20001688:	9300      	str	r3, [sp, #0]
2000168a:	f64f 73ff 	movw	r3, #65535	; 0xffff
2000168e:	9301      	str	r3, [sp, #4]
20001690:	f04f 0304 	mov.w	r3, #4
20001694:	9302      	str	r3, [sp, #8]
20001696:	6878      	ldr	r0, [r7, #4]
20001698:	f04f 01d7 	mov.w	r1, #215	; 0xd7
2000169c:	f04f 02a8 	mov.w	r2, #168	; 0xa8
200016a0:	f04f 034f 	mov.w	r3, #79	; 0x4f
200016a4:	f7ff fa54 	bl	20000b50 <drawChar>
  drawChar(print, REDBUTTON_X + REDBUTTON_W/4 + 25 , REDBUTTON_Y + (REDBUTTON_H/2.5), 'F', ILI9341_WHITE,ILI9341_WHITE, 4);
200016a8:	f64f 73ff 	movw	r3, #65535	; 0xffff
200016ac:	9300      	str	r3, [sp, #0]
200016ae:	f64f 73ff 	movw	r3, #65535	; 0xffff
200016b2:	9301      	str	r3, [sp, #4]
200016b4:	f04f 0304 	mov.w	r3, #4
200016b8:	9302      	str	r3, [sp, #8]
200016ba:	6878      	ldr	r0, [r7, #4]
200016bc:	f04f 01f0 	mov.w	r1, #240	; 0xf0
200016c0:	f04f 02a8 	mov.w	r2, #168	; 0xa8
200016c4:	f04f 0346 	mov.w	r3, #70	; 0x46
200016c8:	f7ff fa42 	bl	20000b50 <drawChar>
  drawChar(print, REDBUTTON_X + REDBUTTON_W/4 + 50 , REDBUTTON_Y + (REDBUTTON_H/2.5), 'F', ILI9341_WHITE,ILI9341_WHITE, 4);
200016cc:	f64f 73ff 	movw	r3, #65535	; 0xffff
200016d0:	9300      	str	r3, [sp, #0]
200016d2:	f64f 73ff 	movw	r3, #65535	; 0xffff
200016d6:	9301      	str	r3, [sp, #4]
200016d8:	f04f 0304 	mov.w	r3, #4
200016dc:	9302      	str	r3, [sp, #8]
200016de:	6878      	ldr	r0, [r7, #4]
200016e0:	f240 1109 	movw	r1, #265	; 0x109
200016e4:	f04f 02a8 	mov.w	r2, #168	; 0xa8
200016e8:	f04f 0346 	mov.w	r3, #70	; 0x46
200016ec:	f7ff fa30 	bl	20000b50 <drawChar>



  MovementOn = true;
200016f0:	f24b 3334 	movw	r3, #45876	; 0xb334
200016f4:	f2c2 0300 	movt	r3, #8192	; 0x2000
200016f8:	f04f 0201 	mov.w	r2, #1
200016fc:	601a      	str	r2, [r3, #0]
}
200016fe:	f107 0708 	add.w	r7, r7, #8
20001702:	46bd      	mov	sp, r7
20001704:	bd80      	pop	{r7, pc}
20001706:	bf00      	nop

20001708 <linebutton>:


void linebutton(struct Print * print)
{
20001708:	b580      	push	{r7, lr}
2000170a:	b086      	sub	sp, #24
2000170c:	af04      	add	r7, sp, #16
2000170e:	6078      	str	r0, [r7, #4]
	drawChar(print, N64BUTTON_X +(N64BUTTON_W/5) , N64BUTTON_Y + (N64BUTTON_H/5), 'L', ILI9341_WHITE,ILI9341_WHITE, 4 );
20001710:	f64f 73ff 	movw	r3, #65535	; 0xffff
20001714:	9300      	str	r3, [sp, #0]
20001716:	f64f 73ff 	movw	r3, #65535	; 0xffff
2000171a:	9301      	str	r3, [sp, #4]
2000171c:	f04f 0304 	mov.w	r3, #4
20001720:	9302      	str	r3, [sp, #8]
20001722:	6878      	ldr	r0, [r7, #4]
20001724:	f04f 0126 	mov.w	r1, #38	; 0x26
20001728:	f04f 0218 	mov.w	r2, #24
2000172c:	f04f 034c 	mov.w	r3, #76	; 0x4c
20001730:	f7ff fa0e 	bl	20000b50 <drawChar>
	drawChar(print, N64BUTTON_X +(N64BUTTON_W/5) + 25 , N64BUTTON_Y + (N64BUTTON_H/5), 'I', ILI9341_WHITE,ILI9341_WHITE, 4 );
20001734:	f64f 73ff 	movw	r3, #65535	; 0xffff
20001738:	9300      	str	r3, [sp, #0]
2000173a:	f64f 73ff 	movw	r3, #65535	; 0xffff
2000173e:	9301      	str	r3, [sp, #4]
20001740:	f04f 0304 	mov.w	r3, #4
20001744:	9302      	str	r3, [sp, #8]
20001746:	6878      	ldr	r0, [r7, #4]
20001748:	f04f 013f 	mov.w	r1, #63	; 0x3f
2000174c:	f04f 0218 	mov.w	r2, #24
20001750:	f04f 0349 	mov.w	r3, #73	; 0x49
20001754:	f7ff f9fc 	bl	20000b50 <drawChar>
	drawChar(print, N64BUTTON_X +(N64BUTTON_W/5) + 50 , N64BUTTON_Y + (N64BUTTON_H/5), 'N', ILI9341_WHITE,ILI9341_WHITE, 4 );
20001758:	f64f 73ff 	movw	r3, #65535	; 0xffff
2000175c:	9300      	str	r3, [sp, #0]
2000175e:	f64f 73ff 	movw	r3, #65535	; 0xffff
20001762:	9301      	str	r3, [sp, #4]
20001764:	f04f 0304 	mov.w	r3, #4
20001768:	9302      	str	r3, [sp, #8]
2000176a:	6878      	ldr	r0, [r7, #4]
2000176c:	f04f 0158 	mov.w	r1, #88	; 0x58
20001770:	f04f 0218 	mov.w	r2, #24
20001774:	f04f 034e 	mov.w	r3, #78	; 0x4e
20001778:	f7ff f9ea 	bl	20000b50 <drawChar>
	drawChar(print, N64BUTTON_X +(N64BUTTON_W/5) + 75 , N64BUTTON_Y + (N64BUTTON_H/5), 'E', ILI9341_WHITE,ILI9341_WHITE, 4 );
2000177c:	f64f 73ff 	movw	r3, #65535	; 0xffff
20001780:	9300      	str	r3, [sp, #0]
20001782:	f64f 73ff 	movw	r3, #65535	; 0xffff
20001786:	9301      	str	r3, [sp, #4]
20001788:	f04f 0304 	mov.w	r3, #4
2000178c:	9302      	str	r3, [sp, #8]
2000178e:	6878      	ldr	r0, [r7, #4]
20001790:	f04f 0171 	mov.w	r1, #113	; 0x71
20001794:	f04f 0218 	mov.w	r2, #24
20001798:	f04f 0345 	mov.w	r3, #69	; 0x45
2000179c:	f7ff f9d8 	bl	20000b50 <drawChar>

	drawChar(print, N64BUTTON_X +(N64BUTTON_W/10) , N64BUTTON_Y + (N64BUTTON_H*3/5), 'F', ILI9341_WHITE,ILI9341_WHITE, 4 );
200017a0:	f64f 73ff 	movw	r3, #65535	; 0xffff
200017a4:	9300      	str	r3, [sp, #0]
200017a6:	f64f 73ff 	movw	r3, #65535	; 0xffff
200017aa:	9301      	str	r3, [sp, #4]
200017ac:	f04f 0304 	mov.w	r3, #4
200017b0:	9302      	str	r3, [sp, #8]
200017b2:	6878      	ldr	r0, [r7, #4]
200017b4:	f04f 0118 	mov.w	r1, #24
200017b8:	f04f 0248 	mov.w	r2, #72	; 0x48
200017bc:	f04f 0346 	mov.w	r3, #70	; 0x46
200017c0:	f7ff f9c6 	bl	20000b50 <drawChar>
	drawChar(print, N64BUTTON_X +(N64BUTTON_W/10) + 25 , N64BUTTON_Y + (N64BUTTON_H*3/5), 'O', ILI9341_WHITE,ILI9341_WHITE, 4 );
200017c4:	f64f 73ff 	movw	r3, #65535	; 0xffff
200017c8:	9300      	str	r3, [sp, #0]
200017ca:	f64f 73ff 	movw	r3, #65535	; 0xffff
200017ce:	9301      	str	r3, [sp, #4]
200017d0:	f04f 0304 	mov.w	r3, #4
200017d4:	9302      	str	r3, [sp, #8]
200017d6:	6878      	ldr	r0, [r7, #4]
200017d8:	f04f 0131 	mov.w	r1, #49	; 0x31
200017dc:	f04f 0248 	mov.w	r2, #72	; 0x48
200017e0:	f04f 034f 	mov.w	r3, #79	; 0x4f
200017e4:	f7ff f9b4 	bl	20000b50 <drawChar>
	drawChar(print, N64BUTTON_X +(N64BUTTON_W/10) + 50 , N64BUTTON_Y + (N64BUTTON_H*3/5), 'L', ILI9341_WHITE,ILI9341_WHITE, 4 );
200017e8:	f64f 73ff 	movw	r3, #65535	; 0xffff
200017ec:	9300      	str	r3, [sp, #0]
200017ee:	f64f 73ff 	movw	r3, #65535	; 0xffff
200017f2:	9301      	str	r3, [sp, #4]
200017f4:	f04f 0304 	mov.w	r3, #4
200017f8:	9302      	str	r3, [sp, #8]
200017fa:	6878      	ldr	r0, [r7, #4]
200017fc:	f04f 014a 	mov.w	r1, #74	; 0x4a
20001800:	f04f 0248 	mov.w	r2, #72	; 0x48
20001804:	f04f 034c 	mov.w	r3, #76	; 0x4c
20001808:	f7ff f9a2 	bl	20000b50 <drawChar>
	drawChar(print, N64BUTTON_X +(N64BUTTON_W/10) + 75 , N64BUTTON_Y + (N64BUTTON_H*3/5), 'L', ILI9341_WHITE,ILI9341_WHITE, 4 );
2000180c:	f64f 73ff 	movw	r3, #65535	; 0xffff
20001810:	9300      	str	r3, [sp, #0]
20001812:	f64f 73ff 	movw	r3, #65535	; 0xffff
20001816:	9301      	str	r3, [sp, #4]
20001818:	f04f 0304 	mov.w	r3, #4
2000181c:	9302      	str	r3, [sp, #8]
2000181e:	6878      	ldr	r0, [r7, #4]
20001820:	f04f 0163 	mov.w	r1, #99	; 0x63
20001824:	f04f 0248 	mov.w	r2, #72	; 0x48
20001828:	f04f 034c 	mov.w	r3, #76	; 0x4c
2000182c:	f7ff f990 	bl	20000b50 <drawChar>
	drawChar(print, N64BUTTON_X +(N64BUTTON_W/10) + 100 , N64BUTTON_Y + (N64BUTTON_H*3/5), 'O', ILI9341_WHITE,ILI9341_WHITE, 4 );
20001830:	f64f 73ff 	movw	r3, #65535	; 0xffff
20001834:	9300      	str	r3, [sp, #0]
20001836:	f64f 73ff 	movw	r3, #65535	; 0xffff
2000183a:	9301      	str	r3, [sp, #4]
2000183c:	f04f 0304 	mov.w	r3, #4
20001840:	9302      	str	r3, [sp, #8]
20001842:	6878      	ldr	r0, [r7, #4]
20001844:	f04f 017c 	mov.w	r1, #124	; 0x7c
20001848:	f04f 0248 	mov.w	r2, #72	; 0x48
2000184c:	f04f 034f 	mov.w	r3, #79	; 0x4f
20001850:	f7ff f97e 	bl	20000b50 <drawChar>
	drawChar(print, N64BUTTON_X +(N64BUTTON_W/10) + 125 , N64BUTTON_Y + (N64BUTTON_H*3/5), 'W', ILI9341_WHITE,ILI9341_WHITE, 4 );
20001854:	f64f 73ff 	movw	r3, #65535	; 0xffff
20001858:	9300      	str	r3, [sp, #0]
2000185a:	f64f 73ff 	movw	r3, #65535	; 0xffff
2000185e:	9301      	str	r3, [sp, #4]
20001860:	f04f 0304 	mov.w	r3, #4
20001864:	9302      	str	r3, [sp, #8]
20001866:	6878      	ldr	r0, [r7, #4]
20001868:	f04f 0195 	mov.w	r1, #149	; 0x95
2000186c:	f04f 0248 	mov.w	r2, #72	; 0x48
20001870:	f04f 0357 	mov.w	r3, #87	; 0x57
20001874:	f7ff f96c 	bl	20000b50 <drawChar>

	drawChar(print, LINEBUTTON_X + LINEBUTTON_W/4, LINEBUTTON_Y + (LINEBUTTON_H/2.5), 'N', ILI9341_DARKGREY,ILI9341_DARKGREY, 4);
20001878:	f647 33ef 	movw	r3, #31727	; 0x7bef
2000187c:	9300      	str	r3, [sp, #0]
2000187e:	f647 33ef 	movw	r3, #31727	; 0x7bef
20001882:	9301      	str	r3, [sp, #4]
20001884:	f04f 0304 	mov.w	r3, #4
20001888:	9302      	str	r3, [sp, #8]
2000188a:	6878      	ldr	r0, [r7, #4]
2000188c:	f04f 012d 	mov.w	r1, #45	; 0x2d
20001890:	f04f 02a8 	mov.w	r2, #168	; 0xa8
20001894:	f04f 034e 	mov.w	r3, #78	; 0x4e
20001898:	f7ff f95a 	bl	20000b50 <drawChar>
	drawChar(print, LINEBUTTON_X + LINEBUTTON_W/4 + 25 , LINEBUTTON_Y + (LINEBUTTON_H/2.5), '6', ILI9341_DARKGREY,ILI9341_DARKGREY, 4);
2000189c:	f647 33ef 	movw	r3, #31727	; 0x7bef
200018a0:	9300      	str	r3, [sp, #0]
200018a2:	f647 33ef 	movw	r3, #31727	; 0x7bef
200018a6:	9301      	str	r3, [sp, #4]
200018a8:	f04f 0304 	mov.w	r3, #4
200018ac:	9302      	str	r3, [sp, #8]
200018ae:	6878      	ldr	r0, [r7, #4]
200018b0:	f04f 0146 	mov.w	r1, #70	; 0x46
200018b4:	f04f 02a8 	mov.w	r2, #168	; 0xa8
200018b8:	f04f 0336 	mov.w	r3, #54	; 0x36
200018bc:	f7ff f948 	bl	20000b50 <drawChar>
	drawChar(print, LINEBUTTON_X + LINEBUTTON_W/4 + 50 , LINEBUTTON_Y + (LINEBUTTON_H/2.5), '4', ILI9341_DARKGREY,ILI9341_DARKGREY, 4);
200018c0:	f647 33ef 	movw	r3, #31727	; 0x7bef
200018c4:	9300      	str	r3, [sp, #0]
200018c6:	f647 33ef 	movw	r3, #31727	; 0x7bef
200018ca:	9301      	str	r3, [sp, #4]
200018cc:	f04f 0304 	mov.w	r3, #4
200018d0:	9302      	str	r3, [sp, #8]
200018d2:	6878      	ldr	r0, [r7, #4]
200018d4:	f04f 015f 	mov.w	r1, #95	; 0x5f
200018d8:	f04f 02a8 	mov.w	r2, #168	; 0xa8
200018dc:	f04f 0334 	mov.w	r3, #52	; 0x34
200018e0:	f7ff f936 	bl	20000b50 <drawChar>

	N64ControlOn = false;
200018e4:	f24b 3338 	movw	r3, #45880	; 0xb338
200018e8:	f2c2 0300 	movt	r3, #8192	; 0x2000
200018ec:	f04f 0200 	mov.w	r2, #0
200018f0:	601a      	str	r2, [r3, #0]
	}
200018f2:	f107 0708 	add.w	r7, r7, #8
200018f6:	46bd      	mov	sp, r7
200018f8:	bd80      	pop	{r7, pc}
200018fa:	bf00      	nop

200018fc <n64button>:

void n64button(struct Print * print)
{
200018fc:	b580      	push	{r7, lr}
200018fe:	b086      	sub	sp, #24
20001900:	af04      	add	r7, sp, #16
20001902:	6078      	str	r0, [r7, #4]
	drawChar(print, N64BUTTON_X +(N64BUTTON_W/5) , N64BUTTON_Y + (N64BUTTON_H/5), 'L', ILI9341_DARKGREY,ILI9341_DARKGREY, 4 );
20001904:	f647 33ef 	movw	r3, #31727	; 0x7bef
20001908:	9300      	str	r3, [sp, #0]
2000190a:	f647 33ef 	movw	r3, #31727	; 0x7bef
2000190e:	9301      	str	r3, [sp, #4]
20001910:	f04f 0304 	mov.w	r3, #4
20001914:	9302      	str	r3, [sp, #8]
20001916:	6878      	ldr	r0, [r7, #4]
20001918:	f04f 0126 	mov.w	r1, #38	; 0x26
2000191c:	f04f 0218 	mov.w	r2, #24
20001920:	f04f 034c 	mov.w	r3, #76	; 0x4c
20001924:	f7ff f914 	bl	20000b50 <drawChar>
	drawChar(print, N64BUTTON_X +(N64BUTTON_W/5) + 25 , N64BUTTON_Y + (N64BUTTON_H/5), 'I', ILI9341_DARKGREY,ILI9341_DARKGREY, 4 );
20001928:	f647 33ef 	movw	r3, #31727	; 0x7bef
2000192c:	9300      	str	r3, [sp, #0]
2000192e:	f647 33ef 	movw	r3, #31727	; 0x7bef
20001932:	9301      	str	r3, [sp, #4]
20001934:	f04f 0304 	mov.w	r3, #4
20001938:	9302      	str	r3, [sp, #8]
2000193a:	6878      	ldr	r0, [r7, #4]
2000193c:	f04f 013f 	mov.w	r1, #63	; 0x3f
20001940:	f04f 0218 	mov.w	r2, #24
20001944:	f04f 0349 	mov.w	r3, #73	; 0x49
20001948:	f7ff f902 	bl	20000b50 <drawChar>
	drawChar(print, N64BUTTON_X +(N64BUTTON_W/5) + 50 , N64BUTTON_Y + (N64BUTTON_H/5), 'N', ILI9341_DARKGREY,ILI9341_DARKGREY, 4 );
2000194c:	f647 33ef 	movw	r3, #31727	; 0x7bef
20001950:	9300      	str	r3, [sp, #0]
20001952:	f647 33ef 	movw	r3, #31727	; 0x7bef
20001956:	9301      	str	r3, [sp, #4]
20001958:	f04f 0304 	mov.w	r3, #4
2000195c:	9302      	str	r3, [sp, #8]
2000195e:	6878      	ldr	r0, [r7, #4]
20001960:	f04f 0158 	mov.w	r1, #88	; 0x58
20001964:	f04f 0218 	mov.w	r2, #24
20001968:	f04f 034e 	mov.w	r3, #78	; 0x4e
2000196c:	f7ff f8f0 	bl	20000b50 <drawChar>
	drawChar(print, N64BUTTON_X +(N64BUTTON_W/5) + 75 , N64BUTTON_Y + (N64BUTTON_H/5), 'E', ILI9341_DARKGREY,ILI9341_DARKGREY, 4 );
20001970:	f647 33ef 	movw	r3, #31727	; 0x7bef
20001974:	9300      	str	r3, [sp, #0]
20001976:	f647 33ef 	movw	r3, #31727	; 0x7bef
2000197a:	9301      	str	r3, [sp, #4]
2000197c:	f04f 0304 	mov.w	r3, #4
20001980:	9302      	str	r3, [sp, #8]
20001982:	6878      	ldr	r0, [r7, #4]
20001984:	f04f 0171 	mov.w	r1, #113	; 0x71
20001988:	f04f 0218 	mov.w	r2, #24
2000198c:	f04f 0345 	mov.w	r3, #69	; 0x45
20001990:	f7ff f8de 	bl	20000b50 <drawChar>

	drawChar(print, N64BUTTON_X +(N64BUTTON_W/10) , N64BUTTON_Y + (N64BUTTON_H*3/5), 'F', ILI9341_DARKGREY,ILI9341_DARKGREY, 4 );
20001994:	f647 33ef 	movw	r3, #31727	; 0x7bef
20001998:	9300      	str	r3, [sp, #0]
2000199a:	f647 33ef 	movw	r3, #31727	; 0x7bef
2000199e:	9301      	str	r3, [sp, #4]
200019a0:	f04f 0304 	mov.w	r3, #4
200019a4:	9302      	str	r3, [sp, #8]
200019a6:	6878      	ldr	r0, [r7, #4]
200019a8:	f04f 0118 	mov.w	r1, #24
200019ac:	f04f 0248 	mov.w	r2, #72	; 0x48
200019b0:	f04f 0346 	mov.w	r3, #70	; 0x46
200019b4:	f7ff f8cc 	bl	20000b50 <drawChar>
	drawChar(print, N64BUTTON_X +(N64BUTTON_W/10) + 25 , N64BUTTON_Y + (N64BUTTON_H*3/5), 'O', ILI9341_DARKGREY,ILI9341_DARKGREY, 4 );
200019b8:	f647 33ef 	movw	r3, #31727	; 0x7bef
200019bc:	9300      	str	r3, [sp, #0]
200019be:	f647 33ef 	movw	r3, #31727	; 0x7bef
200019c2:	9301      	str	r3, [sp, #4]
200019c4:	f04f 0304 	mov.w	r3, #4
200019c8:	9302      	str	r3, [sp, #8]
200019ca:	6878      	ldr	r0, [r7, #4]
200019cc:	f04f 0131 	mov.w	r1, #49	; 0x31
200019d0:	f04f 0248 	mov.w	r2, #72	; 0x48
200019d4:	f04f 034f 	mov.w	r3, #79	; 0x4f
200019d8:	f7ff f8ba 	bl	20000b50 <drawChar>
	drawChar(print, N64BUTTON_X +(N64BUTTON_W/10) + 50 , N64BUTTON_Y + (N64BUTTON_H*3/5), 'L', ILI9341_DARKGREY,ILI9341_DARKGREY, 4 );
200019dc:	f647 33ef 	movw	r3, #31727	; 0x7bef
200019e0:	9300      	str	r3, [sp, #0]
200019e2:	f647 33ef 	movw	r3, #31727	; 0x7bef
200019e6:	9301      	str	r3, [sp, #4]
200019e8:	f04f 0304 	mov.w	r3, #4
200019ec:	9302      	str	r3, [sp, #8]
200019ee:	6878      	ldr	r0, [r7, #4]
200019f0:	f04f 014a 	mov.w	r1, #74	; 0x4a
200019f4:	f04f 0248 	mov.w	r2, #72	; 0x48
200019f8:	f04f 034c 	mov.w	r3, #76	; 0x4c
200019fc:	f7ff f8a8 	bl	20000b50 <drawChar>
	drawChar(print, N64BUTTON_X +(N64BUTTON_W/10) + 75 , N64BUTTON_Y + (N64BUTTON_H*3/5), 'L', ILI9341_DARKGREY,ILI9341_DARKGREY, 4 );
20001a00:	f647 33ef 	movw	r3, #31727	; 0x7bef
20001a04:	9300      	str	r3, [sp, #0]
20001a06:	f647 33ef 	movw	r3, #31727	; 0x7bef
20001a0a:	9301      	str	r3, [sp, #4]
20001a0c:	f04f 0304 	mov.w	r3, #4
20001a10:	9302      	str	r3, [sp, #8]
20001a12:	6878      	ldr	r0, [r7, #4]
20001a14:	f04f 0163 	mov.w	r1, #99	; 0x63
20001a18:	f04f 0248 	mov.w	r2, #72	; 0x48
20001a1c:	f04f 034c 	mov.w	r3, #76	; 0x4c
20001a20:	f7ff f896 	bl	20000b50 <drawChar>
	drawChar(print, N64BUTTON_X +(N64BUTTON_W/10) + 100 , N64BUTTON_Y + (N64BUTTON_H*3/5), 'O', ILI9341_DARKGREY,ILI9341_DARKGREY, 4 );
20001a24:	f647 33ef 	movw	r3, #31727	; 0x7bef
20001a28:	9300      	str	r3, [sp, #0]
20001a2a:	f647 33ef 	movw	r3, #31727	; 0x7bef
20001a2e:	9301      	str	r3, [sp, #4]
20001a30:	f04f 0304 	mov.w	r3, #4
20001a34:	9302      	str	r3, [sp, #8]
20001a36:	6878      	ldr	r0, [r7, #4]
20001a38:	f04f 017c 	mov.w	r1, #124	; 0x7c
20001a3c:	f04f 0248 	mov.w	r2, #72	; 0x48
20001a40:	f04f 034f 	mov.w	r3, #79	; 0x4f
20001a44:	f7ff f884 	bl	20000b50 <drawChar>
	drawChar(print, N64BUTTON_X +(N64BUTTON_W/10) + 125 , N64BUTTON_Y + (N64BUTTON_H*3/5), 'W', ILI9341_DARKGREY,ILI9341_DARKGREY, 4 );
20001a48:	f647 33ef 	movw	r3, #31727	; 0x7bef
20001a4c:	9300      	str	r3, [sp, #0]
20001a4e:	f647 33ef 	movw	r3, #31727	; 0x7bef
20001a52:	9301      	str	r3, [sp, #4]
20001a54:	f04f 0304 	mov.w	r3, #4
20001a58:	9302      	str	r3, [sp, #8]
20001a5a:	6878      	ldr	r0, [r7, #4]
20001a5c:	f04f 0195 	mov.w	r1, #149	; 0x95
20001a60:	f04f 0248 	mov.w	r2, #72	; 0x48
20001a64:	f04f 0357 	mov.w	r3, #87	; 0x57
20001a68:	f7ff f872 	bl	20000b50 <drawChar>

	drawChar(print, LINEBUTTON_X + LINEBUTTON_W/4, LINEBUTTON_Y + (LINEBUTTON_H/2.5), 'N', ILI9341_WHITE,ILI9341_WHITE, 4);
20001a6c:	f64f 73ff 	movw	r3, #65535	; 0xffff
20001a70:	9300      	str	r3, [sp, #0]
20001a72:	f64f 73ff 	movw	r3, #65535	; 0xffff
20001a76:	9301      	str	r3, [sp, #4]
20001a78:	f04f 0304 	mov.w	r3, #4
20001a7c:	9302      	str	r3, [sp, #8]
20001a7e:	6878      	ldr	r0, [r7, #4]
20001a80:	f04f 012d 	mov.w	r1, #45	; 0x2d
20001a84:	f04f 02a8 	mov.w	r2, #168	; 0xa8
20001a88:	f04f 034e 	mov.w	r3, #78	; 0x4e
20001a8c:	f7ff f860 	bl	20000b50 <drawChar>
	drawChar(print, LINEBUTTON_X + LINEBUTTON_W/4 + 25 , LINEBUTTON_Y + (LINEBUTTON_H/2.5), '6', ILI9341_WHITE,ILI9341_WHITE, 4);
20001a90:	f64f 73ff 	movw	r3, #65535	; 0xffff
20001a94:	9300      	str	r3, [sp, #0]
20001a96:	f64f 73ff 	movw	r3, #65535	; 0xffff
20001a9a:	9301      	str	r3, [sp, #4]
20001a9c:	f04f 0304 	mov.w	r3, #4
20001aa0:	9302      	str	r3, [sp, #8]
20001aa2:	6878      	ldr	r0, [r7, #4]
20001aa4:	f04f 0146 	mov.w	r1, #70	; 0x46
20001aa8:	f04f 02a8 	mov.w	r2, #168	; 0xa8
20001aac:	f04f 0336 	mov.w	r3, #54	; 0x36
20001ab0:	f7ff f84e 	bl	20000b50 <drawChar>
	drawChar(print, LINEBUTTON_X + LINEBUTTON_W/4 + 50 , LINEBUTTON_Y + (LINEBUTTON_H/2.5), '4', ILI9341_WHITE,ILI9341_WHITE, 4);
20001ab4:	f64f 73ff 	movw	r3, #65535	; 0xffff
20001ab8:	9300      	str	r3, [sp, #0]
20001aba:	f64f 73ff 	movw	r3, #65535	; 0xffff
20001abe:	9301      	str	r3, [sp, #4]
20001ac0:	f04f 0304 	mov.w	r3, #4
20001ac4:	9302      	str	r3, [sp, #8]
20001ac6:	6878      	ldr	r0, [r7, #4]
20001ac8:	f04f 015f 	mov.w	r1, #95	; 0x5f
20001acc:	f04f 02a8 	mov.w	r2, #168	; 0xa8
20001ad0:	f04f 0334 	mov.w	r3, #52	; 0x34
20001ad4:	f7ff f83c 	bl	20000b50 <drawChar>

	N64ControlOn = true;
20001ad8:	f24b 3338 	movw	r3, #45880	; 0xb338
20001adc:	f2c2 0300 	movt	r3, #8192	; 0x2000
20001ae0:	f04f 0201 	mov.w	r2, #1
20001ae4:	601a      	str	r2, [r3, #0]
}
20001ae6:	f107 0708 	add.w	r7, r7, #8
20001aea:	46bd      	mov	sp, r7
20001aec:	bd80      	pop	{r7, pc}
20001aee:	bf00      	nop

20001af0 <start_stop_buttons>:
void start_stop_buttons(struct Adafruit_FT6206 * ts) {
20001af0:	b580      	push	{r7, lr}
20001af2:	b088      	sub	sp, #32
20001af4:	af02      	add	r7, sp, #8
20001af6:	6078      	str	r0, [r7, #4]
	if (touched(ts)){
20001af8:	6878      	ldr	r0, [r7, #4]
20001afa:	f7fe fce5 	bl	200004c8 <touched>
20001afe:	4603      	mov	r3, r0
20001b00:	2b00      	cmp	r3, #0
20001b02:	f000 8091 	beq.w	20001c28 <start_stop_buttons+0x138>
		struct TS_Point * p;
		p = (struct TS_Point *) malloc(sizeof(struct TS_Point));
20001b06:	f04f 0006 	mov.w	r0, #6
20001b0a:	f002 fbfb 	bl	20004304 <malloc>
20001b0e:	4603      	mov	r3, r0
20001b10:	60fb      	str	r3, [r7, #12]
		p = getPoint(ts);
20001b12:	6878      	ldr	r0, [r7, #4]
20001b14:	f7fe fe10 	bl	20000738 <getPoint>
20001b18:	4603      	mov	r3, r0
20001b1a:	60fb      	str	r3, [r7, #12]

		p->x = map(p->x, 0, 240, 240, 0);
20001b1c:	68fb      	ldr	r3, [r7, #12]
20001b1e:	881b      	ldrh	r3, [r3, #0]
20001b20:	b21b      	sxth	r3, r3
20001b22:	f04f 0200 	mov.w	r2, #0
20001b26:	9200      	str	r2, [sp, #0]
20001b28:	4618      	mov	r0, r3
20001b2a:	f04f 0100 	mov.w	r1, #0
20001b2e:	f04f 02f0 	mov.w	r2, #240	; 0xf0
20001b32:	f04f 03f0 	mov.w	r3, #240	; 0xf0
20001b36:	f7ff fcf3 	bl	20001520 <map>
20001b3a:	4603      	mov	r3, r0
20001b3c:	b29a      	uxth	r2, r3
20001b3e:	68fb      	ldr	r3, [r7, #12]
20001b40:	801a      	strh	r2, [r3, #0]
		p->y = map(p->y, 0, 320, 320, 0);
20001b42:	68fb      	ldr	r3, [r7, #12]
20001b44:	885b      	ldrh	r3, [r3, #2]
20001b46:	b21b      	sxth	r3, r3
20001b48:	f04f 0200 	mov.w	r2, #0
20001b4c:	9200      	str	r2, [sp, #0]
20001b4e:	4618      	mov	r0, r3
20001b50:	f04f 0100 	mov.w	r1, #0
20001b54:	f44f 72a0 	mov.w	r2, #320	; 0x140
20001b58:	f44f 73a0 	mov.w	r3, #320	; 0x140
20001b5c:	f7ff fce0 	bl	20001520 <map>
20001b60:	4603      	mov	r3, r0
20001b62:	b29a      	uxth	r2, r3
20001b64:	68fb      	ldr	r3, [r7, #12]
20001b66:	805a      	strh	r2, [r3, #2]
//			int y =  height(print) - p->x;;
//			int x = p->y;
		int y = height(print) - p->x;
20001b68:	f24b 3378 	movw	r3, #45944	; 0xb378
20001b6c:	f2c2 0300 	movt	r3, #8192	; 0x2000
20001b70:	681b      	ldr	r3, [r3, #0]
20001b72:	4618      	mov	r0, r3
20001b74:	f7ff f8f4 	bl	20000d60 <height>
20001b78:	4603      	mov	r3, r0
20001b7a:	b29b      	uxth	r3, r3
20001b7c:	b21a      	sxth	r2, r3
20001b7e:	68fb      	ldr	r3, [r7, #12]
20001b80:	881b      	ldrh	r3, [r3, #0]
20001b82:	b21b      	sxth	r3, r3
20001b84:	ebc3 0302 	rsb	r3, r3, r2
20001b88:	613b      	str	r3, [r7, #16]
		int x = p->y;
20001b8a:	68fb      	ldr	r3, [r7, #12]
20001b8c:	885b      	ldrh	r3, [r3, #2]
20001b8e:	b21b      	sxth	r3, r3
20001b90:	617b      	str	r3, [r7, #20]

		if (MovementOn)
20001b92:	f24b 3334 	movw	r3, #45876	; 0xb334
20001b96:	f2c2 0300 	movt	r3, #8192	; 0x2000
20001b9a:	681b      	ldr	r3, [r3, #0]
20001b9c:	2b00      	cmp	r3, #0
20001b9e:	d01c      	beq.n	20001bda <start_stop_buttons+0xea>
			{
			  if((x > REDBUTTON_X) && (x < (REDBUTTON_X + REDBUTTON_W))) {
20001ba0:	697b      	ldr	r3, [r7, #20]
20001ba2:	2bb4      	cmp	r3, #180	; 0xb4
20001ba4:	dd36      	ble.n	20001c14 <start_stop_buttons+0x124>
20001ba6:	697a      	ldr	r2, [r7, #20]
20001ba8:	f240 133f 	movw	r3, #319	; 0x13f
20001bac:	429a      	cmp	r2, r3
20001bae:	dc33      	bgt.n	20001c18 <start_stop_buttons+0x128>
				if ((y > REDBUTTON_Y) && (y <= (REDBUTTON_Y + REDBUTTON_H))) {
20001bb0:	693b      	ldr	r3, [r7, #16]
20001bb2:	2b78      	cmp	r3, #120	; 0x78
20001bb4:	dd32      	ble.n	20001c1c <start_stop_buttons+0x12c>
20001bb6:	693b      	ldr	r3, [r7, #16]
20001bb8:	2bf0      	cmp	r3, #240	; 0xf0
20001bba:	dc31      	bgt.n	20001c20 <start_stop_buttons+0x130>
					printf("RED BUTTON HIT\n\r");
20001bbc:	f64a 3020 	movw	r0, #43808	; 0xab20
20001bc0:	f2c2 0000 	movt	r0, #8192	; 0x2000
20001bc4:	f002 fee6 	bl	20004994 <printf>
				  redBtn(print);
20001bc8:	f24b 3378 	movw	r3, #45944	; 0xb378
20001bcc:	f2c2 0300 	movt	r3, #8192	; 0x2000
20001bd0:	681b      	ldr	r3, [r3, #0]
20001bd2:	4618      	mov	r0, r3
20001bd4:	f7ff fcc4 	bl	20001560 <redBtn>
20001bd8:	e023      	b.n	20001c22 <start_stop_buttons+0x132>
				}
			  }
			}
			else //Record is off (MovementOn == false)
			{
			  if((x > GREENBUTTON_X) && (x < (GREENBUTTON_X + GREENBUTTON_W))) {
20001bda:	697b      	ldr	r3, [r7, #20]
20001bdc:	2bb4      	cmp	r3, #180	; 0xb4
20001bde:	dd20      	ble.n	20001c22 <start_stop_buttons+0x132>
20001be0:	697a      	ldr	r2, [r7, #20]
20001be2:	f240 133f 	movw	r3, #319	; 0x13f
20001be6:	429a      	cmp	r2, r3
20001be8:	dc1b      	bgt.n	20001c22 <start_stop_buttons+0x132>
				if ((y > GREENBUTTON_Y) && (y <= (GREENBUTTON_Y + GREENBUTTON_H))) {
20001bea:	693b      	ldr	r3, [r7, #16]
20001bec:	2b00      	cmp	r3, #0
20001bee:	dd18      	ble.n	20001c22 <start_stop_buttons+0x132>
20001bf0:	693b      	ldr	r3, [r7, #16]
20001bf2:	2b78      	cmp	r3, #120	; 0x78
20001bf4:	dc15      	bgt.n	20001c22 <start_stop_buttons+0x132>
					printf("GREEN BUTTON HIT\n\r");
20001bf6:	f64a 3034 	movw	r0, #43828	; 0xab34
20001bfa:	f2c2 0000 	movt	r0, #8192	; 0x2000
20001bfe:	f002 fec9 	bl	20004994 <printf>
				  greenBtn(print);
20001c02:	f24b 3378 	movw	r3, #45944	; 0xb378
20001c06:	f2c2 0300 	movt	r3, #8192	; 0x2000
20001c0a:	681b      	ldr	r3, [r3, #0]
20001c0c:	4618      	mov	r0, r3
20001c0e:	f7ff fd11 	bl	20001634 <greenBtn>
20001c12:	e006      	b.n	20001c22 <start_stop_buttons+0x132>
		if (MovementOn)
			{
			  if((x > REDBUTTON_X) && (x < (REDBUTTON_X + REDBUTTON_W))) {
				if ((y > REDBUTTON_Y) && (y <= (REDBUTTON_Y + REDBUTTON_H))) {
					printf("RED BUTTON HIT\n\r");
				  redBtn(print);
20001c14:	bf00      	nop
20001c16:	e004      	b.n	20001c22 <start_stop_buttons+0x132>
20001c18:	bf00      	nop
20001c1a:	e002      	b.n	20001c22 <start_stop_buttons+0x132>
20001c1c:	bf00      	nop
20001c1e:	e000      	b.n	20001c22 <start_stop_buttons+0x132>
20001c20:	bf00      	nop
					printf("GREEN BUTTON HIT\n\r");
				  greenBtn(print);
				}
			  }
			}
		free(p);
20001c22:	68f8      	ldr	r0, [r7, #12]
20001c24:	f002 fb66 	bl	200042f4 <free>
	}

}
20001c28:	f107 0718 	add.w	r7, r7, #24
20001c2c:	46bd      	mov	sp, r7
20001c2e:	bd80      	pop	{r7, pc}

20001c30 <mode_buttons>:

void mode_buttons(struct Adafruit_FT6206 * ts) {
20001c30:	b580      	push	{r7, lr}
20001c32:	b088      	sub	sp, #32
20001c34:	af02      	add	r7, sp, #8
20001c36:	6078      	str	r0, [r7, #4]
	if (touched(ts)){
20001c38:	6878      	ldr	r0, [r7, #4]
20001c3a:	f7fe fc45 	bl	200004c8 <touched>
20001c3e:	4603      	mov	r3, r0
20001c40:	2b00      	cmp	r3, #0
20001c42:	f000 808d 	beq.w	20001d60 <mode_buttons+0x130>
		struct TS_Point * p;
		p = (struct TS_Point *) malloc(sizeof(struct TS_Point));
20001c46:	f04f 0006 	mov.w	r0, #6
20001c4a:	f002 fb5b 	bl	20004304 <malloc>
20001c4e:	4603      	mov	r3, r0
20001c50:	60fb      	str	r3, [r7, #12]
		p = getPoint(ts);
20001c52:	6878      	ldr	r0, [r7, #4]
20001c54:	f7fe fd70 	bl	20000738 <getPoint>
20001c58:	4603      	mov	r3, r0
20001c5a:	60fb      	str	r3, [r7, #12]

		p->x = map(p->x, 0, 240, 240, 0);
20001c5c:	68fb      	ldr	r3, [r7, #12]
20001c5e:	881b      	ldrh	r3, [r3, #0]
20001c60:	b21b      	sxth	r3, r3
20001c62:	f04f 0200 	mov.w	r2, #0
20001c66:	9200      	str	r2, [sp, #0]
20001c68:	4618      	mov	r0, r3
20001c6a:	f04f 0100 	mov.w	r1, #0
20001c6e:	f04f 02f0 	mov.w	r2, #240	; 0xf0
20001c72:	f04f 03f0 	mov.w	r3, #240	; 0xf0
20001c76:	f7ff fc53 	bl	20001520 <map>
20001c7a:	4603      	mov	r3, r0
20001c7c:	b29a      	uxth	r2, r3
20001c7e:	68fb      	ldr	r3, [r7, #12]
20001c80:	801a      	strh	r2, [r3, #0]
		p->y = map(p->y, 0, 320, 320, 0);
20001c82:	68fb      	ldr	r3, [r7, #12]
20001c84:	885b      	ldrh	r3, [r3, #2]
20001c86:	b21b      	sxth	r3, r3
20001c88:	f04f 0200 	mov.w	r2, #0
20001c8c:	9200      	str	r2, [sp, #0]
20001c8e:	4618      	mov	r0, r3
20001c90:	f04f 0100 	mov.w	r1, #0
20001c94:	f44f 72a0 	mov.w	r2, #320	; 0x140
20001c98:	f44f 73a0 	mov.w	r3, #320	; 0x140
20001c9c:	f7ff fc40 	bl	20001520 <map>
20001ca0:	4603      	mov	r3, r0
20001ca2:	b29a      	uxth	r2, r3
20001ca4:	68fb      	ldr	r3, [r7, #12]
20001ca6:	805a      	strh	r2, [r3, #2]
//			int y =  height(print) - p->x;;
//			int x = p->y;
		int y = height(print) - p->x;
20001ca8:	f24b 3378 	movw	r3, #45944	; 0xb378
20001cac:	f2c2 0300 	movt	r3, #8192	; 0x2000
20001cb0:	681b      	ldr	r3, [r3, #0]
20001cb2:	4618      	mov	r0, r3
20001cb4:	f7ff f854 	bl	20000d60 <height>
20001cb8:	4603      	mov	r3, r0
20001cba:	b29b      	uxth	r3, r3
20001cbc:	b21a      	sxth	r2, r3
20001cbe:	68fb      	ldr	r3, [r7, #12]
20001cc0:	881b      	ldrh	r3, [r3, #0]
20001cc2:	b21b      	sxth	r3, r3
20001cc4:	ebc3 0302 	rsb	r3, r3, r2
20001cc8:	613b      	str	r3, [r7, #16]
		int x = p->y;
20001cca:	68fb      	ldr	r3, [r7, #12]
20001ccc:	885b      	ldrh	r3, [r3, #2]
20001cce:	b21b      	sxth	r3, r3
20001cd0:	617b      	str	r3, [r7, #20]

		if (N64ControlOn)
20001cd2:	f24b 3338 	movw	r3, #45880	; 0xb338
20001cd6:	f2c2 0300 	movt	r3, #8192	; 0x2000
20001cda:	681b      	ldr	r3, [r3, #0]
20001cdc:	2b00      	cmp	r3, #0
20001cde:	d01a      	beq.n	20001d16 <mode_buttons+0xe6>
			{
			  if((x > LINEBUTTON_X) && (x < (LINEBUTTON_X + LINEBUTTON_W))) {
20001ce0:	697b      	ldr	r3, [r7, #20]
20001ce2:	2b0a      	cmp	r3, #10
20001ce4:	dd32      	ble.n	20001d4c <mode_buttons+0x11c>
20001ce6:	697b      	ldr	r3, [r7, #20]
20001ce8:	2b95      	cmp	r3, #149	; 0x95
20001cea:	dc31      	bgt.n	20001d50 <mode_buttons+0x120>
				if ((y > LINEBUTTON_Y) && (y <= (LINEBUTTON_Y + LINEBUTTON_H))) {
20001cec:	693b      	ldr	r3, [r7, #16]
20001cee:	2b78      	cmp	r3, #120	; 0x78
20001cf0:	dd30      	ble.n	20001d54 <mode_buttons+0x124>
20001cf2:	693b      	ldr	r3, [r7, #16]
20001cf4:	2bf0      	cmp	r3, #240	; 0xf0
20001cf6:	dc2f      	bgt.n	20001d58 <mode_buttons+0x128>
					printf("LINE BUTTON HIT\n\r");
20001cf8:	f64a 3048 	movw	r0, #43848	; 0xab48
20001cfc:	f2c2 0000 	movt	r0, #8192	; 0x2000
20001d00:	f002 fe48 	bl	20004994 <printf>
				  linebutton(print);
20001d04:	f24b 3378 	movw	r3, #45944	; 0xb378
20001d08:	f2c2 0300 	movt	r3, #8192	; 0x2000
20001d0c:	681b      	ldr	r3, [r3, #0]
20001d0e:	4618      	mov	r0, r3
20001d10:	f7ff fcfa 	bl	20001708 <linebutton>
20001d14:	e021      	b.n	20001d5a <mode_buttons+0x12a>
				}
			  }
			}
			else //Record is off (MovementOn == false)
			{
			  if((x > N64BUTTON_X) && (x < (N64BUTTON_X + N64BUTTON_W))) {
20001d16:	697b      	ldr	r3, [r7, #20]
20001d18:	2b0a      	cmp	r3, #10
20001d1a:	dd1e      	ble.n	20001d5a <mode_buttons+0x12a>
20001d1c:	697b      	ldr	r3, [r7, #20]
20001d1e:	2b95      	cmp	r3, #149	; 0x95
20001d20:	dc1b      	bgt.n	20001d5a <mode_buttons+0x12a>
				if ((y > N64BUTTON_Y) && (y <= (N64BUTTON_Y + N64BUTTON_H))) {
20001d22:	693b      	ldr	r3, [r7, #16]
20001d24:	2b00      	cmp	r3, #0
20001d26:	dd18      	ble.n	20001d5a <mode_buttons+0x12a>
20001d28:	693b      	ldr	r3, [r7, #16]
20001d2a:	2b78      	cmp	r3, #120	; 0x78
20001d2c:	dc15      	bgt.n	20001d5a <mode_buttons+0x12a>
					printf("N64 BUTTON HIT\n\r");
20001d2e:	f64a 305c 	movw	r0, #43868	; 0xab5c
20001d32:	f2c2 0000 	movt	r0, #8192	; 0x2000
20001d36:	f002 fe2d 	bl	20004994 <printf>
				  n64button(print);
20001d3a:	f24b 3378 	movw	r3, #45944	; 0xb378
20001d3e:	f2c2 0300 	movt	r3, #8192	; 0x2000
20001d42:	681b      	ldr	r3, [r3, #0]
20001d44:	4618      	mov	r0, r3
20001d46:	f7ff fdd9 	bl	200018fc <n64button>
20001d4a:	e006      	b.n	20001d5a <mode_buttons+0x12a>
		if (N64ControlOn)
			{
			  if((x > LINEBUTTON_X) && (x < (LINEBUTTON_X + LINEBUTTON_W))) {
				if ((y > LINEBUTTON_Y) && (y <= (LINEBUTTON_Y + LINEBUTTON_H))) {
					printf("LINE BUTTON HIT\n\r");
				  linebutton(print);
20001d4c:	bf00      	nop
20001d4e:	e004      	b.n	20001d5a <mode_buttons+0x12a>
20001d50:	bf00      	nop
20001d52:	e002      	b.n	20001d5a <mode_buttons+0x12a>
20001d54:	bf00      	nop
20001d56:	e000      	b.n	20001d5a <mode_buttons+0x12a>
20001d58:	bf00      	nop
					printf("N64 BUTTON HIT\n\r");
				  n64button(print);
				}
			  }
			}
		free(p);
20001d5a:	68f8      	ldr	r0, [r7, #12]
20001d5c:	f002 faca 	bl	200042f4 <free>
	}
}
20001d60:	f107 0718 	add.w	r7, r7, #24
20001d64:	46bd      	mov	sp, r7
20001d66:	bd80      	pop	{r7, pc}

20001d68 <config_spi>:

void config_spi(void) {
20001d68:	b580      	push	{r7, lr}
20001d6a:	b082      	sub	sp, #8
20001d6c:	af02      	add	r7, sp, #8
	MSS_SPI_init( &g_mss_spi1 );
20001d6e:	f24b 30d0 	movw	r0, #46032	; 0xb3d0
20001d72:	f2c2 0000 	movt	r0, #8192	; 0x2000
20001d76:	f000 fcb3 	bl	200026e0 <MSS_SPI_init>
		MSS_SPI_configure_master_mode
20001d7a:	f04f 0308 	mov.w	r3, #8
20001d7e:	9300      	str	r3, [sp, #0]
20001d80:	f24b 30d0 	movw	r0, #46032	; 0xb3d0
20001d84:	f2c2 0000 	movt	r0, #8192	; 0x2000
20001d88:	f04f 0100 	mov.w	r1, #0
20001d8c:	f04f 0200 	mov.w	r2, #0
20001d90:	f04f 0302 	mov.w	r3, #2
20001d94:	f000 fdee 	bl	20002974 <MSS_SPI_configure_master_mode>
		    MSS_SPI_SLAVE_0,
		    MSS_SPI_MODE0,
		    MSS_SPI_PCLK_DIV_8,
		    MSS_SPI_BLOCK_TRANSFER_FRAME_SIZE
		);
		MSS_SPI_configure_master_mode
20001d98:	f04f 0308 	mov.w	r3, #8
20001d9c:	9300      	str	r3, [sp, #0]
20001d9e:	f24b 30d0 	movw	r0, #46032	; 0xb3d0
20001da2:	f2c2 0000 	movt	r0, #8192	; 0x2000
20001da6:	f04f 0101 	mov.w	r1, #1
20001daa:	f04f 0200 	mov.w	r2, #0
20001dae:	f04f 0302 	mov.w	r3, #2
20001db2:	f000 fddf 	bl	20002974 <MSS_SPI_configure_master_mode>
			    MSS_SPI_MODE0,
			    MSS_SPI_PCLK_DIV_8,
			    MSS_SPI_BLOCK_TRANSFER_FRAME_SIZE
			);

}
20001db6:	46bd      	mov	sp, r7
20001db8:	bd80      	pop	{r7, pc}
20001dba:	bf00      	nop

20001dbc <setup_screen>:

void setup_screen(struct Print * print, struct Adafruit_FT6206 * ts) {
20001dbc:	b580      	push	{r7, lr}
20001dbe:	b086      	sub	sp, #24
20001dc0:	af04      	add	r7, sp, #16
20001dc2:	6078      	str	r0, [r7, #4]
20001dc4:	6039      	str	r1, [r7, #0]
	begin(print);
20001dc6:	6878      	ldr	r0, [r7, #4]
20001dc8:	f7ff f84a 	bl	20000e60 <begin>
	ts_begin(ts, FT6206_DEFAULT_THRESSHOLD);
20001dcc:	6838      	ldr	r0, [r7, #0]
20001dce:	f04f 0180 	mov.w	r1, #128	; 0x80
20001dd2:	f7fe fb65 	bl	200004a0 <ts_begin>
	fillScreen(print, ILI9341_BLACK);
20001dd6:	6878      	ldr	r0, [r7, #4]
20001dd8:	f04f 0100 	mov.w	r1, #0
20001ddc:	f7fe fd4e 	bl	2000087c <fillScreen>
	setRotation(print, 1);
20001de0:	6878      	ldr	r0, [r7, #4]
20001de2:	f04f 0101 	mov.w	r1, #1
20001de6:	f7ff f9b7 	bl	20001158 <setRotation>

	fillRoundRect(print, GREENBUTTON_X, GREENBUTTON_Y, GREENBUTTON_W, GREENBUTTON_H, GREENBUTTON_W/8, ILI9341_GREEN);
20001dea:	f04f 0378 	mov.w	r3, #120	; 0x78
20001dee:	9300      	str	r3, [sp, #0]
20001df0:	f04f 0311 	mov.w	r3, #17
20001df4:	9301      	str	r3, [sp, #4]
20001df6:	f44f 63fc 	mov.w	r3, #2016	; 0x7e0
20001dfa:	9302      	str	r3, [sp, #8]
20001dfc:	6878      	ldr	r0, [r7, #4]
20001dfe:	f04f 01b4 	mov.w	r1, #180	; 0xb4
20001e02:	f04f 0200 	mov.w	r2, #0
20001e06:	f04f 038c 	mov.w	r3, #140	; 0x8c
20001e0a:	f7fe fe1f 	bl	20000a4c <fillRoundRect>
	fillRoundRect(print, REDBUTTON_X, REDBUTTON_Y, REDBUTTON_W, REDBUTTON_H,REDBUTTON_W/8, ILI9341_RED);
20001e0e:	f04f 0378 	mov.w	r3, #120	; 0x78
20001e12:	9300      	str	r3, [sp, #0]
20001e14:	f04f 0311 	mov.w	r3, #17
20001e18:	9301      	str	r3, [sp, #4]
20001e1a:	f44f 4378 	mov.w	r3, #63488	; 0xf800
20001e1e:	9302      	str	r3, [sp, #8]
20001e20:	6878      	ldr	r0, [r7, #4]
20001e22:	f04f 01b4 	mov.w	r1, #180	; 0xb4
20001e26:	f04f 0278 	mov.w	r2, #120	; 0x78
20001e2a:	f04f 038c 	mov.w	r3, #140	; 0x8c
20001e2e:	f7fe fe0d 	bl	20000a4c <fillRoundRect>
	//fillRoundRect(print, N64BUTTON_X, N64BUTTON_Y, N64BUTTON_W, N64BUTTON_H,N64BUTTON_W/8, ILI9341_BLUE);
	//fillRoundRect(print, LINEBUTTON_X, LINEBUTTON_Y, LINEBUTTON_W, LINEBUTTON_H,LINEBUTTON_W/8, ILI9341_MAGENTA);
	redBtn(print);
20001e32:	6878      	ldr	r0, [r7, #4]
20001e34:	f7ff fb94 	bl	20001560 <redBtn>
	n64button(print);
20001e38:	6878      	ldr	r0, [r7, #4]
20001e3a:	f7ff fd5f 	bl	200018fc <n64button>
}
20001e3e:	f107 0708 	add.w	r7, r7, #8
20001e42:	46bd      	mov	sp, r7
20001e44:	bd80      	pop	{r7, pc}
20001e46:	bf00      	nop

20001e48 <main>:

int main()
{
20001e48:	b580      	push	{r7, lr}
20001e4a:	b082      	sub	sp, #8
20001e4c:	af00      	add	r7, sp, #0
	print = (struct Print *) malloc(sizeof(struct Print));
20001e4e:	f04f 0020 	mov.w	r0, #32
20001e52:	f002 fa57 	bl	20004304 <malloc>
20001e56:	4603      	mov	r3, r0
20001e58:	461a      	mov	r2, r3
20001e5a:	f24b 3378 	movw	r3, #45944	; 0xb378
20001e5e:	f2c2 0300 	movt	r3, #8192	; 0x2000
20001e62:	601a      	str	r2, [r3, #0]
	print->HEIGHT = ILI9341_TFTHEIGHT;
20001e64:	f24b 3378 	movw	r3, #45944	; 0xb378
20001e68:	f2c2 0300 	movt	r3, #8192	; 0x2000
20001e6c:	681b      	ldr	r3, [r3, #0]
20001e6e:	f44f 72a0 	mov.w	r2, #320	; 0x140
20001e72:	805a      	strh	r2, [r3, #2]
	print->WIDTH = ILI9341_TFTWIDTH;
20001e74:	f24b 3378 	movw	r3, #45944	; 0xb378
20001e78:	f2c2 0300 	movt	r3, #8192	; 0x2000
20001e7c:	681b      	ldr	r3, [r3, #0]
20001e7e:	f04f 02f0 	mov.w	r2, #240	; 0xf0
20001e82:	801a      	strh	r2, [r3, #0]

	ts = (struct Adafruit_FT6206 *) malloc(sizeof(struct Adafruit_FT6206));
20001e84:	f04f 000e 	mov.w	r0, #14
20001e88:	f002 fa3c 	bl	20004304 <malloc>
20001e8c:	4603      	mov	r3, r0
20001e8e:	461a      	mov	r2, r3
20001e90:	f24b 337c 	movw	r3, #45948	; 0xb37c
20001e94:	f2c2 0300 	movt	r3, #8192	; 0x2000
20001e98:	601a      	str	r2, [r3, #0]

	config_spi();
20001e9a:	f7ff ff65 	bl	20001d68 <config_spi>
	setup_screen(print, ts);
20001e9e:	f24b 3378 	movw	r3, #45944	; 0xb378
20001ea2:	f2c2 0300 	movt	r3, #8192	; 0x2000
20001ea6:	681a      	ldr	r2, [r3, #0]
20001ea8:	f24b 337c 	movw	r3, #45948	; 0xb37c
20001eac:	f2c2 0300 	movt	r3, #8192	; 0x2000
20001eb0:	681b      	ldr	r3, [r3, #0]
20001eb2:	4610      	mov	r0, r2
20001eb4:	4619      	mov	r1, r3
20001eb6:	f7ff ff81 	bl	20001dbc <setup_screen>

	while(1) {
		start_stop_buttons(ts);
20001eba:	f24b 337c 	movw	r3, #45948	; 0xb37c
20001ebe:	f2c2 0300 	movt	r3, #8192	; 0x2000
20001ec2:	681b      	ldr	r3, [r3, #0]
20001ec4:	4618      	mov	r0, r3
20001ec6:	f7ff fe13 	bl	20001af0 <start_stop_buttons>
		uint8_t startStop = MovementOn ? 1:0; //1 -> on (go), 0 -> off (stop)
20001eca:	f24b 3334 	movw	r3, #45876	; 0xb334
20001ece:	f2c2 0300 	movt	r3, #8192	; 0x2000
20001ed2:	681b      	ldr	r3, [r3, #0]
20001ed4:	2b00      	cmp	r3, #0
20001ed6:	bf0c      	ite	eq
20001ed8:	2300      	moveq	r3, #0
20001eda:	2301      	movne	r3, #1
20001edc:	71fb      	strb	r3, [r7, #7]
		mode_buttons(ts);
20001ede:	f24b 337c 	movw	r3, #45948	; 0xb37c
20001ee2:	f2c2 0300 	movt	r3, #8192	; 0x2000
20001ee6:	681b      	ldr	r3, [r3, #0]
20001ee8:	4618      	mov	r0, r3
20001eea:	f7ff fea1 	bl	20001c30 <mode_buttons>
	}
20001eee:	e7e4      	b.n	20001eba <main+0x72>

20001ef0 <_close>:

/*==============================================================================
 * Close a file.
 */
int _close(int file)
{
20001ef0:	b480      	push	{r7}
20001ef2:	b083      	sub	sp, #12
20001ef4:	af00      	add	r7, sp, #0
20001ef6:	6078      	str	r0, [r7, #4]
    return -1;
20001ef8:	f04f 33ff 	mov.w	r3, #4294967295
}
20001efc:	4618      	mov	r0, r3
20001efe:	f107 070c 	add.w	r7, r7, #12
20001f02:	46bd      	mov	sp, r7
20001f04:	bc80      	pop	{r7}
20001f06:	4770      	bx	lr

20001f08 <_exit>:
{
	/* Should we force a system reset? */
	while( 1 )
	{
		;
	}
20001f08:	b480      	push	{r7}
20001f0a:	b083      	sub	sp, #12
20001f0c:	af00      	add	r7, sp, #0
20001f0e:	6078      	str	r0, [r7, #4]
20001f10:	e7fe      	b.n	20001f10 <_exit+0x8>
20001f12:	bf00      	nop

20001f14 <_fstat>:

/*==============================================================================
 * Status of an open file.
 */
int _fstat(int file, struct stat *st)
{
20001f14:	b480      	push	{r7}
20001f16:	b083      	sub	sp, #12
20001f18:	af00      	add	r7, sp, #0
20001f1a:	6078      	str	r0, [r7, #4]
20001f1c:	6039      	str	r1, [r7, #0]
    st->st_mode = S_IFCHR;
20001f1e:	683b      	ldr	r3, [r7, #0]
20001f20:	f44f 5200 	mov.w	r2, #8192	; 0x2000
20001f24:	605a      	str	r2, [r3, #4]
    return 0;
20001f26:	f04f 0300 	mov.w	r3, #0
}
20001f2a:	4618      	mov	r0, r3
20001f2c:	f107 070c 	add.w	r7, r7, #12
20001f30:	46bd      	mov	sp, r7
20001f32:	bc80      	pop	{r7}
20001f34:	4770      	bx	lr
20001f36:	bf00      	nop

20001f38 <_isatty>:

/*==============================================================================
 * Query whether output stream is a terminal.
 */
int _isatty(int file)
{
20001f38:	b480      	push	{r7}
20001f3a:	b083      	sub	sp, #12
20001f3c:	af00      	add	r7, sp, #0
20001f3e:	6078      	str	r0, [r7, #4]
    return 1;
20001f40:	f04f 0301 	mov.w	r3, #1
}
20001f44:	4618      	mov	r0, r3
20001f46:	f107 070c 	add.w	r7, r7, #12
20001f4a:	46bd      	mov	sp, r7
20001f4c:	bc80      	pop	{r7}
20001f4e:	4770      	bx	lr

20001f50 <_lseek>:

/*==============================================================================
 * Set position in a file.
 */
int _lseek(int file, int ptr, int dir)
{
20001f50:	b480      	push	{r7}
20001f52:	b085      	sub	sp, #20
20001f54:	af00      	add	r7, sp, #0
20001f56:	60f8      	str	r0, [r7, #12]
20001f58:	60b9      	str	r1, [r7, #8]
20001f5a:	607a      	str	r2, [r7, #4]
    return 0;
20001f5c:	f04f 0300 	mov.w	r3, #0
}
20001f60:	4618      	mov	r0, r3
20001f62:	f107 0714 	add.w	r7, r7, #20
20001f66:	46bd      	mov	sp, r7
20001f68:	bc80      	pop	{r7}
20001f6a:	4770      	bx	lr

20001f6c <_read>:

/*==============================================================================
 * Read from a file.
 */
int _read(int file, char *ptr, int len)
{
20001f6c:	b480      	push	{r7}
20001f6e:	b085      	sub	sp, #20
20001f70:	af00      	add	r7, sp, #0
20001f72:	60f8      	str	r0, [r7, #12]
20001f74:	60b9      	str	r1, [r7, #8]
20001f76:	607a      	str	r2, [r7, #4]
    return 0;
20001f78:	f04f 0300 	mov.w	r3, #0
}
20001f7c:	4618      	mov	r0, r3
20001f7e:	f107 0714 	add.w	r7, r7, #20
20001f82:	46bd      	mov	sp, r7
20001f84:	bc80      	pop	{r7}
20001f86:	4770      	bx	lr

20001f88 <_write_r>:
 * all files, including stdoutso if you need to generate any output, for
 * example to a serial port for debugging, you should make your minimal write
 * capable of doing this.
 */
int _write_r( void * reent, int file, char * ptr, int len )
{
20001f88:	b580      	push	{r7, lr}
20001f8a:	b084      	sub	sp, #16
20001f8c:	af00      	add	r7, sp, #0
20001f8e:	60f8      	str	r0, [r7, #12]
20001f90:	60b9      	str	r1, [r7, #8]
20001f92:	607a      	str	r2, [r7, #4]
20001f94:	603b      	str	r3, [r7, #0]
#ifdef ACTEL_STDIO_THRU_UART
    /*--------------------------------------------------------------------------
     * Initialize the UART driver if it is the first time this function is
     * called.
     */
    if ( !g_stdio_uart_init_done )
20001f96:	f24b 333c 	movw	r3, #45884	; 0xb33c
20001f9a:	f2c2 0300 	movt	r3, #8192	; 0x2000
20001f9e:	681b      	ldr	r3, [r3, #0]
20001fa0:	2b00      	cmp	r3, #0
20001fa2:	d110      	bne.n	20001fc6 <_write_r+0x3e>
    {
        MSS_UART_init( &g_mss_uart0, ACTEL_STDIO_BAUD_RATE, (MSS_UART_DATA_8_BITS | MSS_UART_NO_PARITY));
20001fa4:	f24b 30a8 	movw	r0, #45992	; 0xb3a8
20001fa8:	f2c2 0000 	movt	r0, #8192	; 0x2000
20001fac:	f44f 4161 	mov.w	r1, #57600	; 0xe100
20001fb0:	f04f 0203 	mov.w	r2, #3
20001fb4:	f000 f88a 	bl	200020cc <MSS_UART_init>
        g_stdio_uart_init_done = 1;
20001fb8:	f24b 333c 	movw	r3, #45884	; 0xb33c
20001fbc:	f2c2 0300 	movt	r3, #8192	; 0x2000
20001fc0:	f04f 0201 	mov.w	r2, #1
20001fc4:	601a      	str	r2, [r3, #0]
    }
    
    /*--------------------------------------------------------------------------
     * Output text to the UART.
     */
    MSS_UART_polled_tx( &g_mss_uart0, (uint8_t *)ptr, len );
20001fc6:	683b      	ldr	r3, [r7, #0]
20001fc8:	f24b 30a8 	movw	r0, #45992	; 0xb3a8
20001fcc:	f2c2 0000 	movt	r0, #8192	; 0x2000
20001fd0:	6879      	ldr	r1, [r7, #4]
20001fd2:	461a      	mov	r2, r3
20001fd4:	f000 f97c 	bl	200022d0 <MSS_UART_polled_tx>
    
    return len;
20001fd8:	683b      	ldr	r3, [r7, #0]
#else   /* ACTEL_STDIO_THRU_UART */
    return 0;
#endif  /* ACTEL_STDIO_THRU_UART */
}
20001fda:	4618      	mov	r0, r3
20001fdc:	f107 0710 	add.w	r7, r7, #16
20001fe0:	46bd      	mov	sp, r7
20001fe2:	bd80      	pop	{r7, pc}

20001fe4 <_sbrk>:
 * it is useful to have a working implementation. The following suffices for a
 * standalone system; it exploits the symbol _end automatically defined by the
 * GNU linker. 
 */
caddr_t _sbrk(int incr)
{
20001fe4:	b580      	push	{r7, lr}
20001fe6:	b084      	sub	sp, #16
20001fe8:	af00      	add	r7, sp, #0
20001fea:	6078      	str	r0, [r7, #4]
    extern char _end;		/* Defined by the linker */
    static char *heap_end;
    char *prev_heap_end;
    char * stack_ptr;
    
    if (heap_end == 0)
20001fec:	f24b 3340 	movw	r3, #45888	; 0xb340
20001ff0:	f2c2 0300 	movt	r3, #8192	; 0x2000
20001ff4:	681b      	ldr	r3, [r3, #0]
20001ff6:	2b00      	cmp	r3, #0
20001ff8:	d108      	bne.n	2000200c <_sbrk+0x28>
    {
      heap_end = &_end;
20001ffa:	f24b 3340 	movw	r3, #45888	; 0xb340
20001ffe:	f2c2 0300 	movt	r3, #8192	; 0x2000
20002002:	f24b 52c8 	movw	r2, #46536	; 0xb5c8
20002006:	f2c2 0200 	movt	r2, #8192	; 0x2000
2000200a:	601a      	str	r2, [r3, #0]
    }
    
    prev_heap_end = heap_end;
2000200c:	f24b 3340 	movw	r3, #45888	; 0xb340
20002010:	f2c2 0300 	movt	r3, #8192	; 0x2000
20002014:	681b      	ldr	r3, [r3, #0]
20002016:	60bb      	str	r3, [r7, #8]
    asm volatile ("MRS %0, msp" : "=r" (stack_ptr) );
20002018:	f3ef 8308 	mrs	r3, MSP
2000201c:	60fb      	str	r3, [r7, #12]
    if (heap_end + incr > stack_ptr)
2000201e:	f24b 3340 	movw	r3, #45888	; 0xb340
20002022:	f2c2 0300 	movt	r3, #8192	; 0x2000
20002026:	681a      	ldr	r2, [r3, #0]
20002028:	687b      	ldr	r3, [r7, #4]
2000202a:	441a      	add	r2, r3
2000202c:	68fb      	ldr	r3, [r7, #12]
2000202e:	429a      	cmp	r2, r3
20002030:	d90f      	bls.n	20002052 <_sbrk+0x6e>
    {
      _write_r ((void *)0, 1, "Heap and stack collision\n", 25);
20002032:	f04f 0000 	mov.w	r0, #0
20002036:	f04f 0101 	mov.w	r1, #1
2000203a:	f64a 3270 	movw	r2, #43888	; 0xab70
2000203e:	f2c2 0200 	movt	r2, #8192	; 0x2000
20002042:	f04f 0319 	mov.w	r3, #25
20002046:	f7ff ff9f 	bl	20001f88 <_write_r>
      _exit (1);
2000204a:	f04f 0001 	mov.w	r0, #1
2000204e:	f7ff ff5b 	bl	20001f08 <_exit>
    }
  
    heap_end += incr;
20002052:	f24b 3340 	movw	r3, #45888	; 0xb340
20002056:	f2c2 0300 	movt	r3, #8192	; 0x2000
2000205a:	681a      	ldr	r2, [r3, #0]
2000205c:	687b      	ldr	r3, [r7, #4]
2000205e:	441a      	add	r2, r3
20002060:	f24b 3340 	movw	r3, #45888	; 0xb340
20002064:	f2c2 0300 	movt	r3, #8192	; 0x2000
20002068:	601a      	str	r2, [r3, #0]
    return (caddr_t) prev_heap_end;
2000206a:	68bb      	ldr	r3, [r7, #8]
}
2000206c:	4618      	mov	r0, r3
2000206e:	f107 0710 	add.w	r7, r7, #16
20002072:	46bd      	mov	sp, r7
20002074:	bd80      	pop	{r7, pc}
20002076:	bf00      	nop

20002078 <_times>:

/*==============================================================================
 * Timing information for current process.
 */
int _times(struct tms *buf)
{
20002078:	b480      	push	{r7}
2000207a:	b083      	sub	sp, #12
2000207c:	af00      	add	r7, sp, #0
2000207e:	6078      	str	r0, [r7, #4]
    return -1;
20002080:	f04f 33ff 	mov.w	r3, #4294967295
}
20002084:	4618      	mov	r0, r3
20002086:	f107 070c 	add.w	r7, r7, #12
2000208a:	46bd      	mov	sp, r7
2000208c:	bc80      	pop	{r7}
2000208e:	4770      	bx	lr

20002090 <NVIC_ClearPendingIRQ>:
 *
 * Clear the pending bit for the specified interrupt. 
 * The interrupt number cannot be a negative value.
 */
static __INLINE void NVIC_ClearPendingIRQ(IRQn_Type IRQn)
{
20002090:	b480      	push	{r7}
20002092:	b083      	sub	sp, #12
20002094:	af00      	add	r7, sp, #0
20002096:	4603      	mov	r3, r0
20002098:	80fb      	strh	r3, [r7, #6]
  NVIC->ICPR[((uint32_t)(IRQn) >> 5)] = (1 << ((uint32_t)(IRQn) & 0x1F)); /* Clear pending interrupt */
2000209a:	f24e 1300 	movw	r3, #57600	; 0xe100
2000209e:	f2ce 0300 	movt	r3, #57344	; 0xe000
200020a2:	f9b7 2006 	ldrsh.w	r2, [r7, #6]
200020a6:	ea4f 1252 	mov.w	r2, r2, lsr #5
200020aa:	88f9      	ldrh	r1, [r7, #6]
200020ac:	f001 011f 	and.w	r1, r1, #31
200020b0:	f04f 0001 	mov.w	r0, #1
200020b4:	fa00 f101 	lsl.w	r1, r0, r1
200020b8:	f102 0260 	add.w	r2, r2, #96	; 0x60
200020bc:	f843 1022 	str.w	r1, [r3, r2, lsl #2]
}
200020c0:	f107 070c 	add.w	r7, r7, #12
200020c4:	46bd      	mov	sp, r7
200020c6:	bc80      	pop	{r7}
200020c8:	4770      	bx	lr
200020ca:	bf00      	nop

200020cc <MSS_UART_init>:
(
    mss_uart_instance_t* this_uart,
    uint32_t baud_rate,
    uint8_t line_config
)
{
200020cc:	b580      	push	{r7, lr}
200020ce:	b088      	sub	sp, #32
200020d0:	af00      	add	r7, sp, #0
200020d2:	60f8      	str	r0, [r7, #12]
200020d4:	60b9      	str	r1, [r7, #8]
200020d6:	4613      	mov	r3, r2
200020d8:	71fb      	strb	r3, [r7, #7]
    uint16_t baud_value = 1U;
200020da:	f04f 0301 	mov.w	r3, #1
200020de:	82fb      	strh	r3, [r7, #22]
    uint32_t pclk_freq = 0U;
200020e0:	f04f 0300 	mov.w	r3, #0
200020e4:	61bb      	str	r3, [r7, #24]
    uint32_t baud_value_l;

    /* The driver expects g_mss_uart0 and g_mss_uart1 to be the only
     * mss_uart_instance_t instances used to identify UART0 and UART1. */
    ASSERT( (this_uart == &g_mss_uart0) || (this_uart == &g_mss_uart1) );
200020e6:	68fa      	ldr	r2, [r7, #12]
200020e8:	f24b 33a8 	movw	r3, #45992	; 0xb3a8
200020ec:	f2c2 0300 	movt	r3, #8192	; 0x2000
200020f0:	429a      	cmp	r2, r3
200020f2:	d007      	beq.n	20002104 <MSS_UART_init+0x38>
200020f4:	68fa      	ldr	r2, [r7, #12]
200020f6:	f24b 3380 	movw	r3, #45952	; 0xb380
200020fa:	f2c2 0300 	movt	r3, #8192	; 0x2000
200020fe:	429a      	cmp	r2, r3
20002100:	d000      	beq.n	20002104 <MSS_UART_init+0x38>
20002102:	be00      	bkpt	0x0000

    /* baud_rate should be greater than 0 */
    ASSERT( 0U < baud_rate );
20002104:	68bb      	ldr	r3, [r7, #8]
20002106:	2b00      	cmp	r3, #0
20002108:	d100      	bne.n	2000210c <MSS_UART_init+0x40>
2000210a:	be00      	bkpt	0x0000

    /* Force the value of the CMSIS global variables holding the various system
     * clock frequencies to be updated. */
    SystemCoreClockUpdate();
2000210c:	f001 ff98 	bl	20004040 <SystemCoreClockUpdate>

    if ( this_uart == &g_mss_uart0 )
20002110:	68fa      	ldr	r2, [r7, #12]
20002112:	f24b 33a8 	movw	r3, #45992	; 0xb3a8
20002116:	f2c2 0300 	movt	r3, #8192	; 0x2000
2000211a:	429a      	cmp	r2, r3
2000211c:	d12e      	bne.n	2000217c <MSS_UART_init+0xb0>
    {
        this_uart->hw_reg = UART0;
2000211e:	68fb      	ldr	r3, [r7, #12]
20002120:	f04f 4280 	mov.w	r2, #1073741824	; 0x40000000
20002124:	601a      	str	r2, [r3, #0]
        this_uart->hw_reg_bit = UART0_BITBAND;
20002126:	68fb      	ldr	r3, [r7, #12]
20002128:	f04f 4284 	mov.w	r2, #1107296256	; 0x42000000
2000212c:	605a      	str	r2, [r3, #4]
        this_uart->irqn = UART0_IRQn;
2000212e:	68fb      	ldr	r3, [r7, #12]
20002130:	f04f 020a 	mov.w	r2, #10
20002134:	811a      	strh	r2, [r3, #8]

        pclk_freq = g_FrequencyPCLK0;
20002136:	f64a 631c 	movw	r3, #44572	; 0xae1c
2000213a:	f2c2 0300 	movt	r3, #8192	; 0x2000
2000213e:	681b      	ldr	r3, [r3, #0]
20002140:	61bb      	str	r3, [r7, #24]

        /* reset UART0 */
        SYSREG->SOFT_RST_CR |= SYSREG_UART0_SOFTRESET_MASK;
20002142:	f242 0300 	movw	r3, #8192	; 0x2000
20002146:	f2ce 0304 	movt	r3, #57348	; 0xe004
2000214a:	f242 0200 	movw	r2, #8192	; 0x2000
2000214e:	f2ce 0204 	movt	r2, #57348	; 0xe004
20002152:	6b12      	ldr	r2, [r2, #48]	; 0x30
20002154:	f042 0280 	orr.w	r2, r2, #128	; 0x80
20002158:	631a      	str	r2, [r3, #48]	; 0x30
        /* Clear any previously pended UART0 interrupt */
        NVIC_ClearPendingIRQ( UART0_IRQn );
2000215a:	f04f 000a 	mov.w	r0, #10
2000215e:	f7ff ff97 	bl	20002090 <NVIC_ClearPendingIRQ>
        /* Take UART0 out of reset. */
        SYSREG->SOFT_RST_CR &= ~SYSREG_UART0_SOFTRESET_MASK;
20002162:	f242 0300 	movw	r3, #8192	; 0x2000
20002166:	f2ce 0304 	movt	r3, #57348	; 0xe004
2000216a:	f242 0200 	movw	r2, #8192	; 0x2000
2000216e:	f2ce 0204 	movt	r2, #57348	; 0xe004
20002172:	6b12      	ldr	r2, [r2, #48]	; 0x30
20002174:	f022 0280 	bic.w	r2, r2, #128	; 0x80
20002178:	631a      	str	r2, [r3, #48]	; 0x30
2000217a:	e031      	b.n	200021e0 <MSS_UART_init+0x114>
    }
    else
    {
        this_uart->hw_reg = UART1;
2000217c:	68fa      	ldr	r2, [r7, #12]
2000217e:	f240 0300 	movw	r3, #0
20002182:	f2c4 0301 	movt	r3, #16385	; 0x4001
20002186:	6013      	str	r3, [r2, #0]
        this_uart->hw_reg_bit = UART1_BITBAND;
20002188:	68fa      	ldr	r2, [r7, #12]
2000218a:	f240 0300 	movw	r3, #0
2000218e:	f2c4 2320 	movt	r3, #16928	; 0x4220
20002192:	6053      	str	r3, [r2, #4]
        this_uart->irqn = UART1_IRQn;
20002194:	68fb      	ldr	r3, [r7, #12]
20002196:	f04f 020b 	mov.w	r2, #11
2000219a:	811a      	strh	r2, [r3, #8]

        pclk_freq = g_FrequencyPCLK1;
2000219c:	f64a 6320 	movw	r3, #44576	; 0xae20
200021a0:	f2c2 0300 	movt	r3, #8192	; 0x2000
200021a4:	681b      	ldr	r3, [r3, #0]
200021a6:	61bb      	str	r3, [r7, #24]

        /* Reset UART1 */
        SYSREG->SOFT_RST_CR |= SYSREG_UART1_SOFTRESET_MASK;
200021a8:	f242 0300 	movw	r3, #8192	; 0x2000
200021ac:	f2ce 0304 	movt	r3, #57348	; 0xe004
200021b0:	f242 0200 	movw	r2, #8192	; 0x2000
200021b4:	f2ce 0204 	movt	r2, #57348	; 0xe004
200021b8:	6b12      	ldr	r2, [r2, #48]	; 0x30
200021ba:	f442 7280 	orr.w	r2, r2, #256	; 0x100
200021be:	631a      	str	r2, [r3, #48]	; 0x30
        /* Clear any previously pended UART1 interrupt */
        NVIC_ClearPendingIRQ( UART1_IRQn );
200021c0:	f04f 000b 	mov.w	r0, #11
200021c4:	f7ff ff64 	bl	20002090 <NVIC_ClearPendingIRQ>
        /* Take UART1 out of reset. */
        SYSREG->SOFT_RST_CR &= ~SYSREG_UART1_SOFTRESET_MASK;
200021c8:	f242 0300 	movw	r3, #8192	; 0x2000
200021cc:	f2ce 0304 	movt	r3, #57348	; 0xe004
200021d0:	f242 0200 	movw	r2, #8192	; 0x2000
200021d4:	f2ce 0204 	movt	r2, #57348	; 0xe004
200021d8:	6b12      	ldr	r2, [r2, #48]	; 0x30
200021da:	f422 7280 	bic.w	r2, r2, #256	; 0x100
200021de:	631a      	str	r2, [r3, #48]	; 0x30
    }

    /* disable interrupts */
    this_uart->hw_reg->IER = 0U;
200021e0:	68fb      	ldr	r3, [r7, #12]
200021e2:	681b      	ldr	r3, [r3, #0]
200021e4:	f04f 0200 	mov.w	r2, #0
200021e8:	711a      	strb	r2, [r3, #4]
     * The baud value is computed using the following equation:
     *      baud_value_l = PCLK_Frequency / (baud_rate * 16)
     * The baud value is rounded up or down depending on what would be the remainder
     * of the divide by 16 operation.
     */
    if( 0U < baud_rate )
200021ea:	68bb      	ldr	r3, [r7, #8]
200021ec:	2b00      	cmp	r3, #0
200021ee:	d021      	beq.n	20002234 <MSS_UART_init+0x168>
    {
        baud_value_l = (uint32_t)(pclk_freq / baud_rate);
200021f0:	69ba      	ldr	r2, [r7, #24]
200021f2:	68bb      	ldr	r3, [r7, #8]
200021f4:	fbb2 f3f3 	udiv	r3, r2, r3
200021f8:	61fb      	str	r3, [r7, #28]
        if( baud_value_l & 0x00000008U )
200021fa:	69fb      	ldr	r3, [r7, #28]
200021fc:	f003 0308 	and.w	r3, r3, #8
20002200:	2b00      	cmp	r3, #0
20002202:	d006      	beq.n	20002212 <MSS_UART_init+0x146>
        {
            /* remainder above 0.5 */
            baud_value_l = (baud_value_l >> 4U) + 1U;        
20002204:	69fb      	ldr	r3, [r7, #28]
20002206:	ea4f 1313 	mov.w	r3, r3, lsr #4
2000220a:	f103 0301 	add.w	r3, r3, #1
2000220e:	61fb      	str	r3, [r7, #28]
20002210:	e003      	b.n	2000221a <MSS_UART_init+0x14e>
        }
        else
        {
            /* remainder below 0.5 */
            baud_value_l = (baud_value_l >> 4U);
20002212:	69fb      	ldr	r3, [r7, #28]
20002214:	ea4f 1313 	mov.w	r3, r3, lsr #4
20002218:	61fb      	str	r3, [r7, #28]
        }
    
        /* Check if the baud rate is supported by the PCLK */
        ASSERT( baud_value_l <= UINT16_MAX);
2000221a:	69fa      	ldr	r2, [r7, #28]
2000221c:	f64f 73ff 	movw	r3, #65535	; 0xffff
20002220:	429a      	cmp	r2, r3
20002222:	d900      	bls.n	20002226 <MSS_UART_init+0x15a>
20002224:	be00      	bkpt	0x0000
        if( baud_value_l <= (uint32_t)UINT16_MAX)
20002226:	69fa      	ldr	r2, [r7, #28]
20002228:	f64f 73ff 	movw	r3, #65535	; 0xffff
2000222c:	429a      	cmp	r2, r3
2000222e:	d801      	bhi.n	20002234 <MSS_UART_init+0x168>
        {
            baud_value = (uint16_t)baud_value_l;
20002230:	69fb      	ldr	r3, [r7, #28]
20002232:	82fb      	strh	r3, [r7, #22]
        }
    }
    
    /* set divisor latch */
    this_uart->hw_reg_bit->LCR_DLAB = (uint32_t)1;
20002234:	68fb      	ldr	r3, [r7, #12]
20002236:	685b      	ldr	r3, [r3, #4]
20002238:	f04f 0201 	mov.w	r2, #1
2000223c:	f8c3 219c 	str.w	r2, [r3, #412]	; 0x19c

    /* msb of baud value */
    this_uart->hw_reg->DMR = (uint8_t)(baud_value >> 8);
20002240:	68fb      	ldr	r3, [r7, #12]
20002242:	681b      	ldr	r3, [r3, #0]
20002244:	8afa      	ldrh	r2, [r7, #22]
20002246:	ea4f 2212 	mov.w	r2, r2, lsr #8
2000224a:	b292      	uxth	r2, r2
2000224c:	b2d2      	uxtb	r2, r2
2000224e:	711a      	strb	r2, [r3, #4]
    /* lsb of baud value */
    this_uart->hw_reg->DLR = (uint8_t)baud_value;
20002250:	68fb      	ldr	r3, [r7, #12]
20002252:	681b      	ldr	r3, [r3, #0]
20002254:	8afa      	ldrh	r2, [r7, #22]
20002256:	b2d2      	uxtb	r2, r2
20002258:	701a      	strb	r2, [r3, #0]

    /* reset divisor latch */
    this_uart->hw_reg_bit->LCR_DLAB = (uint32_t)0;
2000225a:	68fb      	ldr	r3, [r7, #12]
2000225c:	685b      	ldr	r3, [r3, #4]
2000225e:	f04f 0200 	mov.w	r2, #0
20002262:	f8c3 219c 	str.w	r2, [r3, #412]	; 0x19c

    /* set the line control register (bit length, stop bits, parity) */
    this_uart->hw_reg->LCR = line_config;
20002266:	68fb      	ldr	r3, [r7, #12]
20002268:	681b      	ldr	r3, [r3, #0]
2000226a:	79fa      	ldrb	r2, [r7, #7]
2000226c:	731a      	strb	r2, [r3, #12]

    /* FIFO configuration */
    /* RX FIFO length = 1 byte, clear receiver FIFO, 
       clear transmitter FIFO, enable RXRDYN and TXRDYN pins. */
    this_uart->hw_reg->FCR = (uint8_t)MSS_UART_FIFO_SINGLE_BYTE | 
2000226e:	68fb      	ldr	r3, [r7, #12]
20002270:	681b      	ldr	r3, [r3, #0]
20002272:	f04f 020e 	mov.w	r2, #14
20002276:	721a      	strb	r2, [r3, #8]
                              FCR_CLEAR_RX_FIFO_MASK | FCR_CLEAR_TX_FIFO_MASK | 
                              FCR_ENABLE_TXRDY_RXRDY_MASK;
    /* disable loopback */
    this_uart->hw_reg_bit->MCR_LOOP = (uint32_t)0;
20002278:	68fb      	ldr	r3, [r7, #12]
2000227a:	685b      	ldr	r3, [r3, #4]
2000227c:	f04f 0200 	mov.w	r2, #0
20002280:	f8c3 2210 	str.w	r2, [r3, #528]	; 0x210

    /* Instance setup */
    this_uart->tx_buff_size = TX_COMPLETE;
20002284:	68fb      	ldr	r3, [r7, #12]
20002286:	f04f 0200 	mov.w	r2, #0
2000228a:	611a      	str	r2, [r3, #16]
    this_uart->tx_buffer = (const uint8_t *)0;
2000228c:	68fb      	ldr	r3, [r7, #12]
2000228e:	f04f 0200 	mov.w	r2, #0
20002292:	60da      	str	r2, [r3, #12]
    this_uart->tx_idx = 0U;
20002294:	68fb      	ldr	r3, [r7, #12]
20002296:	f04f 0200 	mov.w	r2, #0
2000229a:	615a      	str	r2, [r3, #20]

    /* Default handlers for MSS UART interrupts */
    this_uart->rx_handler       = NULL_HANDLER;
2000229c:	68fb      	ldr	r3, [r7, #12]
2000229e:	f04f 0200 	mov.w	r2, #0
200022a2:	61da      	str	r2, [r3, #28]
    this_uart->tx_handler       = default_tx_handler;
200022a4:	68fa      	ldr	r2, [r7, #12]
200022a6:	f242 43d1 	movw	r3, #9425	; 0x24d1
200022aa:	f2c2 0300 	movt	r3, #8192	; 0x2000
200022ae:	6213      	str	r3, [r2, #32]
    this_uart->linests_handler  = NULL_HANDLER;
200022b0:	68fb      	ldr	r3, [r7, #12]
200022b2:	f04f 0200 	mov.w	r2, #0
200022b6:	619a      	str	r2, [r3, #24]
    this_uart->modemsts_handler = NULL_HANDLER;
200022b8:	68fb      	ldr	r3, [r7, #12]
200022ba:	f04f 0200 	mov.w	r2, #0
200022be:	625a      	str	r2, [r3, #36]	; 0x24

    /* Initialize the sticky status */
    this_uart->status = 0U;
200022c0:	68fb      	ldr	r3, [r7, #12]
200022c2:	f04f 0200 	mov.w	r2, #0
200022c6:	729a      	strb	r2, [r3, #10]
}
200022c8:	f107 0720 	add.w	r7, r7, #32
200022cc:	46bd      	mov	sp, r7
200022ce:	bd80      	pop	{r7, pc}

200022d0 <MSS_UART_polled_tx>:
(
    mss_uart_instance_t * this_uart,
    const uint8_t * pbuff,
    uint32_t tx_size
)
{
200022d0:	b480      	push	{r7}
200022d2:	b089      	sub	sp, #36	; 0x24
200022d4:	af00      	add	r7, sp, #0
200022d6:	60f8      	str	r0, [r7, #12]
200022d8:	60b9      	str	r1, [r7, #8]
200022da:	607a      	str	r2, [r7, #4]
    uint32_t char_idx = 0U;
200022dc:	f04f 0300 	mov.w	r3, #0
200022e0:	613b      	str	r3, [r7, #16]
    uint32_t size_sent;
    uint8_t status;

    ASSERT( (this_uart == &g_mss_uart0) || (this_uart == &g_mss_uart1) );
200022e2:	68fa      	ldr	r2, [r7, #12]
200022e4:	f24b 33a8 	movw	r3, #45992	; 0xb3a8
200022e8:	f2c2 0300 	movt	r3, #8192	; 0x2000
200022ec:	429a      	cmp	r2, r3
200022ee:	d007      	beq.n	20002300 <MSS_UART_polled_tx+0x30>
200022f0:	68fa      	ldr	r2, [r7, #12]
200022f2:	f24b 3380 	movw	r3, #45952	; 0xb380
200022f6:	f2c2 0300 	movt	r3, #8192	; 0x2000
200022fa:	429a      	cmp	r2, r3
200022fc:	d000      	beq.n	20002300 <MSS_UART_polled_tx+0x30>
200022fe:	be00      	bkpt	0x0000
    ASSERT( pbuff != ( (uint8_t *)0 ) );
20002300:	68bb      	ldr	r3, [r7, #8]
20002302:	2b00      	cmp	r3, #0
20002304:	d100      	bne.n	20002308 <MSS_UART_polled_tx+0x38>
20002306:	be00      	bkpt	0x0000
    ASSERT( tx_size > 0U );
20002308:	687b      	ldr	r3, [r7, #4]
2000230a:	2b00      	cmp	r3, #0
2000230c:	d100      	bne.n	20002310 <MSS_UART_polled_tx+0x40>
2000230e:	be00      	bkpt	0x0000

    if( ( (this_uart == &g_mss_uart0) || (this_uart == &g_mss_uart1) ) &&
20002310:	68fa      	ldr	r2, [r7, #12]
20002312:	f24b 33a8 	movw	r3, #45992	; 0xb3a8
20002316:	f2c2 0300 	movt	r3, #8192	; 0x2000
2000231a:	429a      	cmp	r2, r3
2000231c:	d006      	beq.n	2000232c <MSS_UART_polled_tx+0x5c>
2000231e:	68fa      	ldr	r2, [r7, #12]
20002320:	f24b 3380 	movw	r3, #45952	; 0xb380
20002324:	f2c2 0300 	movt	r3, #8192	; 0x2000
20002328:	429a      	cmp	r2, r3
2000232a:	d13d      	bne.n	200023a8 <MSS_UART_polled_tx+0xd8>
2000232c:	68bb      	ldr	r3, [r7, #8]
2000232e:	2b00      	cmp	r3, #0
20002330:	d03a      	beq.n	200023a8 <MSS_UART_polled_tx+0xd8>
20002332:	687b      	ldr	r3, [r7, #4]
20002334:	2b00      	cmp	r3, #0
20002336:	d037      	beq.n	200023a8 <MSS_UART_polled_tx+0xd8>
         /* Remain in this loop until the entire input buffer
          * has been transferred to the UART.
          */
        do {
            /* Read the Line Status Register and update the sticky record */
            status = this_uart->hw_reg->LSR;
20002338:	68fb      	ldr	r3, [r7, #12]
2000233a:	681b      	ldr	r3, [r3, #0]
2000233c:	7d1b      	ldrb	r3, [r3, #20]
2000233e:	76fb      	strb	r3, [r7, #27]
            this_uart->status |= status;
20002340:	68fb      	ldr	r3, [r7, #12]
20002342:	7a9a      	ldrb	r2, [r3, #10]
20002344:	7efb      	ldrb	r3, [r7, #27]
20002346:	ea42 0303 	orr.w	r3, r2, r3
2000234a:	b2da      	uxtb	r2, r3
2000234c:	68fb      	ldr	r3, [r7, #12]
2000234e:	729a      	strb	r2, [r3, #10]

            /* Check if TX FIFO is empty. */
            if( status & MSS_UART_THRE )
20002350:	7efb      	ldrb	r3, [r7, #27]
20002352:	f003 0320 	and.w	r3, r3, #32
20002356:	2b00      	cmp	r3, #0
20002358:	d023      	beq.n	200023a2 <MSS_UART_polled_tx+0xd2>
            {
                uint32_t fill_size = TX_FIFO_SIZE;
2000235a:	f04f 0310 	mov.w	r3, #16
2000235e:	61fb      	str	r3, [r7, #28]

                /* Calculate the number of bytes to transmit. */
                if ( tx_size < TX_FIFO_SIZE )
20002360:	687b      	ldr	r3, [r7, #4]
20002362:	2b0f      	cmp	r3, #15
20002364:	d801      	bhi.n	2000236a <MSS_UART_polled_tx+0x9a>
                {
                    fill_size = tx_size;
20002366:	687b      	ldr	r3, [r7, #4]
20002368:	61fb      	str	r3, [r7, #28]
                }

                /* Fill the TX FIFO with the calculated the number of bytes. */
                for ( size_sent = 0U; size_sent < fill_size; ++size_sent )
2000236a:	f04f 0300 	mov.w	r3, #0
2000236e:	617b      	str	r3, [r7, #20]
20002370:	e00e      	b.n	20002390 <MSS_UART_polled_tx+0xc0>
                {
                    /* Send next character in the buffer. */
                    this_uart->hw_reg->THR = pbuff[char_idx++];
20002372:	68fb      	ldr	r3, [r7, #12]
20002374:	681b      	ldr	r3, [r3, #0]
20002376:	68b9      	ldr	r1, [r7, #8]
20002378:	693a      	ldr	r2, [r7, #16]
2000237a:	440a      	add	r2, r1
2000237c:	7812      	ldrb	r2, [r2, #0]
2000237e:	701a      	strb	r2, [r3, #0]
20002380:	693b      	ldr	r3, [r7, #16]
20002382:	f103 0301 	add.w	r3, r3, #1
20002386:	613b      	str	r3, [r7, #16]
                {
                    fill_size = tx_size;
                }

                /* Fill the TX FIFO with the calculated the number of bytes. */
                for ( size_sent = 0U; size_sent < fill_size; ++size_sent )
20002388:	697b      	ldr	r3, [r7, #20]
2000238a:	f103 0301 	add.w	r3, r3, #1
2000238e:	617b      	str	r3, [r7, #20]
20002390:	697a      	ldr	r2, [r7, #20]
20002392:	69fb      	ldr	r3, [r7, #28]
20002394:	429a      	cmp	r2, r3
20002396:	d3ec      	bcc.n	20002372 <MSS_UART_polled_tx+0xa2>
                    /* Send next character in the buffer. */
                    this_uart->hw_reg->THR = pbuff[char_idx++];
                }

                /* Calculate the number of untransmitted bytes remaining. */
                tx_size -= size_sent;
20002398:	687a      	ldr	r2, [r7, #4]
2000239a:	697b      	ldr	r3, [r7, #20]
2000239c:	ebc3 0302 	rsb	r3, r3, r2
200023a0:	607b      	str	r3, [r7, #4]
            }
        }while( tx_size );
200023a2:	687b      	ldr	r3, [r7, #4]
200023a4:	2b00      	cmp	r3, #0
200023a6:	d1c7      	bne.n	20002338 <MSS_UART_polled_tx+0x68>
    }
}
200023a8:	f107 0724 	add.w	r7, r7, #36	; 0x24
200023ac:	46bd      	mov	sp, r7
200023ae:	bc80      	pop	{r7}
200023b0:	4770      	bx	lr
200023b2:	bf00      	nop

200023b4 <MSS_UART_isr>:
static void
MSS_UART_isr
(
    mss_uart_instance_t * this_uart
)
{
200023b4:	b580      	push	{r7, lr}
200023b6:	b084      	sub	sp, #16
200023b8:	af00      	add	r7, sp, #0
200023ba:	6078      	str	r0, [r7, #4]
    uint8_t iirf;

    ASSERT( (this_uart == &g_mss_uart0) || (this_uart == &g_mss_uart1) );
200023bc:	687a      	ldr	r2, [r7, #4]
200023be:	f24b 33a8 	movw	r3, #45992	; 0xb3a8
200023c2:	f2c2 0300 	movt	r3, #8192	; 0x2000
200023c6:	429a      	cmp	r2, r3
200023c8:	d007      	beq.n	200023da <MSS_UART_isr+0x26>
200023ca:	687a      	ldr	r2, [r7, #4]
200023cc:	f24b 3380 	movw	r3, #45952	; 0xb380
200023d0:	f2c2 0300 	movt	r3, #8192	; 0x2000
200023d4:	429a      	cmp	r2, r3
200023d6:	d000      	beq.n	200023da <MSS_UART_isr+0x26>
200023d8:	be00      	bkpt	0x0000

    if ( (this_uart == &g_mss_uart0) || (this_uart == &g_mss_uart1) )
200023da:	687a      	ldr	r2, [r7, #4]
200023dc:	f24b 33a8 	movw	r3, #45992	; 0xb3a8
200023e0:	f2c2 0300 	movt	r3, #8192	; 0x2000
200023e4:	429a      	cmp	r2, r3
200023e6:	d006      	beq.n	200023f6 <MSS_UART_isr+0x42>
200023e8:	687a      	ldr	r2, [r7, #4]
200023ea:	f24b 3380 	movw	r3, #45952	; 0xb380
200023ee:	f2c2 0300 	movt	r3, #8192	; 0x2000
200023f2:	429a      	cmp	r2, r3
200023f4:	d167      	bne.n	200024c6 <MSS_UART_isr+0x112>
    {
        iirf = this_uart->hw_reg->IIR & IIRF_MASK;
200023f6:	687b      	ldr	r3, [r7, #4]
200023f8:	681b      	ldr	r3, [r3, #0]
200023fa:	7a1b      	ldrb	r3, [r3, #8]
200023fc:	b2db      	uxtb	r3, r3
200023fe:	f003 030f 	and.w	r3, r3, #15
20002402:	73fb      	strb	r3, [r7, #15]

        switch ( iirf )
20002404:	7bfb      	ldrb	r3, [r7, #15]
20002406:	2b0c      	cmp	r3, #12
20002408:	d854      	bhi.n	200024b4 <MSS_UART_isr+0x100>
2000240a:	a201      	add	r2, pc, #4	; (adr r2, 20002410 <MSS_UART_isr+0x5c>)
2000240c:	f852 f023 	ldr.w	pc, [r2, r3, lsl #2]
20002410:	20002445 	.word	0x20002445
20002414:	200024b5 	.word	0x200024b5
20002418:	20002461 	.word	0x20002461
2000241c:	200024b5 	.word	0x200024b5
20002420:	2000247d 	.word	0x2000247d
20002424:	200024b5 	.word	0x200024b5
20002428:	20002499 	.word	0x20002499
2000242c:	200024b5 	.word	0x200024b5
20002430:	200024b5 	.word	0x200024b5
20002434:	200024b5 	.word	0x200024b5
20002438:	200024b5 	.word	0x200024b5
2000243c:	200024b5 	.word	0x200024b5
20002440:	2000247d 	.word	0x2000247d
        {
            case IIRF_MODEM_STATUS:  /* Modem status interrupt */
            {
                ASSERT( NULL_HANDLER != this_uart->modemsts_handler );
20002444:	687b      	ldr	r3, [r7, #4]
20002446:	6a5b      	ldr	r3, [r3, #36]	; 0x24
20002448:	2b00      	cmp	r3, #0
2000244a:	d100      	bne.n	2000244e <MSS_UART_isr+0x9a>
2000244c:	be00      	bkpt	0x0000
                if( NULL_HANDLER != this_uart->modemsts_handler )
2000244e:	687b      	ldr	r3, [r7, #4]
20002450:	6a5b      	ldr	r3, [r3, #36]	; 0x24
20002452:	2b00      	cmp	r3, #0
20002454:	d030      	beq.n	200024b8 <MSS_UART_isr+0x104>
                {
                   (*(this_uart->modemsts_handler))( this_uart );
20002456:	687b      	ldr	r3, [r7, #4]
20002458:	6a5b      	ldr	r3, [r3, #36]	; 0x24
2000245a:	6878      	ldr	r0, [r7, #4]
2000245c:	4798      	blx	r3
                }
            }
            break;
2000245e:	e032      	b.n	200024c6 <MSS_UART_isr+0x112>

            case IIRF_THRE: /* Transmitter Holding Register Empty */
            {
                ASSERT( NULL_HANDLER != this_uart->tx_handler );
20002460:	687b      	ldr	r3, [r7, #4]
20002462:	6a1b      	ldr	r3, [r3, #32]
20002464:	2b00      	cmp	r3, #0
20002466:	d100      	bne.n	2000246a <MSS_UART_isr+0xb6>
20002468:	be00      	bkpt	0x0000
                if ( NULL_HANDLER != this_uart->tx_handler )
2000246a:	687b      	ldr	r3, [r7, #4]
2000246c:	6a1b      	ldr	r3, [r3, #32]
2000246e:	2b00      	cmp	r3, #0
20002470:	d024      	beq.n	200024bc <MSS_UART_isr+0x108>
                {
                    (*(this_uart->tx_handler))( this_uart );
20002472:	687b      	ldr	r3, [r7, #4]
20002474:	6a1b      	ldr	r3, [r3, #32]
20002476:	6878      	ldr	r0, [r7, #4]
20002478:	4798      	blx	r3
                }
            }
            break;
2000247a:	e024      	b.n	200024c6 <MSS_UART_isr+0x112>

            case IIRF_RX_DATA:      /* Received Data Available */
            case IIRF_DATA_TIMEOUT: /* Received Data Timed-out */
            {
                ASSERT( NULL_HANDLER != this_uart->rx_handler );
2000247c:	687b      	ldr	r3, [r7, #4]
2000247e:	69db      	ldr	r3, [r3, #28]
20002480:	2b00      	cmp	r3, #0
20002482:	d100      	bne.n	20002486 <MSS_UART_isr+0xd2>
20002484:	be00      	bkpt	0x0000
                if ( NULL_HANDLER != this_uart->rx_handler )
20002486:	687b      	ldr	r3, [r7, #4]
20002488:	69db      	ldr	r3, [r3, #28]
2000248a:	2b00      	cmp	r3, #0
2000248c:	d018      	beq.n	200024c0 <MSS_UART_isr+0x10c>
                {
                    (*(this_uart->rx_handler))( this_uart );
2000248e:	687b      	ldr	r3, [r7, #4]
20002490:	69db      	ldr	r3, [r3, #28]
20002492:	6878      	ldr	r0, [r7, #4]
20002494:	4798      	blx	r3
                }
            }
            break;
20002496:	e016      	b.n	200024c6 <MSS_UART_isr+0x112>

            case IIRF_RX_LINE_STATUS:  /* Line Status Interrupt */
            {
                ASSERT( NULL_HANDLER != this_uart->linests_handler );
20002498:	687b      	ldr	r3, [r7, #4]
2000249a:	699b      	ldr	r3, [r3, #24]
2000249c:	2b00      	cmp	r3, #0
2000249e:	d100      	bne.n	200024a2 <MSS_UART_isr+0xee>
200024a0:	be00      	bkpt	0x0000
                if ( NULL_HANDLER != this_uart->linests_handler )
200024a2:	687b      	ldr	r3, [r7, #4]
200024a4:	699b      	ldr	r3, [r3, #24]
200024a6:	2b00      	cmp	r3, #0
200024a8:	d00c      	beq.n	200024c4 <MSS_UART_isr+0x110>
                {
                   (*(this_uart->linests_handler))( this_uart );
200024aa:	687b      	ldr	r3, [r7, #4]
200024ac:	699b      	ldr	r3, [r3, #24]
200024ae:	6878      	ldr	r0, [r7, #4]
200024b0:	4798      	blx	r3
                }
            }
            break;
200024b2:	e008      	b.n	200024c6 <MSS_UART_isr+0x112>

            default:
            {
                ASSERT( INVALID_INTERRUPT );
200024b4:	be00      	bkpt	0x0000
200024b6:	e006      	b.n	200024c6 <MSS_UART_isr+0x112>
                if( NULL_HANDLER != this_uart->modemsts_handler )
                {
                   (*(this_uart->modemsts_handler))( this_uart );
                }
            }
            break;
200024b8:	bf00      	nop
200024ba:	e004      	b.n	200024c6 <MSS_UART_isr+0x112>
                if ( NULL_HANDLER != this_uart->tx_handler )
                {
                    (*(this_uart->tx_handler))( this_uart );
                }
            }
            break;
200024bc:	bf00      	nop
200024be:	e002      	b.n	200024c6 <MSS_UART_isr+0x112>
                if ( NULL_HANDLER != this_uart->rx_handler )
                {
                    (*(this_uart->rx_handler))( this_uart );
                }
            }
            break;
200024c0:	bf00      	nop
200024c2:	e000      	b.n	200024c6 <MSS_UART_isr+0x112>
                if ( NULL_HANDLER != this_uart->linests_handler )
                {
                   (*(this_uart->linests_handler))( this_uart );
                }
            }
            break;
200024c4:	bf00      	nop
                ASSERT( INVALID_INTERRUPT );
            }
            break;
        }
    }
}
200024c6:	f107 0710 	add.w	r7, r7, #16
200024ca:	46bd      	mov	sp, r7
200024cc:	bd80      	pop	{r7, pc}
200024ce:	bf00      	nop

200024d0 <default_tx_handler>:
static void
default_tx_handler
(
    mss_uart_instance_t * this_uart
)
{
200024d0:	b480      	push	{r7}
200024d2:	b087      	sub	sp, #28
200024d4:	af00      	add	r7, sp, #0
200024d6:	6078      	str	r0, [r7, #4]
    uint8_t status;

    ASSERT( (this_uart == &g_mss_uart0) || (this_uart == &g_mss_uart1) );
200024d8:	687a      	ldr	r2, [r7, #4]
200024da:	f24b 33a8 	movw	r3, #45992	; 0xb3a8
200024de:	f2c2 0300 	movt	r3, #8192	; 0x2000
200024e2:	429a      	cmp	r2, r3
200024e4:	d007      	beq.n	200024f6 <default_tx_handler+0x26>
200024e6:	687a      	ldr	r2, [r7, #4]
200024e8:	f24b 3380 	movw	r3, #45952	; 0xb380
200024ec:	f2c2 0300 	movt	r3, #8192	; 0x2000
200024f0:	429a      	cmp	r2, r3
200024f2:	d000      	beq.n	200024f6 <default_tx_handler+0x26>
200024f4:	be00      	bkpt	0x0000
    ASSERT( ( (uint8_t *)0 ) != this_uart->tx_buffer );
200024f6:	687b      	ldr	r3, [r7, #4]
200024f8:	68db      	ldr	r3, [r3, #12]
200024fa:	2b00      	cmp	r3, #0
200024fc:	d100      	bne.n	20002500 <default_tx_handler+0x30>
200024fe:	be00      	bkpt	0x0000
    ASSERT( 0U < this_uart->tx_buff_size );
20002500:	687b      	ldr	r3, [r7, #4]
20002502:	691b      	ldr	r3, [r3, #16]
20002504:	2b00      	cmp	r3, #0
20002506:	d100      	bne.n	2000250a <default_tx_handler+0x3a>
20002508:	be00      	bkpt	0x0000

    if( ( (this_uart == &g_mss_uart0) || (this_uart == &g_mss_uart1) ) &&
2000250a:	687a      	ldr	r2, [r7, #4]
2000250c:	f24b 33a8 	movw	r3, #45992	; 0xb3a8
20002510:	f2c2 0300 	movt	r3, #8192	; 0x2000
20002514:	429a      	cmp	r2, r3
20002516:	d006      	beq.n	20002526 <default_tx_handler+0x56>
20002518:	687a      	ldr	r2, [r7, #4]
2000251a:	f24b 3380 	movw	r3, #45952	; 0xb380
2000251e:	f2c2 0300 	movt	r3, #8192	; 0x2000
20002522:	429a      	cmp	r2, r3
20002524:	d152      	bne.n	200025cc <default_tx_handler+0xfc>
        ( ( (uint8_t *)0 ) != this_uart->tx_buffer ) &&
20002526:	687b      	ldr	r3, [r7, #4]
20002528:	68db      	ldr	r3, [r3, #12]

    ASSERT( (this_uart == &g_mss_uart0) || (this_uart == &g_mss_uart1) );
    ASSERT( ( (uint8_t *)0 ) != this_uart->tx_buffer );
    ASSERT( 0U < this_uart->tx_buff_size );

    if( ( (this_uart == &g_mss_uart0) || (this_uart == &g_mss_uart1) ) &&
2000252a:	2b00      	cmp	r3, #0
2000252c:	d04e      	beq.n	200025cc <default_tx_handler+0xfc>
        ( ( (uint8_t *)0 ) != this_uart->tx_buffer ) &&
        ( 0U < this_uart->tx_buff_size ) )
2000252e:	687b      	ldr	r3, [r7, #4]
20002530:	691b      	ldr	r3, [r3, #16]

    ASSERT( (this_uart == &g_mss_uart0) || (this_uart == &g_mss_uart1) );
    ASSERT( ( (uint8_t *)0 ) != this_uart->tx_buffer );
    ASSERT( 0U < this_uart->tx_buff_size );

    if( ( (this_uart == &g_mss_uart0) || (this_uart == &g_mss_uart1) ) &&
20002532:	2b00      	cmp	r3, #0
20002534:	d04a      	beq.n	200025cc <default_tx_handler+0xfc>
        ( ( (uint8_t *)0 ) != this_uart->tx_buffer ) &&
        ( 0U < this_uart->tx_buff_size ) )
    {
        /* Read the Line Status Register and update the sticky record. */
        status = this_uart->hw_reg->LSR;
20002536:	687b      	ldr	r3, [r7, #4]
20002538:	681b      	ldr	r3, [r3, #0]
2000253a:	7d1b      	ldrb	r3, [r3, #20]
2000253c:	72fb      	strb	r3, [r7, #11]
        this_uart->status |= status;
2000253e:	687b      	ldr	r3, [r7, #4]
20002540:	7a9a      	ldrb	r2, [r3, #10]
20002542:	7afb      	ldrb	r3, [r7, #11]
20002544:	ea42 0303 	orr.w	r3, r2, r3
20002548:	b2da      	uxtb	r2, r3
2000254a:	687b      	ldr	r3, [r7, #4]
2000254c:	729a      	strb	r2, [r3, #10]

        /*
         * This function should only be called as a result of a THRE interrupt.
         * Verify that this is true before proceeding to transmit data.
         */
        if ( status & MSS_UART_THRE )
2000254e:	7afb      	ldrb	r3, [r7, #11]
20002550:	f003 0320 	and.w	r3, r3, #32
20002554:	2b00      	cmp	r3, #0
20002556:	d029      	beq.n	200025ac <default_tx_handler+0xdc>
        {
            uint32_t i;
            uint32_t fill_size = TX_FIFO_SIZE;
20002558:	f04f 0310 	mov.w	r3, #16
2000255c:	613b      	str	r3, [r7, #16]
            uint32_t tx_remain = this_uart->tx_buff_size - this_uart->tx_idx;
2000255e:	687b      	ldr	r3, [r7, #4]
20002560:	691a      	ldr	r2, [r3, #16]
20002562:	687b      	ldr	r3, [r7, #4]
20002564:	695b      	ldr	r3, [r3, #20]
20002566:	ebc3 0302 	rsb	r3, r3, r2
2000256a:	617b      	str	r3, [r7, #20]

            /* Calculate the number of bytes to transmit. */
            if ( tx_remain < TX_FIFO_SIZE )
2000256c:	697b      	ldr	r3, [r7, #20]
2000256e:	2b0f      	cmp	r3, #15
20002570:	d801      	bhi.n	20002576 <default_tx_handler+0xa6>
            {
                fill_size = tx_remain;
20002572:	697b      	ldr	r3, [r7, #20]
20002574:	613b      	str	r3, [r7, #16]
            }

            /* Fill the TX FIFO with the calculated the number of bytes. */
            for ( i = 0U; i < fill_size; ++i )
20002576:	f04f 0300 	mov.w	r3, #0
2000257a:	60fb      	str	r3, [r7, #12]
2000257c:	e012      	b.n	200025a4 <default_tx_handler+0xd4>
            {
                /* Send next character in the buffer. */
                this_uart->hw_reg->THR = this_uart->tx_buffer[this_uart->tx_idx];
2000257e:	687b      	ldr	r3, [r7, #4]
20002580:	681b      	ldr	r3, [r3, #0]
20002582:	687a      	ldr	r2, [r7, #4]
20002584:	68d1      	ldr	r1, [r2, #12]
20002586:	687a      	ldr	r2, [r7, #4]
20002588:	6952      	ldr	r2, [r2, #20]
2000258a:	440a      	add	r2, r1
2000258c:	7812      	ldrb	r2, [r2, #0]
2000258e:	701a      	strb	r2, [r3, #0]
                ++this_uart->tx_idx;
20002590:	687b      	ldr	r3, [r7, #4]
20002592:	695b      	ldr	r3, [r3, #20]
20002594:	f103 0201 	add.w	r2, r3, #1
20002598:	687b      	ldr	r3, [r7, #4]
2000259a:	615a      	str	r2, [r3, #20]
            {
                fill_size = tx_remain;
            }

            /* Fill the TX FIFO with the calculated the number of bytes. */
            for ( i = 0U; i < fill_size; ++i )
2000259c:	68fb      	ldr	r3, [r7, #12]
2000259e:	f103 0301 	add.w	r3, r3, #1
200025a2:	60fb      	str	r3, [r7, #12]
200025a4:	68fa      	ldr	r2, [r7, #12]
200025a6:	693b      	ldr	r3, [r7, #16]
200025a8:	429a      	cmp	r2, r3
200025aa:	d3e8      	bcc.n	2000257e <default_tx_handler+0xae>
                ++this_uart->tx_idx;
            }
        }

        /* Flag Tx as complete if all data has been pushed into the Tx FIFO. */
        if ( this_uart->tx_idx == this_uart->tx_buff_size )
200025ac:	687b      	ldr	r3, [r7, #4]
200025ae:	695a      	ldr	r2, [r3, #20]
200025b0:	687b      	ldr	r3, [r7, #4]
200025b2:	691b      	ldr	r3, [r3, #16]
200025b4:	429a      	cmp	r2, r3
200025b6:	d109      	bne.n	200025cc <default_tx_handler+0xfc>
        {
            this_uart->tx_buff_size = TX_COMPLETE;
200025b8:	687b      	ldr	r3, [r7, #4]
200025ba:	f04f 0200 	mov.w	r2, #0
200025be:	611a      	str	r2, [r3, #16]
            /* disables TX interrupt */
            this_uart->hw_reg_bit->IER_ETBEI = 0U;
200025c0:	687b      	ldr	r3, [r7, #4]
200025c2:	685b      	ldr	r3, [r3, #4]
200025c4:	f04f 0200 	mov.w	r2, #0
200025c8:	f8c3 2084 	str.w	r2, [r3, #132]	; 0x84
        }
    }
}
200025cc:	f107 071c 	add.w	r7, r7, #28
200025d0:	46bd      	mov	sp, r7
200025d2:	bc80      	pop	{r7}
200025d4:	4770      	bx	lr
200025d6:	bf00      	nop

200025d8 <UART0_IRQHandler>:
#if defined(__GNUC__)
__attribute__((__interrupt__)) void UART0_IRQHandler( void )
#else
void UART0_IRQHandler( void )
#endif
{
200025d8:	4668      	mov	r0, sp
200025da:	f020 0107 	bic.w	r1, r0, #7
200025de:	468d      	mov	sp, r1
200025e0:	b589      	push	{r0, r3, r7, lr}
200025e2:	af00      	add	r7, sp, #0
    MSS_UART_isr( &g_mss_uart0 );
200025e4:	f24b 30a8 	movw	r0, #45992	; 0xb3a8
200025e8:	f2c2 0000 	movt	r0, #8192	; 0x2000
200025ec:	f7ff fee2 	bl	200023b4 <MSS_UART_isr>
    NVIC_ClearPendingIRQ( UART0_IRQn );
200025f0:	f04f 000a 	mov.w	r0, #10
200025f4:	f7ff fd4c 	bl	20002090 <NVIC_ClearPendingIRQ>
}
200025f8:	46bd      	mov	sp, r7
200025fa:	e8bd 4089 	ldmia.w	sp!, {r0, r3, r7, lr}
200025fe:	4685      	mov	sp, r0
20002600:	4770      	bx	lr
20002602:	bf00      	nop

20002604 <UART1_IRQHandler>:
#if defined(__GNUC__)
__attribute__((__interrupt__)) void UART1_IRQHandler( void )
#else
void UART1_IRQHandler( void )
#endif
{
20002604:	4668      	mov	r0, sp
20002606:	f020 0107 	bic.w	r1, r0, #7
2000260a:	468d      	mov	sp, r1
2000260c:	b589      	push	{r0, r3, r7, lr}
2000260e:	af00      	add	r7, sp, #0
    MSS_UART_isr( &g_mss_uart1 );
20002610:	f24b 3080 	movw	r0, #45952	; 0xb380
20002614:	f2c2 0000 	movt	r0, #8192	; 0x2000
20002618:	f7ff fecc 	bl	200023b4 <MSS_UART_isr>
    NVIC_ClearPendingIRQ( UART1_IRQn );
2000261c:	f04f 000b 	mov.w	r0, #11
20002620:	f7ff fd36 	bl	20002090 <NVIC_ClearPendingIRQ>
}
20002624:	46bd      	mov	sp, r7
20002626:	e8bd 4089 	ldmia.w	sp!, {r0, r3, r7, lr}
2000262a:	4685      	mov	sp, r0
2000262c:	4770      	bx	lr
2000262e:	bf00      	nop

20002630 <NVIC_EnableIRQ>:
 *
 * Enable a device specific interupt in the NVIC interrupt controller.
 * The interrupt number cannot be a negative value.
 */
static __INLINE void NVIC_EnableIRQ(IRQn_Type IRQn)
{
20002630:	b480      	push	{r7}
20002632:	b083      	sub	sp, #12
20002634:	af00      	add	r7, sp, #0
20002636:	4603      	mov	r3, r0
20002638:	80fb      	strh	r3, [r7, #6]
  NVIC->ISER[((uint32_t)(IRQn) >> 5)] = (1 << ((uint32_t)(IRQn) & 0x1F)); /* enable interrupt */
2000263a:	f24e 1300 	movw	r3, #57600	; 0xe100
2000263e:	f2ce 0300 	movt	r3, #57344	; 0xe000
20002642:	f9b7 2006 	ldrsh.w	r2, [r7, #6]
20002646:	ea4f 1252 	mov.w	r2, r2, lsr #5
2000264a:	88f9      	ldrh	r1, [r7, #6]
2000264c:	f001 011f 	and.w	r1, r1, #31
20002650:	f04f 0001 	mov.w	r0, #1
20002654:	fa00 f101 	lsl.w	r1, r0, r1
20002658:	f843 1022 	str.w	r1, [r3, r2, lsl #2]
}
2000265c:	f107 070c 	add.w	r7, r7, #12
20002660:	46bd      	mov	sp, r7
20002662:	bc80      	pop	{r7}
20002664:	4770      	bx	lr
20002666:	bf00      	nop

20002668 <NVIC_DisableIRQ>:
 * 
 * Disable a device specific interupt in the NVIC interrupt controller.
 * The interrupt number cannot be a negative value.
 */
static __INLINE void NVIC_DisableIRQ(IRQn_Type IRQn)
{
20002668:	b480      	push	{r7}
2000266a:	b083      	sub	sp, #12
2000266c:	af00      	add	r7, sp, #0
2000266e:	4603      	mov	r3, r0
20002670:	80fb      	strh	r3, [r7, #6]
  NVIC->ICER[((uint32_t)(IRQn) >> 5)] = (1 << ((uint32_t)(IRQn) & 0x1F)); /* disable interrupt */
20002672:	f24e 1300 	movw	r3, #57600	; 0xe100
20002676:	f2ce 0300 	movt	r3, #57344	; 0xe000
2000267a:	f9b7 2006 	ldrsh.w	r2, [r7, #6]
2000267e:	ea4f 1252 	mov.w	r2, r2, lsr #5
20002682:	88f9      	ldrh	r1, [r7, #6]
20002684:	f001 011f 	and.w	r1, r1, #31
20002688:	f04f 0001 	mov.w	r0, #1
2000268c:	fa00 f101 	lsl.w	r1, r0, r1
20002690:	f102 0220 	add.w	r2, r2, #32
20002694:	f843 1022 	str.w	r1, [r3, r2, lsl #2]
}
20002698:	f107 070c 	add.w	r7, r7, #12
2000269c:	46bd      	mov	sp, r7
2000269e:	bc80      	pop	{r7}
200026a0:	4770      	bx	lr
200026a2:	bf00      	nop

200026a4 <NVIC_ClearPendingIRQ>:
 *
 * Clear the pending bit for the specified interrupt. 
 * The interrupt number cannot be a negative value.
 */
static __INLINE void NVIC_ClearPendingIRQ(IRQn_Type IRQn)
{
200026a4:	b480      	push	{r7}
200026a6:	b083      	sub	sp, #12
200026a8:	af00      	add	r7, sp, #0
200026aa:	4603      	mov	r3, r0
200026ac:	80fb      	strh	r3, [r7, #6]
  NVIC->ICPR[((uint32_t)(IRQn) >> 5)] = (1 << ((uint32_t)(IRQn) & 0x1F)); /* Clear pending interrupt */
200026ae:	f24e 1300 	movw	r3, #57600	; 0xe100
200026b2:	f2ce 0300 	movt	r3, #57344	; 0xe000
200026b6:	f9b7 2006 	ldrsh.w	r2, [r7, #6]
200026ba:	ea4f 1252 	mov.w	r2, r2, lsr #5
200026be:	88f9      	ldrh	r1, [r7, #6]
200026c0:	f001 011f 	and.w	r1, r1, #31
200026c4:	f04f 0001 	mov.w	r0, #1
200026c8:	fa00 f101 	lsl.w	r1, r0, r1
200026cc:	f102 0260 	add.w	r2, r2, #96	; 0x60
200026d0:	f843 1022 	str.w	r1, [r3, r2, lsl #2]
}
200026d4:	f107 070c 	add.w	r7, r7, #12
200026d8:	46bd      	mov	sp, r7
200026da:	bc80      	pop	{r7}
200026dc:	4770      	bx	lr
200026de:	bf00      	nop

200026e0 <MSS_SPI_init>:
 */
void MSS_SPI_init
(
    mss_spi_instance_t * this_spi
)
{
200026e0:	b580      	push	{r7, lr}
200026e2:	b084      	sub	sp, #16
200026e4:	af00      	add	r7, sp, #0
200026e6:	6078      	str	r0, [r7, #4]
    uint16_t slave;
    
    ASSERT((this_spi == &g_mss_spi0) || (this_spi == &g_mss_spi1));
200026e8:	687a      	ldr	r2, [r7, #4]
200026ea:	f24b 4354 	movw	r3, #46164	; 0xb454
200026ee:	f2c2 0300 	movt	r3, #8192	; 0x2000
200026f2:	429a      	cmp	r2, r3
200026f4:	d007      	beq.n	20002706 <MSS_SPI_init+0x26>
200026f6:	687a      	ldr	r2, [r7, #4]
200026f8:	f24b 33d0 	movw	r3, #46032	; 0xb3d0
200026fc:	f2c2 0300 	movt	r3, #8192	; 0x2000
20002700:	429a      	cmp	r2, r3
20002702:	d000      	beq.n	20002706 <MSS_SPI_init+0x26>
20002704:	be00      	bkpt	0x0000
     * Initialize SPI driver instance data. Relies on the majority
     * of data requiring 0 for initial state so we just need to fill
     * with 0s and finish off with a small number of non zero values.
     */
    /* Shut down interrupts from the MSS SPI while we do this */
    NVIC_DisableIRQ( this_spi->irqn );
20002706:	687b      	ldr	r3, [r7, #4]
20002708:	889b      	ldrh	r3, [r3, #4]
2000270a:	b21b      	sxth	r3, r3
2000270c:	4618      	mov	r0, r3
2000270e:	f7ff ffab 	bl	20002668 <NVIC_DisableIRQ>

    memset(this_spi, 0, sizeof(mss_spi_instance_t));
20002712:	6878      	ldr	r0, [r7, #4]
20002714:	f04f 0100 	mov.w	r1, #0
20002718:	f04f 0284 	mov.w	r2, #132	; 0x84
2000271c:	f002 f8cc 	bl	200048b8 <memset>
    
    this_spi->cmd_done = 1u;
20002720:	687b      	ldr	r3, [r7, #4]
20002722:	f04f 0201 	mov.w	r2, #1
20002726:	625a      	str	r2, [r3, #36]	; 0x24

    for(slave = 0u; slave < (uint16_t)MSS_SPI_MAX_NB_OF_SLAVES; ++slave)
20002728:	f04f 0300 	mov.w	r3, #0
2000272c:	81fb      	strh	r3, [r7, #14]
2000272e:	e00d      	b.n	2000274c <MSS_SPI_init+0x6c>
    {
        this_spi->slaves_cfg[slave].ctrl_reg = NOT_CONFIGURED;
20002730:	89fb      	ldrh	r3, [r7, #14]
20002732:	687a      	ldr	r2, [r7, #4]
20002734:	f103 0306 	add.w	r3, r3, #6
20002738:	ea4f 03c3 	mov.w	r3, r3, lsl #3
2000273c:	4413      	add	r3, r2
2000273e:	f04f 32ff 	mov.w	r2, #4294967295
20002742:	605a      	str	r2, [r3, #4]

    memset(this_spi, 0, sizeof(mss_spi_instance_t));
    
    this_spi->cmd_done = 1u;

    for(slave = 0u; slave < (uint16_t)MSS_SPI_MAX_NB_OF_SLAVES; ++slave)
20002744:	89fb      	ldrh	r3, [r7, #14]
20002746:	f103 0301 	add.w	r3, r3, #1
2000274a:	81fb      	strh	r3, [r7, #14]
2000274c:	89fb      	ldrh	r3, [r7, #14]
2000274e:	2b07      	cmp	r3, #7
20002750:	d9ee      	bls.n	20002730 <MSS_SPI_init+0x50>
    {
        this_spi->slaves_cfg[slave].ctrl_reg = NOT_CONFIGURED;
    }

    if(this_spi == &g_mss_spi0)
20002752:	687a      	ldr	r2, [r7, #4]
20002754:	f24b 4354 	movw	r3, #46164	; 0xb454
20002758:	f2c2 0300 	movt	r3, #8192	; 0x2000
2000275c:	429a      	cmp	r2, r3
2000275e:	d126      	bne.n	200027ae <MSS_SPI_init+0xce>
    {
        this_spi->hw_reg = ((SPI_REVB_TypeDef *) SPI0_BASE);
20002760:	687a      	ldr	r2, [r7, #4]
20002762:	f241 0300 	movw	r3, #4096	; 0x1000
20002766:	f2c4 0300 	movt	r3, #16384	; 0x4000
2000276a:	6013      	str	r3, [r2, #0]
        this_spi->irqn = SPI0_IRQn;
2000276c:	687b      	ldr	r3, [r7, #4]
2000276e:	f04f 020c 	mov.w	r2, #12
20002772:	809a      	strh	r2, [r3, #4]

        /* reset SPI0 */
        SYSREG->SOFT_RST_CR |= SYSREG_SPI0_SOFTRESET_MASK;
20002774:	f242 0300 	movw	r3, #8192	; 0x2000
20002778:	f2ce 0304 	movt	r3, #57348	; 0xe004
2000277c:	f242 0200 	movw	r2, #8192	; 0x2000
20002780:	f2ce 0204 	movt	r2, #57348	; 0xe004
20002784:	6b12      	ldr	r2, [r2, #48]	; 0x30
20002786:	f442 7200 	orr.w	r2, r2, #512	; 0x200
2000278a:	631a      	str	r2, [r3, #48]	; 0x30
        /* Clear any previously pended SPI0 interrupt */
        NVIC_ClearPendingIRQ(SPI0_IRQn);
2000278c:	f04f 000c 	mov.w	r0, #12
20002790:	f7ff ff88 	bl	200026a4 <NVIC_ClearPendingIRQ>
        /* Take SPI0 out of reset. */
        SYSREG->SOFT_RST_CR &= ~SYSREG_SPI0_SOFTRESET_MASK;
20002794:	f242 0300 	movw	r3, #8192	; 0x2000
20002798:	f2ce 0304 	movt	r3, #57348	; 0xe004
2000279c:	f242 0200 	movw	r2, #8192	; 0x2000
200027a0:	f2ce 0204 	movt	r2, #57348	; 0xe004
200027a4:	6b12      	ldr	r2, [r2, #48]	; 0x30
200027a6:	f422 7200 	bic.w	r2, r2, #512	; 0x200
200027aa:	631a      	str	r2, [r3, #48]	; 0x30
200027ac:	e025      	b.n	200027fa <MSS_SPI_init+0x11a>
    }
    else
    {
        this_spi->hw_reg = ((SPI_REVB_TypeDef *) SPI1_BASE);
200027ae:	687a      	ldr	r2, [r7, #4]
200027b0:	f241 0300 	movw	r3, #4096	; 0x1000
200027b4:	f2c4 0301 	movt	r3, #16385	; 0x4001
200027b8:	6013      	str	r3, [r2, #0]
        this_spi->irqn = SPI1_IRQn;
200027ba:	687b      	ldr	r3, [r7, #4]
200027bc:	f04f 020d 	mov.w	r2, #13
200027c0:	809a      	strh	r2, [r3, #4]
        
        /* reset SPI1 */
        SYSREG->SOFT_RST_CR |= SYSREG_SPI1_SOFTRESET_MASK;
200027c2:	f242 0300 	movw	r3, #8192	; 0x2000
200027c6:	f2ce 0304 	movt	r3, #57348	; 0xe004
200027ca:	f242 0200 	movw	r2, #8192	; 0x2000
200027ce:	f2ce 0204 	movt	r2, #57348	; 0xe004
200027d2:	6b12      	ldr	r2, [r2, #48]	; 0x30
200027d4:	f442 6280 	orr.w	r2, r2, #1024	; 0x400
200027d8:	631a      	str	r2, [r3, #48]	; 0x30
        /* Clear any previously pended SPI1 interrupt */
        NVIC_ClearPendingIRQ(SPI1_IRQn);
200027da:	f04f 000d 	mov.w	r0, #13
200027de:	f7ff ff61 	bl	200026a4 <NVIC_ClearPendingIRQ>
        /* Take SPI1 out of reset. */
        SYSREG->SOFT_RST_CR &= ~SYSREG_SPI1_SOFTRESET_MASK;
200027e2:	f242 0300 	movw	r3, #8192	; 0x2000
200027e6:	f2ce 0304 	movt	r3, #57348	; 0xe004
200027ea:	f242 0200 	movw	r2, #8192	; 0x2000
200027ee:	f2ce 0204 	movt	r2, #57348	; 0xe004
200027f2:	6b12      	ldr	r2, [r2, #48]	; 0x30
200027f4:	f422 6280 	bic.w	r2, r2, #1024	; 0x400
200027f8:	631a      	str	r2, [r3, #48]	; 0x30
    }
    
    /* De-assert reset bit. */
    this_spi->hw_reg->CONTROL &= ~CTRL_REG_RESET_MASK;
200027fa:	687b      	ldr	r3, [r7, #4]
200027fc:	681b      	ldr	r3, [r3, #0]
200027fe:	687a      	ldr	r2, [r7, #4]
20002800:	6812      	ldr	r2, [r2, #0]
20002802:	6812      	ldr	r2, [r2, #0]
20002804:	f022 4200 	bic.w	r2, r2, #2147483648	; 0x80000000
20002808:	601a      	str	r2, [r3, #0]
}
2000280a:	f107 0710 	add.w	r7, r7, #16
2000280e:	46bd      	mov	sp, r7
20002810:	bd80      	pop	{r7, pc}
20002812:	bf00      	nop

20002814 <recover_from_rx_overflow>:
 */
static void recover_from_rx_overflow
(
    mss_spi_instance_t * this_spi
)
{
20002814:	b580      	push	{r7, lr}
20002816:	b08a      	sub	sp, #40	; 0x28
20002818:	af00      	add	r7, sp, #0
2000281a:	6078      	str	r0, [r7, #4]
    uint32_t slave_select;
    
    /*
     * Read current SPI hardware block configuration.
     */
    control_reg = this_spi->hw_reg->CONTROL;
2000281c:	687b      	ldr	r3, [r7, #4]
2000281e:	681b      	ldr	r3, [r3, #0]
20002820:	681b      	ldr	r3, [r3, #0]
20002822:	60fb      	str	r3, [r7, #12]
    clk_gen = this_spi->hw_reg->CLK_GEN;
20002824:	687b      	ldr	r3, [r7, #4]
20002826:	681b      	ldr	r3, [r3, #0]
20002828:	699b      	ldr	r3, [r3, #24]
2000282a:	613b      	str	r3, [r7, #16]
    frame_size = this_spi->hw_reg->TXRXDF_SIZE;
2000282c:	687b      	ldr	r3, [r7, #4]
2000282e:	681b      	ldr	r3, [r3, #0]
20002830:	685b      	ldr	r3, [r3, #4]
20002832:	617b      	str	r3, [r7, #20]
    control2 = this_spi->hw_reg->CONTROL2;
20002834:	687b      	ldr	r3, [r7, #4]
20002836:	681b      	ldr	r3, [r3, #0]
20002838:	6a9b      	ldr	r3, [r3, #40]	; 0x28
2000283a:	61bb      	str	r3, [r7, #24]
    packet_size = this_spi->hw_reg->PKTSIZE;
2000283c:	687b      	ldr	r3, [r7, #4]
2000283e:	681b      	ldr	r3, [r3, #0]
20002840:	6b1b      	ldr	r3, [r3, #48]	; 0x30
20002842:	61fb      	str	r3, [r7, #28]
    cmd_size = this_spi->hw_reg->CMDSIZE;
20002844:	687b      	ldr	r3, [r7, #4]
20002846:	681b      	ldr	r3, [r3, #0]
20002848:	6b5b      	ldr	r3, [r3, #52]	; 0x34
2000284a:	623b      	str	r3, [r7, #32]
    slave_select = this_spi->hw_reg->SLAVE_SELECT;
2000284c:	687b      	ldr	r3, [r7, #4]
2000284e:	681b      	ldr	r3, [r3, #0]
20002850:	69db      	ldr	r3, [r3, #28]
20002852:	627b      	str	r3, [r7, #36]	; 0x24
     
    /*
     * Reset the SPI hardware block.
     */
    if(this_spi == &g_mss_spi0)
20002854:	687a      	ldr	r2, [r7, #4]
20002856:	f24b 4354 	movw	r3, #46164	; 0xb454
2000285a:	f2c2 0300 	movt	r3, #8192	; 0x2000
2000285e:	429a      	cmp	r2, r3
20002860:	d12e      	bne.n	200028c0 <recover_from_rx_overflow+0xac>
    {
        this_spi->hw_reg = ((SPI_REVB_TypeDef *) SPI0_BASE);
20002862:	687a      	ldr	r2, [r7, #4]
20002864:	f241 0300 	movw	r3, #4096	; 0x1000
20002868:	f2c4 0300 	movt	r3, #16384	; 0x4000
2000286c:	6013      	str	r3, [r2, #0]
        this_spi->irqn = SPI0_IRQn;
2000286e:	687b      	ldr	r3, [r7, #4]
20002870:	f04f 020c 	mov.w	r2, #12
20002874:	809a      	strh	r2, [r3, #4]

        /* reset SPI0 */
        SYSREG->SOFT_RST_CR |= SYSREG_SPI0_SOFTRESET_MASK;
20002876:	f242 0300 	movw	r3, #8192	; 0x2000
2000287a:	f2ce 0304 	movt	r3, #57348	; 0xe004
2000287e:	f242 0200 	movw	r2, #8192	; 0x2000
20002882:	f2ce 0204 	movt	r2, #57348	; 0xe004
20002886:	6b12      	ldr	r2, [r2, #48]	; 0x30
20002888:	f442 7200 	orr.w	r2, r2, #512	; 0x200
2000288c:	631a      	str	r2, [r3, #48]	; 0x30
        /* Clear any previously pended SPI0 interrupt */
        NVIC_ClearPendingIRQ(SPI0_IRQn);
2000288e:	f04f 000c 	mov.w	r0, #12
20002892:	f7ff ff07 	bl	200026a4 <NVIC_ClearPendingIRQ>
        /* Take SPI0 out of reset. */
        SYSREG->SOFT_RST_CR &= ~SYSREG_SPI0_SOFTRESET_MASK;
20002896:	f242 0300 	movw	r3, #8192	; 0x2000
2000289a:	f2ce 0304 	movt	r3, #57348	; 0xe004
2000289e:	f242 0200 	movw	r2, #8192	; 0x2000
200028a2:	f2ce 0204 	movt	r2, #57348	; 0xe004
200028a6:	6b12      	ldr	r2, [r2, #48]	; 0x30
200028a8:	f422 7200 	bic.w	r2, r2, #512	; 0x200
200028ac:	631a      	str	r2, [r3, #48]	; 0x30

        this_spi->hw_reg->CONTROL &= ~CTRL_REG_RESET_MASK;
200028ae:	687b      	ldr	r3, [r7, #4]
200028b0:	681b      	ldr	r3, [r3, #0]
200028b2:	687a      	ldr	r2, [r7, #4]
200028b4:	6812      	ldr	r2, [r2, #0]
200028b6:	6812      	ldr	r2, [r2, #0]
200028b8:	f022 4200 	bic.w	r2, r2, #2147483648	; 0x80000000
200028bc:	601a      	str	r2, [r3, #0]
200028be:	e02d      	b.n	2000291c <recover_from_rx_overflow+0x108>
    }
    else
    {
        this_spi->hw_reg = ((SPI_REVB_TypeDef *) SPI1_BASE);
200028c0:	687a      	ldr	r2, [r7, #4]
200028c2:	f241 0300 	movw	r3, #4096	; 0x1000
200028c6:	f2c4 0301 	movt	r3, #16385	; 0x4001
200028ca:	6013      	str	r3, [r2, #0]
        this_spi->irqn = SPI1_IRQn;
200028cc:	687b      	ldr	r3, [r7, #4]
200028ce:	f04f 020d 	mov.w	r2, #13
200028d2:	809a      	strh	r2, [r3, #4]
        
        /* reset SPI1 */
        SYSREG->SOFT_RST_CR |= SYSREG_SPI1_SOFTRESET_MASK;
200028d4:	f242 0300 	movw	r3, #8192	; 0x2000
200028d8:	f2ce 0304 	movt	r3, #57348	; 0xe004
200028dc:	f242 0200 	movw	r2, #8192	; 0x2000
200028e0:	f2ce 0204 	movt	r2, #57348	; 0xe004
200028e4:	6b12      	ldr	r2, [r2, #48]	; 0x30
200028e6:	f442 6280 	orr.w	r2, r2, #1024	; 0x400
200028ea:	631a      	str	r2, [r3, #48]	; 0x30
        /* Clear any previously pended SPI1 interrupt */
        NVIC_ClearPendingIRQ(SPI1_IRQn);
200028ec:	f04f 000d 	mov.w	r0, #13
200028f0:	f7ff fed8 	bl	200026a4 <NVIC_ClearPendingIRQ>
        /* Take SPI1 out of reset. */
        SYSREG->SOFT_RST_CR &= ~SYSREG_SPI1_SOFTRESET_MASK;
200028f4:	f242 0300 	movw	r3, #8192	; 0x2000
200028f8:	f2ce 0304 	movt	r3, #57348	; 0xe004
200028fc:	f242 0200 	movw	r2, #8192	; 0x2000
20002900:	f2ce 0204 	movt	r2, #57348	; 0xe004
20002904:	6b12      	ldr	r2, [r2, #48]	; 0x30
20002906:	f422 6280 	bic.w	r2, r2, #1024	; 0x400
2000290a:	631a      	str	r2, [r3, #48]	; 0x30
        
        this_spi->hw_reg->CONTROL &= ~CTRL_REG_RESET_MASK;
2000290c:	687b      	ldr	r3, [r7, #4]
2000290e:	681b      	ldr	r3, [r3, #0]
20002910:	687a      	ldr	r2, [r7, #4]
20002912:	6812      	ldr	r2, [r2, #0]
20002914:	6812      	ldr	r2, [r2, #0]
20002916:	f022 4200 	bic.w	r2, r2, #2147483648	; 0x80000000
2000291a:	601a      	str	r2, [r3, #0]
    }
    
    /*
     * Restore SPI hardware block configuration.
     */
    control_reg &= ~(uint32_t)CTRL_ENABLE_MASK;
2000291c:	68fb      	ldr	r3, [r7, #12]
2000291e:	f023 0301 	bic.w	r3, r3, #1
20002922:	60fb      	str	r3, [r7, #12]
    this_spi->hw_reg->CONTROL = control_reg;
20002924:	687b      	ldr	r3, [r7, #4]
20002926:	681b      	ldr	r3, [r3, #0]
20002928:	68fa      	ldr	r2, [r7, #12]
2000292a:	601a      	str	r2, [r3, #0]
    this_spi->hw_reg->CLK_GEN = clk_gen;
2000292c:	687b      	ldr	r3, [r7, #4]
2000292e:	681b      	ldr	r3, [r3, #0]
20002930:	693a      	ldr	r2, [r7, #16]
20002932:	619a      	str	r2, [r3, #24]
    this_spi->hw_reg->TXRXDF_SIZE = frame_size;
20002934:	687b      	ldr	r3, [r7, #4]
20002936:	681b      	ldr	r3, [r3, #0]
20002938:	697a      	ldr	r2, [r7, #20]
2000293a:	605a      	str	r2, [r3, #4]
    this_spi->hw_reg->CONTROL |= CTRL_ENABLE_MASK;
2000293c:	687b      	ldr	r3, [r7, #4]
2000293e:	681b      	ldr	r3, [r3, #0]
20002940:	687a      	ldr	r2, [r7, #4]
20002942:	6812      	ldr	r2, [r2, #0]
20002944:	6812      	ldr	r2, [r2, #0]
20002946:	f042 0201 	orr.w	r2, r2, #1
2000294a:	601a      	str	r2, [r3, #0]
    this_spi->hw_reg->CONTROL2 = control2;
2000294c:	687b      	ldr	r3, [r7, #4]
2000294e:	681b      	ldr	r3, [r3, #0]
20002950:	69ba      	ldr	r2, [r7, #24]
20002952:	629a      	str	r2, [r3, #40]	; 0x28
    this_spi->hw_reg->PKTSIZE = packet_size;
20002954:	687b      	ldr	r3, [r7, #4]
20002956:	681b      	ldr	r3, [r3, #0]
20002958:	69fa      	ldr	r2, [r7, #28]
2000295a:	631a      	str	r2, [r3, #48]	; 0x30
    this_spi->hw_reg->CMDSIZE = cmd_size;
2000295c:	687b      	ldr	r3, [r7, #4]
2000295e:	681b      	ldr	r3, [r3, #0]
20002960:	6a3a      	ldr	r2, [r7, #32]
20002962:	635a      	str	r2, [r3, #52]	; 0x34
    this_spi->hw_reg->SLAVE_SELECT = slave_select;
20002964:	687b      	ldr	r3, [r7, #4]
20002966:	681b      	ldr	r3, [r3, #0]
20002968:	6a7a      	ldr	r2, [r7, #36]	; 0x24
2000296a:	61da      	str	r2, [r3, #28]
}
2000296c:	f107 0728 	add.w	r7, r7, #40	; 0x28
20002970:	46bd      	mov	sp, r7
20002972:	bd80      	pop	{r7, pc}

20002974 <MSS_SPI_configure_master_mode>:
    mss_spi_slave_t         slave,
    mss_spi_protocol_mode_t protocol_mode,
    mss_spi_pclk_div_t      clk_rate,
    uint8_t                 frame_bit_length
)
{
20002974:	b580      	push	{r7, lr}
20002976:	b084      	sub	sp, #16
20002978:	af00      	add	r7, sp, #0
2000297a:	60f8      	str	r0, [r7, #12]
2000297c:	607a      	str	r2, [r7, #4]
2000297e:	460a      	mov	r2, r1
20002980:	72fa      	strb	r2, [r7, #11]
20002982:	70fb      	strb	r3, [r7, #3]
    ASSERT((this_spi == &g_mss_spi0) || (this_spi == &g_mss_spi1));
20002984:	68fa      	ldr	r2, [r7, #12]
20002986:	f24b 4354 	movw	r3, #46164	; 0xb454
2000298a:	f2c2 0300 	movt	r3, #8192	; 0x2000
2000298e:	429a      	cmp	r2, r3
20002990:	d007      	beq.n	200029a2 <MSS_SPI_configure_master_mode+0x2e>
20002992:	68fa      	ldr	r2, [r7, #12]
20002994:	f24b 33d0 	movw	r3, #46032	; 0xb3d0
20002998:	f2c2 0300 	movt	r3, #8192	; 0x2000
2000299c:	429a      	cmp	r2, r3
2000299e:	d000      	beq.n	200029a2 <MSS_SPI_configure_master_mode+0x2e>
200029a0:	be00      	bkpt	0x0000
    ASSERT(slave < MSS_SPI_MAX_NB_OF_SLAVES);
200029a2:	7afb      	ldrb	r3, [r7, #11]
200029a4:	2b07      	cmp	r3, #7
200029a6:	d900      	bls.n	200029aa <MSS_SPI_configure_master_mode+0x36>
200029a8:	be00      	bkpt	0x0000
    ASSERT(frame_bit_length <= MAX_FRAME_LENGTH);
200029aa:	7e3b      	ldrb	r3, [r7, #24]
200029ac:	2b20      	cmp	r3, #32
200029ae:	d900      	bls.n	200029b2 <MSS_SPI_configure_master_mode+0x3e>
200029b0:	be00      	bkpt	0x0000
    
    /* Shut down interrupts from the MSS SPI while we do this */
    NVIC_DisableIRQ( this_spi->irqn );
200029b2:	68fb      	ldr	r3, [r7, #12]
200029b4:	889b      	ldrh	r3, [r3, #4]
200029b6:	b21b      	sxth	r3, r3
200029b8:	4618      	mov	r0, r3
200029ba:	f7ff fe55 	bl	20002668 <NVIC_DisableIRQ>

    /* Reset slave transfer mode to unknown to wipe slate clean */
    this_spi->slave_xfer_mode = MSS_SPI_SLAVE_XFER_NONE;
200029be:	68fb      	ldr	r3, [r7, #12]
200029c0:	f04f 0200 	mov.w	r2, #0
200029c4:	f883 2080 	strb.w	r2, [r3, #128]	; 0x80

    /* Set the mode. */
    this_spi->hw_reg->CONTROL &= ~(uint32_t)CTRL_ENABLE_MASK;
200029c8:	68fb      	ldr	r3, [r7, #12]
200029ca:	681b      	ldr	r3, [r3, #0]
200029cc:	68fa      	ldr	r2, [r7, #12]
200029ce:	6812      	ldr	r2, [r2, #0]
200029d0:	6812      	ldr	r2, [r2, #0]
200029d2:	f022 0201 	bic.w	r2, r2, #1
200029d6:	601a      	str	r2, [r3, #0]
    this_spi->hw_reg->CONTROL |= CTRL_MASTER_MASK;
200029d8:	68fb      	ldr	r3, [r7, #12]
200029da:	681b      	ldr	r3, [r3, #0]
200029dc:	68fa      	ldr	r2, [r7, #12]
200029de:	6812      	ldr	r2, [r2, #0]
200029e0:	6812      	ldr	r2, [r2, #0]
200029e2:	f042 0202 	orr.w	r2, r2, #2
200029e6:	601a      	str	r2, [r3, #0]
    this_spi->hw_reg->CONTROL |= CTRL_ENABLE_MASK;
200029e8:	68fb      	ldr	r3, [r7, #12]
200029ea:	681b      	ldr	r3, [r3, #0]
200029ec:	68fa      	ldr	r2, [r7, #12]
200029ee:	6812      	ldr	r2, [r2, #0]
200029f0:	6812      	ldr	r2, [r2, #0]
200029f2:	f042 0201 	orr.w	r2, r2, #1
200029f6:	601a      	str	r2, [r3, #0]
    /*
     * Keep track of the required register configuration for this slave. These
     * values will be used by the MSS_SPI_set_slave_select() function to configure
     * the master to match the slave being selected.
     */
    if(slave < MSS_SPI_MAX_NB_OF_SLAVES)     
200029f8:	7afb      	ldrb	r3, [r7, #11]
200029fa:	2b07      	cmp	r3, #7
200029fc:	d83f      	bhi.n	20002a7e <MSS_SPI_configure_master_mode+0x10a>
         *
         * We only do it for Motorola modes and if you need the slave selected
         * deselected between frames in modes 0 or 2 then remove SPS_MASK from
         * below.
         */
        if((MSS_SPI_MODE0 == protocol_mode) || (MSS_SPI_MODE1 == protocol_mode) ||
200029fe:	687b      	ldr	r3, [r7, #4]
20002a00:	2b00      	cmp	r3, #0
20002a02:	d00b      	beq.n	20002a1c <MSS_SPI_configure_master_mode+0xa8>
20002a04:	687b      	ldr	r3, [r7, #4]
20002a06:	f1b3 7f00 	cmp.w	r3, #33554432	; 0x2000000
20002a0a:	d007      	beq.n	20002a1c <MSS_SPI_configure_master_mode+0xa8>
20002a0c:	687b      	ldr	r3, [r7, #4]
20002a0e:	f1b3 7f80 	cmp.w	r3, #16777216	; 0x1000000
20002a12:	d003      	beq.n	20002a1c <MSS_SPI_configure_master_mode+0xa8>
20002a14:	687b      	ldr	r3, [r7, #4]
20002a16:	f1b3 7f40 	cmp.w	r3, #50331648	; 0x3000000
20002a1a:	d10f      	bne.n	20002a3c <MSS_SPI_configure_master_mode+0xc8>
           (MSS_SPI_MODE2 == protocol_mode) || (MSS_SPI_MODE3 == protocol_mode))
        {
            this_spi->slaves_cfg[slave].ctrl_reg = MASTER_MODE_MASK | SPS_MASK |
20002a1c:	7afa      	ldrb	r2, [r7, #11]
20002a1e:	6879      	ldr	r1, [r7, #4]
20002a20:	f240 1302 	movw	r3, #258	; 0x102
20002a24:	f2c2 4300 	movt	r3, #9216	; 0x2400
20002a28:	ea41 0303 	orr.w	r3, r1, r3
20002a2c:	68f9      	ldr	r1, [r7, #12]
20002a2e:	f102 0206 	add.w	r2, r2, #6
20002a32:	ea4f 02c2 	mov.w	r2, r2, lsl #3
20002a36:	440a      	add	r2, r1
20002a38:	6053      	str	r3, [r2, #4]
         *
         * We only do it for Motorola modes and if you need the slave selected
         * deselected between frames in modes 0 or 2 then remove SPS_MASK from
         * below.
         */
        if((MSS_SPI_MODE0 == protocol_mode) || (MSS_SPI_MODE1 == protocol_mode) ||
20002a3a:	e00e      	b.n	20002a5a <MSS_SPI_configure_master_mode+0xe6>
                                                   (uint32_t)protocol_mode | 
                                                   ((uint32_t)1 << TXRXDFCOUNT_SHIFT);
        }
        else
        {
            this_spi->slaves_cfg[slave].ctrl_reg = MASTER_MODE_MASK |
20002a3c:	7afa      	ldrb	r2, [r7, #11]
20002a3e:	6879      	ldr	r1, [r7, #4]
20002a40:	f240 1302 	movw	r3, #258	; 0x102
20002a44:	f2c2 0300 	movt	r3, #8192	; 0x2000
20002a48:	ea41 0303 	orr.w	r3, r1, r3
20002a4c:	68f9      	ldr	r1, [r7, #12]
20002a4e:	f102 0206 	add.w	r2, r2, #6
20002a52:	ea4f 02c2 	mov.w	r2, r2, lsl #3
20002a56:	440a      	add	r2, r1
20002a58:	6053      	str	r3, [r2, #4]
                                                   BIGFIFO_MASK |
                                                   (uint32_t)protocol_mode | 
                                                   ((uint32_t)1 << TXRXDFCOUNT_SHIFT);
        }
        
        this_spi->slaves_cfg[slave].txrxdf_size_reg = frame_bit_length;
20002a5a:	7afb      	ldrb	r3, [r7, #11]
20002a5c:	68fa      	ldr	r2, [r7, #12]
20002a5e:	f103 0306 	add.w	r3, r3, #6
20002a62:	ea4f 03c3 	mov.w	r3, r3, lsl #3
20002a66:	4413      	add	r3, r2
20002a68:	7e3a      	ldrb	r2, [r7, #24]
20002a6a:	721a      	strb	r2, [r3, #8]
        this_spi->slaves_cfg[slave].clk_gen = (uint8_t)clk_rate;
20002a6c:	7afb      	ldrb	r3, [r7, #11]
20002a6e:	68fa      	ldr	r2, [r7, #12]
20002a70:	f103 0306 	add.w	r3, r3, #6
20002a74:	ea4f 03c3 	mov.w	r3, r3, lsl #3
20002a78:	4413      	add	r3, r2
20002a7a:	78fa      	ldrb	r2, [r7, #3]
20002a7c:	725a      	strb	r2, [r3, #9]
    }
    /* Reenable interrupts */
    NVIC_EnableIRQ( this_spi->irqn );
20002a7e:	68fb      	ldr	r3, [r7, #12]
20002a80:	889b      	ldrh	r3, [r3, #4]
20002a82:	b21b      	sxth	r3, r3
20002a84:	4618      	mov	r0, r3
20002a86:	f7ff fdd3 	bl	20002630 <NVIC_EnableIRQ>
}
20002a8a:	f107 0710 	add.w	r7, r7, #16
20002a8e:	46bd      	mov	sp, r7
20002a90:	bd80      	pop	{r7, pc}
20002a92:	bf00      	nop

20002a94 <MSS_SPI_set_slave_select>:
void MSS_SPI_set_slave_select
(
    mss_spi_instance_t * this_spi,
    mss_spi_slave_t slave
)
{
20002a94:	b580      	push	{r7, lr}
20002a96:	b084      	sub	sp, #16
20002a98:	af00      	add	r7, sp, #0
20002a9a:	6078      	str	r0, [r7, #4]
20002a9c:	460b      	mov	r3, r1
20002a9e:	70fb      	strb	r3, [r7, #3]
    uint32_t rx_overflow;
    
    ASSERT((this_spi == &g_mss_spi0) || (this_spi == &g_mss_spi1));
20002aa0:	687a      	ldr	r2, [r7, #4]
20002aa2:	f24b 4354 	movw	r3, #46164	; 0xb454
20002aa6:	f2c2 0300 	movt	r3, #8192	; 0x2000
20002aaa:	429a      	cmp	r2, r3
20002aac:	d007      	beq.n	20002abe <MSS_SPI_set_slave_select+0x2a>
20002aae:	687a      	ldr	r2, [r7, #4]
20002ab0:	f24b 33d0 	movw	r3, #46032	; 0xb3d0
20002ab4:	f2c2 0300 	movt	r3, #8192	; 0x2000
20002ab8:	429a      	cmp	r2, r3
20002aba:	d000      	beq.n	20002abe <MSS_SPI_set_slave_select+0x2a>
20002abc:	be00      	bkpt	0x0000
    
    /* This function is only intended to be used with an SPI master. */
    ASSERT((this_spi->hw_reg->CONTROL & CTRL_MASTER_MASK) == CTRL_MASTER_MASK);
20002abe:	687b      	ldr	r3, [r7, #4]
20002ac0:	681b      	ldr	r3, [r3, #0]
20002ac2:	681b      	ldr	r3, [r3, #0]
20002ac4:	f003 0302 	and.w	r3, r3, #2
20002ac8:	2b00      	cmp	r3, #0
20002aca:	d100      	bne.n	20002ace <MSS_SPI_set_slave_select+0x3a>
20002acc:	be00      	bkpt	0x0000
    
    ASSERT(this_spi->slaves_cfg[slave].ctrl_reg != NOT_CONFIGURED);
20002ace:	78fb      	ldrb	r3, [r7, #3]
20002ad0:	687a      	ldr	r2, [r7, #4]
20002ad2:	f103 0306 	add.w	r3, r3, #6
20002ad6:	ea4f 03c3 	mov.w	r3, r3, lsl #3
20002ada:	4413      	add	r3, r2
20002adc:	685b      	ldr	r3, [r3, #4]
20002ade:	f1b3 3fff 	cmp.w	r3, #4294967295
20002ae2:	d100      	bne.n	20002ae6 <MSS_SPI_set_slave_select+0x52>
20002ae4:	be00      	bkpt	0x0000

    /* Shut down interrupts from the MSS SPI while we do this */
    NVIC_DisableIRQ( this_spi->irqn );
20002ae6:	687b      	ldr	r3, [r7, #4]
20002ae8:	889b      	ldrh	r3, [r3, #4]
20002aea:	b21b      	sxth	r3, r3
20002aec:	4618      	mov	r0, r3
20002aee:	f7ff fdbb 	bl	20002668 <NVIC_DisableIRQ>

    /* Recover from receive overflow. */
    rx_overflow = this_spi->hw_reg->STATUS & RX_OVERFLOW_MASK;
20002af2:	687b      	ldr	r3, [r7, #4]
20002af4:	681b      	ldr	r3, [r3, #0]
20002af6:	689b      	ldr	r3, [r3, #8]
20002af8:	f003 0304 	and.w	r3, r3, #4
20002afc:	60fb      	str	r3, [r7, #12]
    if(rx_overflow)
20002afe:	68fb      	ldr	r3, [r7, #12]
20002b00:	2b00      	cmp	r3, #0
20002b02:	d002      	beq.n	20002b0a <MSS_SPI_set_slave_select+0x76>
    {
         recover_from_rx_overflow(this_spi);
20002b04:	6878      	ldr	r0, [r7, #4]
20002b06:	f7ff fe85 	bl	20002814 <recover_from_rx_overflow>
    }
    
    /* Set the clock rate. */
    this_spi->hw_reg->CONTROL &= ~(uint32_t)CTRL_ENABLE_MASK;
20002b0a:	687b      	ldr	r3, [r7, #4]
20002b0c:	681b      	ldr	r3, [r3, #0]
20002b0e:	687a      	ldr	r2, [r7, #4]
20002b10:	6812      	ldr	r2, [r2, #0]
20002b12:	6812      	ldr	r2, [r2, #0]
20002b14:	f022 0201 	bic.w	r2, r2, #1
20002b18:	601a      	str	r2, [r3, #0]
    this_spi->hw_reg->CONTROL = this_spi->slaves_cfg[slave].ctrl_reg;
20002b1a:	687b      	ldr	r3, [r7, #4]
20002b1c:	681a      	ldr	r2, [r3, #0]
20002b1e:	78fb      	ldrb	r3, [r7, #3]
20002b20:	6879      	ldr	r1, [r7, #4]
20002b22:	f103 0306 	add.w	r3, r3, #6
20002b26:	ea4f 03c3 	mov.w	r3, r3, lsl #3
20002b2a:	440b      	add	r3, r1
20002b2c:	685b      	ldr	r3, [r3, #4]
20002b2e:	6013      	str	r3, [r2, #0]
    this_spi->hw_reg->CLK_GEN = this_spi->slaves_cfg[slave].clk_gen;
20002b30:	687b      	ldr	r3, [r7, #4]
20002b32:	681a      	ldr	r2, [r3, #0]
20002b34:	78fb      	ldrb	r3, [r7, #3]
20002b36:	6879      	ldr	r1, [r7, #4]
20002b38:	f103 0306 	add.w	r3, r3, #6
20002b3c:	ea4f 03c3 	mov.w	r3, r3, lsl #3
20002b40:	440b      	add	r3, r1
20002b42:	7a5b      	ldrb	r3, [r3, #9]
20002b44:	6193      	str	r3, [r2, #24]
    this_spi->hw_reg->TXRXDF_SIZE = this_spi->slaves_cfg[slave].txrxdf_size_reg;
20002b46:	687b      	ldr	r3, [r7, #4]
20002b48:	681a      	ldr	r2, [r3, #0]
20002b4a:	78fb      	ldrb	r3, [r7, #3]
20002b4c:	6879      	ldr	r1, [r7, #4]
20002b4e:	f103 0306 	add.w	r3, r3, #6
20002b52:	ea4f 03c3 	mov.w	r3, r3, lsl #3
20002b56:	440b      	add	r3, r1
20002b58:	7a1b      	ldrb	r3, [r3, #8]
20002b5a:	6053      	str	r3, [r2, #4]
    this_spi->hw_reg->CONTROL |= CTRL_ENABLE_MASK;
20002b5c:	687b      	ldr	r3, [r7, #4]
20002b5e:	681b      	ldr	r3, [r3, #0]
20002b60:	687a      	ldr	r2, [r7, #4]
20002b62:	6812      	ldr	r2, [r2, #0]
20002b64:	6812      	ldr	r2, [r2, #0]
20002b66:	f042 0201 	orr.w	r2, r2, #1
20002b6a:	601a      	str	r2, [r3, #0]
    
    /* Set slave select */
    this_spi->hw_reg->SLAVE_SELECT |= ((uint32_t)1 << (uint32_t)slave);
20002b6c:	687b      	ldr	r3, [r7, #4]
20002b6e:	681b      	ldr	r3, [r3, #0]
20002b70:	687a      	ldr	r2, [r7, #4]
20002b72:	6812      	ldr	r2, [r2, #0]
20002b74:	69d1      	ldr	r1, [r2, #28]
20002b76:	78fa      	ldrb	r2, [r7, #3]
20002b78:	f04f 0001 	mov.w	r0, #1
20002b7c:	fa00 f202 	lsl.w	r2, r0, r2
20002b80:	ea41 0202 	orr.w	r2, r1, r2
20002b84:	61da      	str	r2, [r3, #28]
    /* Reenable interrupts */
    NVIC_EnableIRQ( this_spi->irqn );
20002b86:	687b      	ldr	r3, [r7, #4]
20002b88:	889b      	ldrh	r3, [r3, #4]
20002b8a:	b21b      	sxth	r3, r3
20002b8c:	4618      	mov	r0, r3
20002b8e:	f7ff fd4f 	bl	20002630 <NVIC_EnableIRQ>
}
20002b92:	f107 0710 	add.w	r7, r7, #16
20002b96:	46bd      	mov	sp, r7
20002b98:	bd80      	pop	{r7, pc}
20002b9a:	bf00      	nop

20002b9c <MSS_SPI_clear_slave_select>:
void MSS_SPI_clear_slave_select
(
    mss_spi_instance_t * this_spi,
    mss_spi_slave_t slave
)
{
20002b9c:	b580      	push	{r7, lr}
20002b9e:	b084      	sub	sp, #16
20002ba0:	af00      	add	r7, sp, #0
20002ba2:	6078      	str	r0, [r7, #4]
20002ba4:	460b      	mov	r3, r1
20002ba6:	70fb      	strb	r3, [r7, #3]
    uint32_t rx_overflow;
    
    ASSERT((this_spi == &g_mss_spi0) || (this_spi == &g_mss_spi1));
20002ba8:	687a      	ldr	r2, [r7, #4]
20002baa:	f24b 4354 	movw	r3, #46164	; 0xb454
20002bae:	f2c2 0300 	movt	r3, #8192	; 0x2000
20002bb2:	429a      	cmp	r2, r3
20002bb4:	d007      	beq.n	20002bc6 <MSS_SPI_clear_slave_select+0x2a>
20002bb6:	687a      	ldr	r2, [r7, #4]
20002bb8:	f24b 33d0 	movw	r3, #46032	; 0xb3d0
20002bbc:	f2c2 0300 	movt	r3, #8192	; 0x2000
20002bc0:	429a      	cmp	r2, r3
20002bc2:	d000      	beq.n	20002bc6 <MSS_SPI_clear_slave_select+0x2a>
20002bc4:	be00      	bkpt	0x0000
    
    /* This function is only intended to be used with an SPI master. */
    ASSERT((this_spi->hw_reg->CONTROL & CTRL_MASTER_MASK) == CTRL_MASTER_MASK);
20002bc6:	687b      	ldr	r3, [r7, #4]
20002bc8:	681b      	ldr	r3, [r3, #0]
20002bca:	681b      	ldr	r3, [r3, #0]
20002bcc:	f003 0302 	and.w	r3, r3, #2
20002bd0:	2b00      	cmp	r3, #0
20002bd2:	d100      	bne.n	20002bd6 <MSS_SPI_clear_slave_select+0x3a>
20002bd4:	be00      	bkpt	0x0000

    /* Shut down interrupts from the MSS SPI while we do this */
    NVIC_DisableIRQ( this_spi->irqn );
20002bd6:	687b      	ldr	r3, [r7, #4]
20002bd8:	889b      	ldrh	r3, [r3, #4]
20002bda:	b21b      	sxth	r3, r3
20002bdc:	4618      	mov	r0, r3
20002bde:	f7ff fd43 	bl	20002668 <NVIC_DisableIRQ>

    /* Recover from receive overflow. */
    rx_overflow = this_spi->hw_reg->STATUS & RX_OVERFLOW_MASK;
20002be2:	687b      	ldr	r3, [r7, #4]
20002be4:	681b      	ldr	r3, [r3, #0]
20002be6:	689b      	ldr	r3, [r3, #8]
20002be8:	f003 0304 	and.w	r3, r3, #4
20002bec:	60fb      	str	r3, [r7, #12]
    if(rx_overflow)
20002bee:	68fb      	ldr	r3, [r7, #12]
20002bf0:	2b00      	cmp	r3, #0
20002bf2:	d002      	beq.n	20002bfa <MSS_SPI_clear_slave_select+0x5e>
    {
         recover_from_rx_overflow(this_spi);
20002bf4:	6878      	ldr	r0, [r7, #4]
20002bf6:	f7ff fe0d 	bl	20002814 <recover_from_rx_overflow>
    }
    
    this_spi->hw_reg->SLAVE_SELECT &= ~((uint32_t)1 << (uint32_t)slave);
20002bfa:	687b      	ldr	r3, [r7, #4]
20002bfc:	681b      	ldr	r3, [r3, #0]
20002bfe:	687a      	ldr	r2, [r7, #4]
20002c00:	6812      	ldr	r2, [r2, #0]
20002c02:	69d1      	ldr	r1, [r2, #28]
20002c04:	78fa      	ldrb	r2, [r7, #3]
20002c06:	f04f 0001 	mov.w	r0, #1
20002c0a:	fa00 f202 	lsl.w	r2, r0, r2
20002c0e:	ea6f 0202 	mvn.w	r2, r2
20002c12:	ea01 0202 	and.w	r2, r1, r2
20002c16:	61da      	str	r2, [r3, #28]
    /* Reenable interrupts */
    NVIC_EnableIRQ( this_spi->irqn );
20002c18:	687b      	ldr	r3, [r7, #4]
20002c1a:	889b      	ldrh	r3, [r3, #4]
20002c1c:	b21b      	sxth	r3, r3
20002c1e:	4618      	mov	r0, r3
20002c20:	f7ff fd06 	bl	20002630 <NVIC_EnableIRQ>
}
20002c24:	f107 0710 	add.w	r7, r7, #16
20002c28:	46bd      	mov	sp, r7
20002c2a:	bd80      	pop	{r7, pc}

20002c2c <MSS_SPI_transfer_frame>:
uint32_t MSS_SPI_transfer_frame
(
    mss_spi_instance_t * this_spi,
    uint32_t tx_bits
)
{
20002c2c:	b480      	push	{r7}
20002c2e:	b087      	sub	sp, #28
20002c30:	af00      	add	r7, sp, #0
20002c32:	6078      	str	r0, [r7, #4]
20002c34:	6039      	str	r1, [r7, #0]
    volatile uint32_t dummy;
    uint32_t rx_fifo_empty;
    uint32_t rx_ready;
    uint32_t tx_done;
    
    ASSERT((this_spi == &g_mss_spi0) || (this_spi == &g_mss_spi1));
20002c36:	687a      	ldr	r2, [r7, #4]
20002c38:	f24b 4354 	movw	r3, #46164	; 0xb454
20002c3c:	f2c2 0300 	movt	r3, #8192	; 0x2000
20002c40:	429a      	cmp	r2, r3
20002c42:	d007      	beq.n	20002c54 <MSS_SPI_transfer_frame+0x28>
20002c44:	687a      	ldr	r2, [r7, #4]
20002c46:	f24b 33d0 	movw	r3, #46032	; 0xb3d0
20002c4a:	f2c2 0300 	movt	r3, #8192	; 0x2000
20002c4e:	429a      	cmp	r2, r3
20002c50:	d000      	beq.n	20002c54 <MSS_SPI_transfer_frame+0x28>
20002c52:	be00      	bkpt	0x0000
    
    /* This function is only intended to be used with an SPI master. */
    ASSERT((this_spi->hw_reg->CONTROL & CTRL_MASTER_MASK) == CTRL_MASTER_MASK);
20002c54:	687b      	ldr	r3, [r7, #4]
20002c56:	681b      	ldr	r3, [r3, #0]
20002c58:	681b      	ldr	r3, [r3, #0]
20002c5a:	f003 0302 	and.w	r3, r3, #2
20002c5e:	2b00      	cmp	r3, #0
20002c60:	d100      	bne.n	20002c64 <MSS_SPI_transfer_frame+0x38>
20002c62:	be00      	bkpt	0x0000
    
    /* Ensure single frame transfer selected so interrupts work correctly */
    this_spi->hw_reg->CONTROL = (this_spi->hw_reg->CONTROL & ~TXRXDFCOUNT_MASK)
20002c64:	687b      	ldr	r3, [r7, #4]
20002c66:	681a      	ldr	r2, [r3, #0]
20002c68:	687b      	ldr	r3, [r7, #4]
20002c6a:	681b      	ldr	r3, [r3, #0]
20002c6c:	6819      	ldr	r1, [r3, #0]
20002c6e:	f240 03ff 	movw	r3, #255	; 0xff
20002c72:	f6cf 7300 	movt	r3, #65280	; 0xff00
20002c76:	ea01 0303 	and.w	r3, r1, r3
20002c7a:	f443 7380 	orr.w	r3, r3, #256	; 0x100
20002c7e:	6013      	str	r3, [r2, #0]
                                | ((uint32_t)1u << TXRXDFCOUNT_SHIFT);

    /* Flush the Tx and Rx FIFOs. Please note this does not have any effect on A2F200. */
    this_spi->hw_reg->COMMAND |= (TX_FIFO_RESET_MASK | RX_FIFO_RESET_MASK);
20002c80:	687b      	ldr	r3, [r7, #4]
20002c82:	681b      	ldr	r3, [r3, #0]
20002c84:	687a      	ldr	r2, [r7, #4]
20002c86:	6812      	ldr	r2, [r2, #0]
20002c88:	6ad2      	ldr	r2, [r2, #44]	; 0x2c
20002c8a:	f042 020c 	orr.w	r2, r2, #12
20002c8e:	62da      	str	r2, [r3, #44]	; 0x2c
    
    /* Flush Rx FIFO in case we are executing on A2F200. */
    rx_fifo_empty = this_spi->hw_reg->STATUS & RX_FIFO_EMPTY_MASK;
20002c90:	687b      	ldr	r3, [r7, #4]
20002c92:	681b      	ldr	r3, [r3, #0]
20002c94:	689b      	ldr	r3, [r3, #8]
20002c96:	f003 0340 	and.w	r3, r3, #64	; 0x40
20002c9a:	60fb      	str	r3, [r7, #12]
    while(0u == rx_fifo_empty)
20002c9c:	e00b      	b.n	20002cb6 <MSS_SPI_transfer_frame+0x8a>
    {
        dummy = this_spi->hw_reg->RX_DATA;
20002c9e:	687b      	ldr	r3, [r7, #4]
20002ca0:	681b      	ldr	r3, [r3, #0]
20002ca2:	691b      	ldr	r3, [r3, #16]
20002ca4:	60bb      	str	r3, [r7, #8]
        dummy = dummy;  /* Prevent Lint warning. */
20002ca6:	68bb      	ldr	r3, [r7, #8]
20002ca8:	60bb      	str	r3, [r7, #8]
        rx_fifo_empty = this_spi->hw_reg->STATUS & RX_FIFO_EMPTY_MASK;
20002caa:	687b      	ldr	r3, [r7, #4]
20002cac:	681b      	ldr	r3, [r3, #0]
20002cae:	689b      	ldr	r3, [r3, #8]
20002cb0:	f003 0340 	and.w	r3, r3, #64	; 0x40
20002cb4:	60fb      	str	r3, [r7, #12]
    /* Flush the Tx and Rx FIFOs. Please note this does not have any effect on A2F200. */
    this_spi->hw_reg->COMMAND |= (TX_FIFO_RESET_MASK | RX_FIFO_RESET_MASK);
    
    /* Flush Rx FIFO in case we are executing on A2F200. */
    rx_fifo_empty = this_spi->hw_reg->STATUS & RX_FIFO_EMPTY_MASK;
    while(0u == rx_fifo_empty)
20002cb6:	68fb      	ldr	r3, [r7, #12]
20002cb8:	2b00      	cmp	r3, #0
20002cba:	d0f0      	beq.n	20002c9e <MSS_SPI_transfer_frame+0x72>
        dummy = dummy;  /* Prevent Lint warning. */
        rx_fifo_empty = this_spi->hw_reg->STATUS & RX_FIFO_EMPTY_MASK;
    }
    
    /* Send frame. */
    this_spi->hw_reg->TX_DATA = tx_bits;
20002cbc:	687b      	ldr	r3, [r7, #4]
20002cbe:	681b      	ldr	r3, [r3, #0]
20002cc0:	683a      	ldr	r2, [r7, #0]
20002cc2:	615a      	str	r2, [r3, #20]
    
    /* Wait for frame Tx to complete. */
    tx_done = this_spi->hw_reg->STATUS & TX_DONE_MASK;
20002cc4:	687b      	ldr	r3, [r7, #4]
20002cc6:	681b      	ldr	r3, [r3, #0]
20002cc8:	689b      	ldr	r3, [r3, #8]
20002cca:	f003 0301 	and.w	r3, r3, #1
20002cce:	617b      	str	r3, [r7, #20]
    while(0u == tx_done)
20002cd0:	e005      	b.n	20002cde <MSS_SPI_transfer_frame+0xb2>
    {
        tx_done = this_spi->hw_reg->STATUS & TX_DONE_MASK;
20002cd2:	687b      	ldr	r3, [r7, #4]
20002cd4:	681b      	ldr	r3, [r3, #0]
20002cd6:	689b      	ldr	r3, [r3, #8]
20002cd8:	f003 0301 	and.w	r3, r3, #1
20002cdc:	617b      	str	r3, [r7, #20]
    /* Send frame. */
    this_spi->hw_reg->TX_DATA = tx_bits;
    
    /* Wait for frame Tx to complete. */
    tx_done = this_spi->hw_reg->STATUS & TX_DONE_MASK;
    while(0u == tx_done)
20002cde:	697b      	ldr	r3, [r7, #20]
20002ce0:	2b00      	cmp	r3, #0
20002ce2:	d0f6      	beq.n	20002cd2 <MSS_SPI_transfer_frame+0xa6>
        tx_done = this_spi->hw_reg->STATUS & TX_DONE_MASK;
    }
    
    /* Read received frame. */
    /* Wait for Rx complete. */
    rx_ready = this_spi->hw_reg->STATUS & RX_DATA_READY_MASK;
20002ce4:	687b      	ldr	r3, [r7, #4]
20002ce6:	681b      	ldr	r3, [r3, #0]
20002ce8:	689b      	ldr	r3, [r3, #8]
20002cea:	f003 0302 	and.w	r3, r3, #2
20002cee:	613b      	str	r3, [r7, #16]
    while(0u == rx_ready)
20002cf0:	e005      	b.n	20002cfe <MSS_SPI_transfer_frame+0xd2>
    {
        rx_ready = this_spi->hw_reg->STATUS & RX_DATA_READY_MASK;
20002cf2:	687b      	ldr	r3, [r7, #4]
20002cf4:	681b      	ldr	r3, [r3, #0]
20002cf6:	689b      	ldr	r3, [r3, #8]
20002cf8:	f003 0302 	and.w	r3, r3, #2
20002cfc:	613b      	str	r3, [r7, #16]
    }
    
    /* Read received frame. */
    /* Wait for Rx complete. */
    rx_ready = this_spi->hw_reg->STATUS & RX_DATA_READY_MASK;
    while(0u == rx_ready)
20002cfe:	693b      	ldr	r3, [r7, #16]
20002d00:	2b00      	cmp	r3, #0
20002d02:	d0f6      	beq.n	20002cf2 <MSS_SPI_transfer_frame+0xc6>
    {
        rx_ready = this_spi->hw_reg->STATUS & RX_DATA_READY_MASK;
    }
    /* Return Rx data. */
    return( this_spi->hw_reg->RX_DATA );
20002d04:	687b      	ldr	r3, [r7, #4]
20002d06:	681b      	ldr	r3, [r3, #0]
20002d08:	691b      	ldr	r3, [r3, #16]
}
20002d0a:	4618      	mov	r0, r3
20002d0c:	f107 071c 	add.w	r7, r7, #28
20002d10:	46bd      	mov	sp, r7
20002d12:	bc80      	pop	{r7}
20002d14:	4770      	bx	lr
20002d16:	bf00      	nop

20002d18 <fill_slave_tx_fifo>:
 */
static void fill_slave_tx_fifo
(
    mss_spi_instance_t * this_spi
)
{
20002d18:	b480      	push	{r7}
20002d1a:	b085      	sub	sp, #20
20002d1c:	af00      	add	r7, sp, #0
20002d1e:	6078      	str	r0, [r7, #4]
    uint32_t guard = 0u;
20002d20:	f04f 0300 	mov.w	r3, #0
20002d24:	60fb      	str	r3, [r7, #12]

    while((0u == (this_spi->hw_reg->STATUS & TX_FIFO_FULL_MASK)) &&
20002d26:	e00e      	b.n	20002d46 <fill_slave_tx_fifo+0x2e>
          (this_spi->slave_tx_idx < this_spi->slave_tx_size))
    {
        /* Sending from primary slave transmit buffer */
        this_spi->hw_reg->TX_DATA = this_spi->slave_tx_buffer[this_spi->slave_tx_idx];
20002d28:	687b      	ldr	r3, [r7, #4]
20002d2a:	681b      	ldr	r3, [r3, #0]
20002d2c:	687a      	ldr	r2, [r7, #4]
20002d2e:	6891      	ldr	r1, [r2, #8]
20002d30:	687a      	ldr	r2, [r7, #4]
20002d32:	6912      	ldr	r2, [r2, #16]
20002d34:	440a      	add	r2, r1
20002d36:	7812      	ldrb	r2, [r2, #0]
20002d38:	615a      	str	r2, [r3, #20]
        ++this_spi->slave_tx_idx;
20002d3a:	687b      	ldr	r3, [r7, #4]
20002d3c:	691b      	ldr	r3, [r3, #16]
20002d3e:	f103 0201 	add.w	r2, r3, #1
20002d42:	687b      	ldr	r3, [r7, #4]
20002d44:	611a      	str	r2, [r3, #16]
    mss_spi_instance_t * this_spi
)
{
    uint32_t guard = 0u;

    while((0u == (this_spi->hw_reg->STATUS & TX_FIFO_FULL_MASK)) &&
20002d46:	687b      	ldr	r3, [r7, #4]
20002d48:	681b      	ldr	r3, [r3, #0]
20002d4a:	689b      	ldr	r3, [r3, #8]
20002d4c:	f403 7380 	and.w	r3, r3, #256	; 0x100
20002d50:	2b00      	cmp	r3, #0
20002d52:	d105      	bne.n	20002d60 <fill_slave_tx_fifo+0x48>
          (this_spi->slave_tx_idx < this_spi->slave_tx_size))
20002d54:	687b      	ldr	r3, [r7, #4]
20002d56:	691a      	ldr	r2, [r3, #16]
20002d58:	687b      	ldr	r3, [r7, #4]
20002d5a:	68db      	ldr	r3, [r3, #12]
    mss_spi_instance_t * this_spi
)
{
    uint32_t guard = 0u;

    while((0u == (this_spi->hw_reg->STATUS & TX_FIFO_FULL_MASK)) &&
20002d5c:	429a      	cmp	r2, r3
20002d5e:	d3e3      	bcc.n	20002d28 <fill_slave_tx_fifo+0x10>
        /* Sending from primary slave transmit buffer */
        this_spi->hw_reg->TX_DATA = this_spi->slave_tx_buffer[this_spi->slave_tx_idx];
        ++this_spi->slave_tx_idx;
    }

    if(this_spi->slave_tx_idx >= this_spi->slave_tx_size)
20002d60:	687b      	ldr	r3, [r7, #4]
20002d62:	691a      	ldr	r2, [r3, #16]
20002d64:	687b      	ldr	r3, [r7, #4]
20002d66:	68db      	ldr	r3, [r3, #12]
20002d68:	429a      	cmp	r2, r3
20002d6a:	d31c      	bcc.n	20002da6 <fill_slave_tx_fifo+0x8e>
    {
        while((0u == (this_spi->hw_reg->STATUS & TX_FIFO_FULL_MASK)) &&
20002d6c:	e00e      	b.n	20002d8c <fill_slave_tx_fifo+0x74>
              (this_spi->resp_buff_tx_idx < this_spi->resp_buff_size))
        {
            /* Sending from command response buffer */
            this_spi->hw_reg->TX_DATA = this_spi->resp_tx_buffer[this_spi->resp_buff_tx_idx];
20002d6e:	687b      	ldr	r3, [r7, #4]
20002d70:	681b      	ldr	r3, [r3, #0]
20002d72:	687a      	ldr	r2, [r7, #4]
20002d74:	6951      	ldr	r1, [r2, #20]
20002d76:	687a      	ldr	r2, [r7, #4]
20002d78:	69d2      	ldr	r2, [r2, #28]
20002d7a:	440a      	add	r2, r1
20002d7c:	7812      	ldrb	r2, [r2, #0]
20002d7e:	615a      	str	r2, [r3, #20]
            ++this_spi->resp_buff_tx_idx;
20002d80:	687b      	ldr	r3, [r7, #4]
20002d82:	69db      	ldr	r3, [r3, #28]
20002d84:	f103 0201 	add.w	r2, r3, #1
20002d88:	687b      	ldr	r3, [r7, #4]
20002d8a:	61da      	str	r2, [r3, #28]
        ++this_spi->slave_tx_idx;
    }

    if(this_spi->slave_tx_idx >= this_spi->slave_tx_size)
    {
        while((0u == (this_spi->hw_reg->STATUS & TX_FIFO_FULL_MASK)) &&
20002d8c:	687b      	ldr	r3, [r7, #4]
20002d8e:	681b      	ldr	r3, [r3, #0]
20002d90:	689b      	ldr	r3, [r3, #8]
20002d92:	f403 7380 	and.w	r3, r3, #256	; 0x100
20002d96:	2b00      	cmp	r3, #0
20002d98:	d105      	bne.n	20002da6 <fill_slave_tx_fifo+0x8e>
              (this_spi->resp_buff_tx_idx < this_spi->resp_buff_size))
20002d9a:	687b      	ldr	r3, [r7, #4]
20002d9c:	69da      	ldr	r2, [r3, #28]
20002d9e:	687b      	ldr	r3, [r7, #4]
20002da0:	699b      	ldr	r3, [r3, #24]
        ++this_spi->slave_tx_idx;
    }

    if(this_spi->slave_tx_idx >= this_spi->slave_tx_size)
    {
        while((0u == (this_spi->hw_reg->STATUS & TX_FIFO_FULL_MASK)) &&
20002da2:	429a      	cmp	r2, r3
20002da4:	d3e3      	bcc.n	20002d6e <fill_slave_tx_fifo+0x56>
            this_spi->hw_reg->TX_DATA = this_spi->resp_tx_buffer[this_spi->resp_buff_tx_idx];
            ++this_spi->resp_buff_tx_idx;
        }
    }

    if((0u != this_spi->cmd_done) && (this_spi->slave_tx_idx >= this_spi->slave_tx_size) &&
20002da6:	687b      	ldr	r3, [r7, #4]
20002da8:	6a5b      	ldr	r3, [r3, #36]	; 0x24
20002daa:	2b00      	cmp	r3, #0
20002dac:	d01f      	beq.n	20002dee <fill_slave_tx_fifo+0xd6>
20002dae:	687b      	ldr	r3, [r7, #4]
20002db0:	691a      	ldr	r2, [r3, #16]
20002db2:	687b      	ldr	r3, [r7, #4]
20002db4:	68db      	ldr	r3, [r3, #12]
20002db6:	429a      	cmp	r2, r3
20002db8:	d319      	bcc.n	20002dee <fill_slave_tx_fifo+0xd6>
       (this_spi->resp_buff_tx_idx >= this_spi->resp_buff_size))
20002dba:	687b      	ldr	r3, [r7, #4]
20002dbc:	69da      	ldr	r2, [r3, #28]
20002dbe:	687b      	ldr	r3, [r7, #4]
20002dc0:	699b      	ldr	r3, [r3, #24]
            this_spi->hw_reg->TX_DATA = this_spi->resp_tx_buffer[this_spi->resp_buff_tx_idx];
            ++this_spi->resp_buff_tx_idx;
        }
    }

    if((0u != this_spi->cmd_done) && (this_spi->slave_tx_idx >= this_spi->slave_tx_size) &&
20002dc2:	429a      	cmp	r2, r3
20002dc4:	d313      	bcc.n	20002dee <fill_slave_tx_fifo+0xd6>
       (this_spi->resp_buff_tx_idx >= this_spi->resp_buff_size))
    {
        while((0u == (this_spi->hw_reg->STATUS & TX_FIFO_FULL_MASK)) &&
20002dc6:	e008      	b.n	20002dda <fill_slave_tx_fifo+0xc2>
              (guard < BIG_FIFO_SIZE))
        {
            /* Nothing left so pad with 0s for consistency */
            this_spi->hw_reg->TX_DATA = 0x00u;
20002dc8:	687b      	ldr	r3, [r7, #4]
20002dca:	681b      	ldr	r3, [r3, #0]
20002dcc:	f04f 0200 	mov.w	r2, #0
20002dd0:	615a      	str	r2, [r3, #20]
             * We use the guard count to cover the unlikely event that we are
             * never seeing the TX FIFO full because the data is being pulled
             * out as fast as we can stuff it in. In this event we never spend
             * more than a full FIFOs worth of time spinning here.
             */
            guard++;
20002dd2:	68fb      	ldr	r3, [r7, #12]
20002dd4:	f103 0301 	add.w	r3, r3, #1
20002dd8:	60fb      	str	r3, [r7, #12]
    }

    if((0u != this_spi->cmd_done) && (this_spi->slave_tx_idx >= this_spi->slave_tx_size) &&
       (this_spi->resp_buff_tx_idx >= this_spi->resp_buff_size))
    {
        while((0u == (this_spi->hw_reg->STATUS & TX_FIFO_FULL_MASK)) &&
20002dda:	687b      	ldr	r3, [r7, #4]
20002ddc:	681b      	ldr	r3, [r3, #0]
20002dde:	689b      	ldr	r3, [r3, #8]
20002de0:	f403 7380 	and.w	r3, r3, #256	; 0x100
20002de4:	2b00      	cmp	r3, #0
20002de6:	d102      	bne.n	20002dee <fill_slave_tx_fifo+0xd6>
20002de8:	68fb      	ldr	r3, [r7, #12]
20002dea:	2b1f      	cmp	r3, #31
20002dec:	d9ec      	bls.n	20002dc8 <fill_slave_tx_fifo+0xb0>
             */
            guard++;
        }
    }

}
20002dee:	f107 0714 	add.w	r7, r7, #20
20002df2:	46bd      	mov	sp, r7
20002df4:	bc80      	pop	{r7}
20002df6:	4770      	bx	lr

20002df8 <read_slave_rx_fifo>:
 */
static void read_slave_rx_fifo
(
    mss_spi_instance_t * this_spi
)
{
20002df8:	b580      	push	{r7, lr}
20002dfa:	b084      	sub	sp, #16
20002dfc:	af00      	add	r7, sp, #0
20002dfe:	6078      	str	r0, [r7, #4]
    volatile uint32_t rx_frame;
    
    if(MSS_SPI_SLAVE_XFER_FRAME == this_spi->slave_xfer_mode)
20002e00:	687b      	ldr	r3, [r7, #4]
20002e02:	f893 3080 	ldrb.w	r3, [r3, #128]	; 0x80
20002e06:	2b02      	cmp	r3, #2
20002e08:	d115      	bne.n	20002e36 <read_slave_rx_fifo+0x3e>
    {
        while(0u == (this_spi->hw_reg->STATUS & RX_FIFO_EMPTY_MASK))
20002e0a:	e00c      	b.n	20002e26 <read_slave_rx_fifo+0x2e>
        {
            /* Single frame handling mode. */
            rx_frame = this_spi->hw_reg->RX_DATA;
20002e0c:	687b      	ldr	r3, [r7, #4]
20002e0e:	681b      	ldr	r3, [r3, #0]
20002e10:	691b      	ldr	r3, [r3, #16]
20002e12:	60fb      	str	r3, [r7, #12]
            if(0u != this_spi->frame_rx_handler)
20002e14:	687b      	ldr	r3, [r7, #4]
20002e16:	6f5b      	ldr	r3, [r3, #116]	; 0x74
20002e18:	2b00      	cmp	r3, #0
20002e1a:	d004      	beq.n	20002e26 <read_slave_rx_fifo+0x2e>
            {
                this_spi->frame_rx_handler( rx_frame );
20002e1c:	687b      	ldr	r3, [r7, #4]
20002e1e:	6f5b      	ldr	r3, [r3, #116]	; 0x74
20002e20:	68fa      	ldr	r2, [r7, #12]
20002e22:	4610      	mov	r0, r2
20002e24:	4798      	blx	r3
{
    volatile uint32_t rx_frame;
    
    if(MSS_SPI_SLAVE_XFER_FRAME == this_spi->slave_xfer_mode)
    {
        while(0u == (this_spi->hw_reg->STATUS & RX_FIFO_EMPTY_MASK))
20002e26:	687b      	ldr	r3, [r7, #4]
20002e28:	681b      	ldr	r3, [r3, #0]
20002e2a:	689b      	ldr	r3, [r3, #8]
20002e2c:	f003 0340 	and.w	r3, r3, #64	; 0x40
20002e30:	2b00      	cmp	r3, #0
20002e32:	d0eb      	beq.n	20002e0c <read_slave_rx_fifo+0x14>
20002e34:	e032      	b.n	20002e9c <read_slave_rx_fifo+0xa4>
            {
                this_spi->frame_rx_handler( rx_frame );
            }
        }
    }
    else if(MSS_SPI_SLAVE_XFER_BLOCK == this_spi->slave_xfer_mode)
20002e36:	687b      	ldr	r3, [r7, #4]
20002e38:	f893 3080 	ldrb.w	r3, [r3, #128]	; 0x80
20002e3c:	2b01      	cmp	r3, #1
20002e3e:	d125      	bne.n	20002e8c <read_slave_rx_fifo+0x94>
    {
        /* Block handling mode. */
        while(0u == (this_spi->hw_reg->STATUS & RX_FIFO_EMPTY_MASK)) /* Something needs to be read from FIFO */
20002e40:	e017      	b.n	20002e72 <read_slave_rx_fifo+0x7a>
        {
            rx_frame = this_spi->hw_reg->RX_DATA;
20002e42:	687b      	ldr	r3, [r7, #4]
20002e44:	681b      	ldr	r3, [r3, #0]
20002e46:	691b      	ldr	r3, [r3, #16]
20002e48:	60fb      	str	r3, [r7, #12]
            if(this_spi->slave_rx_idx < this_spi->slave_rx_size)
20002e4a:	687b      	ldr	r3, [r7, #4]
20002e4c:	6b1a      	ldr	r2, [r3, #48]	; 0x30
20002e4e:	687b      	ldr	r3, [r7, #4]
20002e50:	6adb      	ldr	r3, [r3, #44]	; 0x2c
20002e52:	429a      	cmp	r2, r3
20002e54:	d207      	bcs.n	20002e66 <read_slave_rx_fifo+0x6e>
            {
                this_spi->slave_rx_buffer[this_spi->slave_rx_idx] = (uint8_t)rx_frame;
20002e56:	687b      	ldr	r3, [r7, #4]
20002e58:	6a9a      	ldr	r2, [r3, #40]	; 0x28
20002e5a:	687b      	ldr	r3, [r7, #4]
20002e5c:	6b1b      	ldr	r3, [r3, #48]	; 0x30
20002e5e:	4413      	add	r3, r2
20002e60:	68fa      	ldr	r2, [r7, #12]
20002e62:	b2d2      	uxtb	r2, r2
20002e64:	701a      	strb	r2, [r3, #0]
            }

            ++this_spi->slave_rx_idx;
20002e66:	687b      	ldr	r3, [r7, #4]
20002e68:	6b1b      	ldr	r3, [r3, #48]	; 0x30
20002e6a:	f103 0201 	add.w	r2, r3, #1
20002e6e:	687b      	ldr	r3, [r7, #4]
20002e70:	631a      	str	r2, [r3, #48]	; 0x30
        }
    }
    else if(MSS_SPI_SLAVE_XFER_BLOCK == this_spi->slave_xfer_mode)
    {
        /* Block handling mode. */
        while(0u == (this_spi->hw_reg->STATUS & RX_FIFO_EMPTY_MASK)) /* Something needs to be read from FIFO */
20002e72:	687b      	ldr	r3, [r7, #4]
20002e74:	681b      	ldr	r3, [r3, #0]
20002e76:	689b      	ldr	r3, [r3, #8]
20002e78:	f003 0340 	and.w	r3, r3, #64	; 0x40
20002e7c:	2b00      	cmp	r3, #0
20002e7e:	d0e0      	beq.n	20002e42 <read_slave_rx_fifo+0x4a>
20002e80:	e00c      	b.n	20002e9c <read_slave_rx_fifo+0xa4>
    else
    {
        /* Should not happen... Just purge FIFO */
        while(0u == (this_spi->hw_reg->STATUS & RX_FIFO_EMPTY_MASK))
        {
            rx_frame = this_spi->hw_reg->RX_DATA;
20002e82:	687b      	ldr	r3, [r7, #4]
20002e84:	681b      	ldr	r3, [r3, #0]
20002e86:	691b      	ldr	r3, [r3, #16]
20002e88:	60fb      	str	r3, [r7, #12]
20002e8a:	e000      	b.n	20002e8e <read_slave_rx_fifo+0x96>
        }
    }
    else
    {
        /* Should not happen... Just purge FIFO */
        while(0u == (this_spi->hw_reg->STATUS & RX_FIFO_EMPTY_MASK))
20002e8c:	bf00      	nop
20002e8e:	687b      	ldr	r3, [r7, #4]
20002e90:	681b      	ldr	r3, [r3, #0]
20002e92:	689b      	ldr	r3, [r3, #8]
20002e94:	f003 0340 	and.w	r3, r3, #64	; 0x40
20002e98:	2b00      	cmp	r3, #0
20002e9a:	d0f2      	beq.n	20002e82 <read_slave_rx_fifo+0x8a>
        {
            rx_frame = this_spi->hw_reg->RX_DATA;
        }
    }
}
20002e9c:	f107 0710 	add.w	r7, r7, #16
20002ea0:	46bd      	mov	sp, r7
20002ea2:	bd80      	pop	{r7, pc}

20002ea4 <mss_spi_isr>:
 */
static void mss_spi_isr
(
    mss_spi_instance_t * this_spi
)
{    
20002ea4:	b580      	push	{r7, lr}
20002ea6:	b086      	sub	sp, #24
20002ea8:	af00      	add	r7, sp, #0
20002eaa:	6078      	str	r0, [r7, #4]
    volatile uint32_t rx_frame;
    __I  uint32_t *this_mis = &this_spi->hw_reg->MIS;
20002eac:	687b      	ldr	r3, [r7, #4]
20002eae:	681b      	ldr	r3, [r3, #0]
20002eb0:	f103 0320 	add.w	r3, r3, #32
20002eb4:	613b      	str	r3, [r7, #16]

    ASSERT((this_spi == &g_mss_spi0) || (this_spi == &g_mss_spi1));
20002eb6:	687a      	ldr	r2, [r7, #4]
20002eb8:	f24b 4354 	movw	r3, #46164	; 0xb454
20002ebc:	f2c2 0300 	movt	r3, #8192	; 0x2000
20002ec0:	429a      	cmp	r2, r3
20002ec2:	d007      	beq.n	20002ed4 <mss_spi_isr+0x30>
20002ec4:	687a      	ldr	r2, [r7, #4]
20002ec6:	f24b 33d0 	movw	r3, #46032	; 0xb3d0
20002eca:	f2c2 0300 	movt	r3, #8192	; 0x2000
20002ece:	429a      	cmp	r2, r3
20002ed0:	d000      	beq.n	20002ed4 <mss_spi_isr+0x30>
20002ed2:	be00      	bkpt	0x0000
  
    if(0u != (*this_mis & RXDONE_IRQ_MASK))
20002ed4:	693b      	ldr	r3, [r7, #16]
20002ed6:	681b      	ldr	r3, [r3, #0]
20002ed8:	f003 0302 	and.w	r3, r3, #2
20002edc:	2b00      	cmp	r3, #0
20002ede:	d052      	beq.n	20002f86 <mss_spi_isr+0xe2>
    {
        if(MSS_SPI_SLAVE_XFER_FRAME == this_spi->slave_xfer_mode)
20002ee0:	687b      	ldr	r3, [r7, #4]
20002ee2:	f893 3080 	ldrb.w	r3, [r3, #128]	; 0x80
20002ee6:	2b02      	cmp	r3, #2
20002ee8:	d115      	bne.n	20002f16 <mss_spi_isr+0x72>
        {
            /* Single frame handling mode. */
            while(0u == (this_spi->hw_reg->STATUS & RX_FIFO_EMPTY_MASK))
20002eea:	e00c      	b.n	20002f06 <mss_spi_isr+0x62>
            {
                rx_frame = this_spi->hw_reg->RX_DATA;
20002eec:	687b      	ldr	r3, [r7, #4]
20002eee:	681b      	ldr	r3, [r3, #0]
20002ef0:	691b      	ldr	r3, [r3, #16]
20002ef2:	60fb      	str	r3, [r7, #12]
                if(0u != this_spi->frame_rx_handler)
20002ef4:	687b      	ldr	r3, [r7, #4]
20002ef6:	6f5b      	ldr	r3, [r3, #116]	; 0x74
20002ef8:	2b00      	cmp	r3, #0
20002efa:	d004      	beq.n	20002f06 <mss_spi_isr+0x62>
                {
                    this_spi->frame_rx_handler( rx_frame );
20002efc:	687b      	ldr	r3, [r7, #4]
20002efe:	6f5b      	ldr	r3, [r3, #116]	; 0x74
20002f00:	68fa      	ldr	r2, [r7, #12]
20002f02:	4610      	mov	r0, r2
20002f04:	4798      	blx	r3
    if(0u != (*this_mis & RXDONE_IRQ_MASK))
    {
        if(MSS_SPI_SLAVE_XFER_FRAME == this_spi->slave_xfer_mode)
        {
            /* Single frame handling mode. */
            while(0u == (this_spi->hw_reg->STATUS & RX_FIFO_EMPTY_MASK))
20002f06:	687b      	ldr	r3, [r7, #4]
20002f08:	681b      	ldr	r3, [r3, #0]
20002f0a:	689b      	ldr	r3, [r3, #8]
20002f0c:	f003 0340 	and.w	r3, r3, #64	; 0x40
20002f10:	2b00      	cmp	r3, #0
20002f12:	d0eb      	beq.n	20002eec <mss_spi_isr+0x48>
20002f14:	e032      	b.n	20002f7c <mss_spi_isr+0xd8>
                {
                    this_spi->frame_rx_handler( rx_frame );
                }
            }
        }
        else if(MSS_SPI_SLAVE_XFER_BLOCK == this_spi->slave_xfer_mode)
20002f16:	687b      	ldr	r3, [r7, #4]
20002f18:	f893 3080 	ldrb.w	r3, [r3, #128]	; 0x80
20002f1c:	2b01      	cmp	r3, #1
20002f1e:	d125      	bne.n	20002f6c <mss_spi_isr+0xc8>
        {
            /* Block handling mode. */
            while(0u == (this_spi->hw_reg->STATUS & RX_FIFO_EMPTY_MASK)) /* Something needs to be read from FIFO */
20002f20:	e017      	b.n	20002f52 <mss_spi_isr+0xae>
            {
                rx_frame = this_spi->hw_reg->RX_DATA;                /* Read from FIFO irrespective */
20002f22:	687b      	ldr	r3, [r7, #4]
20002f24:	681b      	ldr	r3, [r3, #0]
20002f26:	691b      	ldr	r3, [r3, #16]
20002f28:	60fb      	str	r3, [r7, #12]
                if(this_spi->slave_rx_idx < this_spi->slave_rx_size) /* Write to array if required */
20002f2a:	687b      	ldr	r3, [r7, #4]
20002f2c:	6b1a      	ldr	r2, [r3, #48]	; 0x30
20002f2e:	687b      	ldr	r3, [r7, #4]
20002f30:	6adb      	ldr	r3, [r3, #44]	; 0x2c
20002f32:	429a      	cmp	r2, r3
20002f34:	d207      	bcs.n	20002f46 <mss_spi_isr+0xa2>
                {
                    this_spi->slave_rx_buffer[this_spi->slave_rx_idx] = (uint8_t)rx_frame;
20002f36:	687b      	ldr	r3, [r7, #4]
20002f38:	6a9a      	ldr	r2, [r3, #40]	; 0x28
20002f3a:	687b      	ldr	r3, [r7, #4]
20002f3c:	6b1b      	ldr	r3, [r3, #48]	; 0x30
20002f3e:	4413      	add	r3, r2
20002f40:	68fa      	ldr	r2, [r7, #12]
20002f42:	b2d2      	uxtb	r2, r2
20002f44:	701a      	strb	r2, [r3, #0]
                }

                ++this_spi->slave_rx_idx;            
20002f46:	687b      	ldr	r3, [r7, #4]
20002f48:	6b1b      	ldr	r3, [r3, #48]	; 0x30
20002f4a:	f103 0201 	add.w	r2, r3, #1
20002f4e:	687b      	ldr	r3, [r7, #4]
20002f50:	631a      	str	r2, [r3, #48]	; 0x30
            }
        }
        else if(MSS_SPI_SLAVE_XFER_BLOCK == this_spi->slave_xfer_mode)
        {
            /* Block handling mode. */
            while(0u == (this_spi->hw_reg->STATUS & RX_FIFO_EMPTY_MASK)) /* Something needs to be read from FIFO */
20002f52:	687b      	ldr	r3, [r7, #4]
20002f54:	681b      	ldr	r3, [r3, #0]
20002f56:	689b      	ldr	r3, [r3, #8]
20002f58:	f003 0340 	and.w	r3, r3, #64	; 0x40
20002f5c:	2b00      	cmp	r3, #0
20002f5e:	d0e0      	beq.n	20002f22 <mss_spi_isr+0x7e>
20002f60:	e00c      	b.n	20002f7c <mss_spi_isr+0xd8>
        else
        {
            /* No slave handling in place so just purge FIFO */
            while(0u == (this_spi->hw_reg->STATUS & RX_FIFO_EMPTY_MASK))
            {
                rx_frame = this_spi->hw_reg->RX_DATA;
20002f62:	687b      	ldr	r3, [r7, #4]
20002f64:	681b      	ldr	r3, [r3, #0]
20002f66:	691b      	ldr	r3, [r3, #16]
20002f68:	60fb      	str	r3, [r7, #12]
20002f6a:	e000      	b.n	20002f6e <mss_spi_isr+0xca>
            }
        }
        else
        {
            /* No slave handling in place so just purge FIFO */
            while(0u == (this_spi->hw_reg->STATUS & RX_FIFO_EMPTY_MASK))
20002f6c:	bf00      	nop
20002f6e:	687b      	ldr	r3, [r7, #4]
20002f70:	681b      	ldr	r3, [r3, #0]
20002f72:	689b      	ldr	r3, [r3, #8]
20002f74:	f003 0340 	and.w	r3, r3, #64	; 0x40
20002f78:	2b00      	cmp	r3, #0
20002f7a:	d0f2      	beq.n	20002f62 <mss_spi_isr+0xbe>
            {
                rx_frame = this_spi->hw_reg->RX_DATA;
            }
        }

        this_spi->hw_reg->INT_CLEAR = RXDONE_IRQ_MASK;
20002f7c:	687b      	ldr	r3, [r7, #4]
20002f7e:	681b      	ldr	r3, [r3, #0]
20002f80:	f04f 0202 	mov.w	r2, #2
20002f84:	60da      	str	r2, [r3, #12]
    }

   /* Handle transmit. */
    if(0u != (*this_mis & TXDONE_IRQ_MASK))
20002f86:	693b      	ldr	r3, [r7, #16]
20002f88:	681b      	ldr	r3, [r3, #0]
20002f8a:	f003 0301 	and.w	r3, r3, #1
20002f8e:	b2db      	uxtb	r3, r3
20002f90:	2b00      	cmp	r3, #0
20002f92:	d012      	beq.n	20002fba <mss_spi_isr+0x116>
    {
        if( MSS_SPI_SLAVE_XFER_FRAME == this_spi->slave_xfer_mode )
20002f94:	687b      	ldr	r3, [r7, #4]
20002f96:	f893 3080 	ldrb.w	r3, [r3, #128]	; 0x80
20002f9a:	2b02      	cmp	r3, #2
20002f9c:	d105      	bne.n	20002faa <mss_spi_isr+0x106>
        {
           /* Reload slave tx frame into Tx data register. */
            this_spi->hw_reg->TX_DATA = this_spi->slave_tx_frame;
20002f9e:	687b      	ldr	r3, [r7, #4]
20002fa0:	681b      	ldr	r3, [r3, #0]
20002fa2:	687a      	ldr	r2, [r7, #4]
20002fa4:	6f92      	ldr	r2, [r2, #120]	; 0x78
20002fa6:	615a      	str	r2, [r3, #20]
20002fa8:	e002      	b.n	20002fb0 <mss_spi_isr+0x10c>
        }
        else /* Must be block mode so load FIFO to the max */
        {
            fill_slave_tx_fifo(this_spi);
20002faa:	6878      	ldr	r0, [r7, #4]
20002fac:	f7ff feb4 	bl	20002d18 <fill_slave_tx_fifo>
        }

        this_spi->hw_reg->INT_CLEAR = TXDONE_IRQ_MASK;
20002fb0:	687b      	ldr	r3, [r7, #4]
20002fb2:	681b      	ldr	r3, [r3, #0]
20002fb4:	f04f 0201 	mov.w	r2, #1
20002fb8:	60da      	str	r2, [r3, #12]
    }
    
    /* Handle command interrupt. */
    if(0u != (*this_mis & CMD_IRQ_MASK))
20002fba:	693b      	ldr	r3, [r7, #16]
20002fbc:	681b      	ldr	r3, [r3, #0]
20002fbe:	f003 0310 	and.w	r3, r3, #16
20002fc2:	2b00      	cmp	r3, #0
20002fc4:	d023      	beq.n	2000300e <mss_spi_isr+0x16a>
    {
        read_slave_rx_fifo(this_spi);
20002fc6:	6878      	ldr	r0, [r7, #4]
20002fc8:	f7ff ff16 	bl	20002df8 <read_slave_rx_fifo>
        
        /*
         * Call the command handler if one exists.
         */
        if(0u != this_spi->cmd_handler)
20002fcc:	687b      	ldr	r3, [r7, #4]
20002fce:	6a1b      	ldr	r3, [r3, #32]
20002fd0:	2b00      	cmp	r3, #0
20002fd2:	d00b      	beq.n	20002fec <mss_spi_isr+0x148>
        {
            (*this_spi->cmd_handler)(this_spi->slave_rx_buffer, this_spi->slave_rx_idx);
20002fd4:	687b      	ldr	r3, [r7, #4]
20002fd6:	6a1b      	ldr	r3, [r3, #32]
20002fd8:	687a      	ldr	r2, [r7, #4]
20002fda:	6a91      	ldr	r1, [r2, #40]	; 0x28
20002fdc:	687a      	ldr	r2, [r7, #4]
20002fde:	6b12      	ldr	r2, [r2, #48]	; 0x30
20002fe0:	4608      	mov	r0, r1
20002fe2:	4611      	mov	r1, r2
20002fe4:	4798      	blx	r3
            fill_slave_tx_fifo(this_spi);
20002fe6:	6878      	ldr	r0, [r7, #4]
20002fe8:	f7ff fe96 	bl	20002d18 <fill_slave_tx_fifo>
        }
        /* Set cmd_done to indicate it is now safe to 0 fill TX FIFO */
        this_spi->cmd_done = 1u;
20002fec:	687b      	ldr	r3, [r7, #4]
20002fee:	f04f 0201 	mov.w	r2, #1
20002ff2:	625a      	str	r2, [r3, #36]	; 0x24
        /* Disable command interrupt until slave select becomes de-asserted to avoid retriggering. */
        this_spi->hw_reg->CONTROL2 &= ~(uint32_t)C2_ENABLE_CMD_IRQ_MASK;
20002ff4:	687b      	ldr	r3, [r7, #4]
20002ff6:	681b      	ldr	r3, [r3, #0]
20002ff8:	687a      	ldr	r2, [r7, #4]
20002ffa:	6812      	ldr	r2, [r2, #0]
20002ffc:	6a92      	ldr	r2, [r2, #40]	; 0x28
20002ffe:	f022 0210 	bic.w	r2, r2, #16
20003002:	629a      	str	r2, [r3, #40]	; 0x28
        this_spi->hw_reg->INT_CLEAR = CMD_IRQ_MASK;
20003004:	687b      	ldr	r3, [r7, #4]
20003006:	681b      	ldr	r3, [r3, #0]
20003008:	f04f 0210 	mov.w	r2, #16
2000300c:	60da      	str	r2, [r3, #12]
    }

    if(0u != (*this_mis & RXOVFLOW_IRQ_MASK))
2000300e:	693b      	ldr	r3, [r7, #16]
20003010:	681b      	ldr	r3, [r3, #0]
20003012:	f003 0304 	and.w	r3, r3, #4
20003016:	2b00      	cmp	r3, #0
20003018:	d00f      	beq.n	2000303a <mss_spi_isr+0x196>
    {
        /*
         * Receive overflow, not a lot we can do for this. Reset the receive
         *  FIFO, clear the interrupt and hope it doesn't happen again...
         */
        this_spi->hw_reg->COMMAND |= RX_FIFO_RESET_MASK;
2000301a:	687b      	ldr	r3, [r7, #4]
2000301c:	681b      	ldr	r3, [r3, #0]
2000301e:	687a      	ldr	r2, [r7, #4]
20003020:	6812      	ldr	r2, [r2, #0]
20003022:	6ad2      	ldr	r2, [r2, #44]	; 0x2c
20003024:	f042 0204 	orr.w	r2, r2, #4
20003028:	62da      	str	r2, [r3, #44]	; 0x2c
        recover_from_rx_overflow(this_spi);
2000302a:	6878      	ldr	r0, [r7, #4]
2000302c:	f7ff fbf2 	bl	20002814 <recover_from_rx_overflow>
        this_spi->hw_reg->INT_CLEAR = RXOVFLOW_IRQ_MASK;
20003030:	687b      	ldr	r3, [r7, #4]
20003032:	681b      	ldr	r3, [r3, #0]
20003034:	f04f 0204 	mov.w	r2, #4
20003038:	60da      	str	r2, [r3, #12]
     * slave TX FIFO data setup (if there is one).
     * In block mode this will probably not be very successful as we will
     * be out of synch with the master but the reset on SSEND will hopefully
     * take care of that for the next transfer.
     */
    if(0u != (*this_mis & TXURUN_IRQ_MASK))
2000303a:	693b      	ldr	r3, [r7, #16]
2000303c:	681b      	ldr	r3, [r3, #0]
2000303e:	f003 0308 	and.w	r3, r3, #8
20003042:	2b00      	cmp	r3, #0
20003044:	d031      	beq.n	200030aa <mss_spi_isr+0x206>
    {
        this_spi->hw_reg->COMMAND |= TX_FIFO_RESET_MASK;
20003046:	687b      	ldr	r3, [r7, #4]
20003048:	681b      	ldr	r3, [r3, #0]
2000304a:	687a      	ldr	r2, [r7, #4]
2000304c:	6812      	ldr	r2, [r2, #0]
2000304e:	6ad2      	ldr	r2, [r2, #44]	; 0x2c
20003050:	f042 0208 	orr.w	r2, r2, #8
20003054:	62da      	str	r2, [r3, #44]	; 0x2c
        if( MSS_SPI_SLAVE_XFER_FRAME == this_spi->slave_xfer_mode )
20003056:	687b      	ldr	r3, [r7, #4]
20003058:	f893 3080 	ldrb.w	r3, [r3, #128]	; 0x80
2000305c:	2b02      	cmp	r3, #2
2000305e:	d113      	bne.n	20003088 <mss_spi_isr+0x1e4>
        {
            this_spi->hw_reg->CONTROL = (this_spi->hw_reg->CONTROL & ~TXRXDFCOUNT_MASK)
20003060:	687b      	ldr	r3, [r7, #4]
20003062:	681a      	ldr	r2, [r3, #0]
20003064:	687b      	ldr	r3, [r7, #4]
20003066:	681b      	ldr	r3, [r3, #0]
20003068:	6819      	ldr	r1, [r3, #0]
2000306a:	f240 03ff 	movw	r3, #255	; 0xff
2000306e:	f6cf 7300 	movt	r3, #65280	; 0xff00
20003072:	ea01 0303 	and.w	r3, r1, r3
20003076:	f443 7380 	orr.w	r3, r3, #256	; 0x100
2000307a:	6013      	str	r3, [r2, #0]
                                        | ((uint32_t)1u << TXRXDFCOUNT_SHIFT);
           /* Reload slave tx frame into Tx data register. */
            this_spi->hw_reg->TX_DATA = this_spi->slave_tx_frame;
2000307c:	687b      	ldr	r3, [r7, #4]
2000307e:	681b      	ldr	r3, [r3, #0]
20003080:	687a      	ldr	r2, [r7, #4]
20003082:	6f92      	ldr	r2, [r2, #120]	; 0x78
20003084:	615a      	str	r2, [r3, #20]
20003086:	e00b      	b.n	200030a0 <mss_spi_isr+0x1fc>
        }
        else if( MSS_SPI_SLAVE_XFER_BLOCK == this_spi->slave_xfer_mode )
20003088:	687b      	ldr	r3, [r7, #4]
2000308a:	f893 3080 	ldrb.w	r3, [r3, #128]	; 0x80
2000308e:	2b01      	cmp	r3, #1
20003090:	d106      	bne.n	200030a0 <mss_spi_isr+0x1fc>
        {
            /* Block mode so reload FIFO to the max */
            this_spi->slave_tx_idx = 0u;
20003092:	687b      	ldr	r3, [r7, #4]
20003094:	f04f 0200 	mov.w	r2, #0
20003098:	611a      	str	r2, [r3, #16]
            fill_slave_tx_fifo(this_spi);
2000309a:	6878      	ldr	r0, [r7, #4]
2000309c:	f7ff fe3c 	bl	20002d18 <fill_slave_tx_fifo>
        else
        {
            /* Not frame or block mode? Can't do anything here... */
        }

        this_spi->hw_reg->INT_CLEAR = TXURUN_IRQ_MASK;
200030a0:	687b      	ldr	r3, [r7, #4]
200030a2:	681b      	ldr	r3, [r3, #0]
200030a4:	f04f 0208 	mov.w	r2, #8
200030a8:	60da      	str	r2, [r3, #12]
    /*
     * Handle slave select becoming de-asserted. Only enables if
     * we are operating in block mode, in frame mode we do everything
     * in the receive and transmit interrupt handlers.
     */
    if(0u != (*this_mis & SSEND_IRQ_MASK))
200030aa:	693b      	ldr	r3, [r7, #16]
200030ac:	681b      	ldr	r3, [r3, #0]
200030ae:	f003 0320 	and.w	r3, r3, #32
200030b2:	2b00      	cmp	r3, #0
200030b4:	d049      	beq.n	2000314a <mss_spi_isr+0x2a6>
    {
        uint32_t rx_size;
        
        read_slave_rx_fifo(this_spi);
200030b6:	6878      	ldr	r0, [r7, #4]
200030b8:	f7ff fe9e 	bl	20002df8 <read_slave_rx_fifo>
        rx_size = this_spi->slave_rx_idx;
200030bc:	687b      	ldr	r3, [r7, #4]
200030be:	6b1b      	ldr	r3, [r3, #48]	; 0x30
200030c0:	617b      	str	r3, [r7, #20]
        /*
         * Re-enable command interrupt if required and clear all the response
         * buffer state in readiness for next response. This must be done
         * before reloading the TX FIFO.
         */
        if(0u != this_spi->cmd_handler)
200030c2:	687b      	ldr	r3, [r7, #4]
200030c4:	6a1b      	ldr	r3, [r3, #32]
200030c6:	2b00      	cmp	r3, #0
200030c8:	d01c      	beq.n	20003104 <mss_spi_isr+0x260>
        {
            this_spi->cmd_done = 0u;
200030ca:	687b      	ldr	r3, [r7, #4]
200030cc:	f04f 0200 	mov.w	r2, #0
200030d0:	625a      	str	r2, [r3, #36]	; 0x24
            this_spi->resp_tx_buffer = 0u;
200030d2:	687b      	ldr	r3, [r7, #4]
200030d4:	f04f 0200 	mov.w	r2, #0
200030d8:	615a      	str	r2, [r3, #20]
            this_spi->resp_buff_size = 0u;
200030da:	687b      	ldr	r3, [r7, #4]
200030dc:	f04f 0200 	mov.w	r2, #0
200030e0:	619a      	str	r2, [r3, #24]
            this_spi->resp_buff_tx_idx = 0u;
200030e2:	687b      	ldr	r3, [r7, #4]
200030e4:	f04f 0200 	mov.w	r2, #0
200030e8:	61da      	str	r2, [r3, #28]
            this_spi->hw_reg->INT_CLEAR = CMD_IRQ_MASK;
200030ea:	687b      	ldr	r3, [r7, #4]
200030ec:	681b      	ldr	r3, [r3, #0]
200030ee:	f04f 0210 	mov.w	r2, #16
200030f2:	60da      	str	r2, [r3, #12]
            this_spi->hw_reg->CONTROL2 |= C2_ENABLE_CMD_IRQ_MASK;
200030f4:	687b      	ldr	r3, [r7, #4]
200030f6:	681b      	ldr	r3, [r3, #0]
200030f8:	687a      	ldr	r2, [r7, #4]
200030fa:	6812      	ldr	r2, [r2, #0]
200030fc:	6a92      	ldr	r2, [r2, #40]	; 0x28
200030fe:	f042 0210 	orr.w	r2, r2, #16
20003102:	629a      	str	r2, [r3, #40]	; 0x28
        /* 
         * Reset the transmit index to 0 to restart transmit at the start of the
         * transmit buffer in the next transaction. This also requires flushing
         * the Tx FIFO and refilling it with the start of Tx data buffer.
         */
        this_spi->slave_tx_idx = 0u;
20003104:	687b      	ldr	r3, [r7, #4]
20003106:	f04f 0200 	mov.w	r2, #0
2000310a:	611a      	str	r2, [r3, #16]
        this_spi->hw_reg->COMMAND |= (TX_FIFO_RESET_MASK | RX_FIFO_RESET_MASK);
2000310c:	687b      	ldr	r3, [r7, #4]
2000310e:	681b      	ldr	r3, [r3, #0]
20003110:	687a      	ldr	r2, [r7, #4]
20003112:	6812      	ldr	r2, [r2, #0]
20003114:	6ad2      	ldr	r2, [r2, #44]	; 0x2c
20003116:	f042 020c 	orr.w	r2, r2, #12
2000311a:	62da      	str	r2, [r3, #44]	; 0x2c
        fill_slave_tx_fifo(this_spi);
2000311c:	6878      	ldr	r0, [r7, #4]
2000311e:	f7ff fdfb 	bl	20002d18 <fill_slave_tx_fifo>
        
        /* Prepare to receive next packet. */
        this_spi->slave_rx_idx = 0u;
20003122:	687b      	ldr	r3, [r7, #4]
20003124:	f04f 0200 	mov.w	r2, #0
20003128:	631a      	str	r2, [r3, #48]	; 0x30
        /*
         * Call the receive handler if one exists.
         */
        if(0u != this_spi->block_rx_handler)
2000312a:	687b      	ldr	r3, [r7, #4]
2000312c:	6fdb      	ldr	r3, [r3, #124]	; 0x7c
2000312e:	2b00      	cmp	r3, #0
20003130:	d006      	beq.n	20003140 <mss_spi_isr+0x29c>
        {
            (*this_spi->block_rx_handler)(this_spi->slave_rx_buffer, rx_size);
20003132:	687b      	ldr	r3, [r7, #4]
20003134:	6fdb      	ldr	r3, [r3, #124]	; 0x7c
20003136:	687a      	ldr	r2, [r7, #4]
20003138:	6a92      	ldr	r2, [r2, #40]	; 0x28
2000313a:	4610      	mov	r0, r2
2000313c:	6979      	ldr	r1, [r7, #20]
2000313e:	4798      	blx	r3
        }
        
        this_spi->hw_reg->INT_CLEAR = SSEND_IRQ_MASK;
20003140:	687b      	ldr	r3, [r7, #4]
20003142:	681b      	ldr	r3, [r3, #0]
20003144:	f04f 0220 	mov.w	r2, #32
20003148:	60da      	str	r2, [r3, #12]
    }
}
2000314a:	f107 0718 	add.w	r7, r7, #24
2000314e:	46bd      	mov	sp, r7
20003150:	bd80      	pop	{r7, pc}
20003152:	bf00      	nop

20003154 <SPI0_IRQHandler>:
#if defined(__GNUC__)
__attribute__((__interrupt__)) void SPI0_IRQHandler(void)
#else
void SPI0_IRQHandler( void )
#endif
{
20003154:	4668      	mov	r0, sp
20003156:	f020 0107 	bic.w	r1, r0, #7
2000315a:	468d      	mov	sp, r1
2000315c:	b589      	push	{r0, r3, r7, lr}
2000315e:	af00      	add	r7, sp, #0
    mss_spi_isr(&g_mss_spi0);
20003160:	f24b 4054 	movw	r0, #46164	; 0xb454
20003164:	f2c2 0000 	movt	r0, #8192	; 0x2000
20003168:	f7ff fe9c 	bl	20002ea4 <mss_spi_isr>
    NVIC_ClearPendingIRQ(SPI0_IRQn);
2000316c:	f04f 000c 	mov.w	r0, #12
20003170:	f7ff fa98 	bl	200026a4 <NVIC_ClearPendingIRQ>
}
20003174:	46bd      	mov	sp, r7
20003176:	e8bd 4089 	ldmia.w	sp!, {r0, r3, r7, lr}
2000317a:	4685      	mov	sp, r0
2000317c:	4770      	bx	lr
2000317e:	bf00      	nop

20003180 <SPI1_IRQHandler>:
#if defined(__GNUC__)
__attribute__((__interrupt__)) void SPI1_IRQHandler(void)
#else
void SPI1_IRQHandler(void)
#endif
{
20003180:	4668      	mov	r0, sp
20003182:	f020 0107 	bic.w	r1, r0, #7
20003186:	468d      	mov	sp, r1
20003188:	b589      	push	{r0, r3, r7, lr}
2000318a:	af00      	add	r7, sp, #0
    mss_spi_isr(&g_mss_spi1);
2000318c:	f24b 30d0 	movw	r0, #46032	; 0xb3d0
20003190:	f2c2 0000 	movt	r0, #8192	; 0x2000
20003194:	f7ff fe86 	bl	20002ea4 <mss_spi_isr>
    NVIC_ClearPendingIRQ(SPI1_IRQn);
20003198:	f04f 000d 	mov.w	r0, #13
2000319c:	f7ff fa82 	bl	200026a4 <NVIC_ClearPendingIRQ>
}
200031a0:	46bd      	mov	sp, r7
200031a2:	e8bd 4089 	ldmia.w	sp!, {r0, r3, r7, lr}
200031a6:	4685      	mov	sp, r0
200031a8:	4770      	bx	lr
200031aa:	bf00      	nop

200031ac <NVIC_EnableIRQ>:
 *
 * Enable a device specific interupt in the NVIC interrupt controller.
 * The interrupt number cannot be a negative value.
 */
static __INLINE void NVIC_EnableIRQ(IRQn_Type IRQn)
{
200031ac:	b480      	push	{r7}
200031ae:	b083      	sub	sp, #12
200031b0:	af00      	add	r7, sp, #0
200031b2:	4603      	mov	r3, r0
200031b4:	80fb      	strh	r3, [r7, #6]
  NVIC->ISER[((uint32_t)(IRQn) >> 5)] = (1 << ((uint32_t)(IRQn) & 0x1F)); /* enable interrupt */
200031b6:	f24e 1300 	movw	r3, #57600	; 0xe100
200031ba:	f2ce 0300 	movt	r3, #57344	; 0xe000
200031be:	f9b7 2006 	ldrsh.w	r2, [r7, #6]
200031c2:	ea4f 1252 	mov.w	r2, r2, lsr #5
200031c6:	88f9      	ldrh	r1, [r7, #6]
200031c8:	f001 011f 	and.w	r1, r1, #31
200031cc:	f04f 0001 	mov.w	r0, #1
200031d0:	fa00 f101 	lsl.w	r1, r0, r1
200031d4:	f843 1022 	str.w	r1, [r3, r2, lsl #2]
}
200031d8:	f107 070c 	add.w	r7, r7, #12
200031dc:	46bd      	mov	sp, r7
200031de:	bc80      	pop	{r7}
200031e0:	4770      	bx	lr
200031e2:	bf00      	nop

200031e4 <NVIC_DisableIRQ>:
 * 
 * Disable a device specific interupt in the NVIC interrupt controller.
 * The interrupt number cannot be a negative value.
 */
static __INLINE void NVIC_DisableIRQ(IRQn_Type IRQn)
{
200031e4:	b480      	push	{r7}
200031e6:	b083      	sub	sp, #12
200031e8:	af00      	add	r7, sp, #0
200031ea:	4603      	mov	r3, r0
200031ec:	80fb      	strh	r3, [r7, #6]
  NVIC->ICER[((uint32_t)(IRQn) >> 5)] = (1 << ((uint32_t)(IRQn) & 0x1F)); /* disable interrupt */
200031ee:	f24e 1300 	movw	r3, #57600	; 0xe100
200031f2:	f2ce 0300 	movt	r3, #57344	; 0xe000
200031f6:	f9b7 2006 	ldrsh.w	r2, [r7, #6]
200031fa:	ea4f 1252 	mov.w	r2, r2, lsr #5
200031fe:	88f9      	ldrh	r1, [r7, #6]
20003200:	f001 011f 	and.w	r1, r1, #31
20003204:	f04f 0001 	mov.w	r0, #1
20003208:	fa00 f101 	lsl.w	r1, r0, r1
2000320c:	f102 0220 	add.w	r2, r2, #32
20003210:	f843 1022 	str.w	r1, [r3, r2, lsl #2]
}
20003214:	f107 070c 	add.w	r7, r7, #12
20003218:	46bd      	mov	sp, r7
2000321a:	bc80      	pop	{r7}
2000321c:	4770      	bx	lr
2000321e:	bf00      	nop

20003220 <NVIC_ClearPendingIRQ>:
 *
 * Clear the pending bit for the specified interrupt. 
 * The interrupt number cannot be a negative value.
 */
static __INLINE void NVIC_ClearPendingIRQ(IRQn_Type IRQn)
{
20003220:	b480      	push	{r7}
20003222:	b083      	sub	sp, #12
20003224:	af00      	add	r7, sp, #0
20003226:	4603      	mov	r3, r0
20003228:	80fb      	strh	r3, [r7, #6]
  NVIC->ICPR[((uint32_t)(IRQn) >> 5)] = (1 << ((uint32_t)(IRQn) & 0x1F)); /* Clear pending interrupt */
2000322a:	f24e 1300 	movw	r3, #57600	; 0xe100
2000322e:	f2ce 0300 	movt	r3, #57344	; 0xe000
20003232:	f9b7 2006 	ldrsh.w	r2, [r7, #6]
20003236:	ea4f 1252 	mov.w	r2, r2, lsr #5
2000323a:	88f9      	ldrh	r1, [r7, #6]
2000323c:	f001 011f 	and.w	r1, r1, #31
20003240:	f04f 0001 	mov.w	r0, #1
20003244:	fa00 f101 	lsl.w	r1, r0, r1
20003248:	f102 0260 	add.w	r2, r2, #96	; 0x60
2000324c:	f843 1022 	str.w	r1, [r3, r2, lsl #2]
}
20003250:	f107 070c 	add.w	r7, r7, #12
20003254:	46bd      	mov	sp, r7
20003256:	bc80      	pop	{r7}
20003258:	4770      	bx	lr
2000325a:	bf00      	nop

2000325c <MSS_I2C_init>:
(
    mss_i2c_instance_t * this_i2c,
    uint8_t ser_address,
    mss_i2c_clock_divider_t ser_clock_speed
)
{
2000325c:	b580      	push	{r7, lr}
2000325e:	b084      	sub	sp, #16
20003260:	af00      	add	r7, sp, #0
20003262:	6078      	str	r0, [r7, #4]
20003264:	4613      	mov	r3, r2
20003266:	460a      	mov	r2, r1
20003268:	70fa      	strb	r2, [r7, #3]
2000326a:	70bb      	strb	r3, [r7, #2]
    uint32_t primask;
    uint_fast16_t clock_speed = (uint_fast16_t)ser_clock_speed;
2000326c:	78bb      	ldrb	r3, [r7, #2]
2000326e:	60fb      	str	r3, [r7, #12]
    
    ASSERT( (this_i2c == &g_mss_i2c0) || (this_i2c == &g_mss_i2c1) );
20003270:	687a      	ldr	r2, [r7, #4]
20003272:	f24b 43d8 	movw	r3, #46296	; 0xb4d8
20003276:	f2c2 0300 	movt	r3, #8192	; 0x2000
2000327a:	429a      	cmp	r2, r3
2000327c:	d007      	beq.n	2000328e <MSS_I2C_init+0x32>
2000327e:	687a      	ldr	r2, [r7, #4]
20003280:	f24b 534c 	movw	r3, #46412	; 0xb54c
20003284:	f2c2 0300 	movt	r3, #8192	; 0x2000
20003288:	429a      	cmp	r2, r3
2000328a:	d000      	beq.n	2000328e <MSS_I2C_init+0x32>
2000328c:	be00      	bkpt	0x0000
     * Initialize all items of the this_i2c data structure to zero. This
     * initializes all state variables to their init value. It relies on
     * the fact that NO_TRANSACTION, I2C_SUCCESS and I2C_RELEASE_BUS all
     * have an actual value of zero.
     */
    primask = disable_interrupts();
2000328e:	f000 fe6b 	bl	20003f68 <disable_interrupts>
20003292:	4603      	mov	r3, r0
20003294:	60bb      	str	r3, [r7, #8]
    memset(this_i2c, 0, sizeof(mss_i2c_instance_t));
20003296:	6878      	ldr	r0, [r7, #4]
20003298:	f04f 0100 	mov.w	r1, #0
2000329c:	f04f 0274 	mov.w	r2, #116	; 0x74
200032a0:	f001 fb0a 	bl	200048b8 <memset>
    
    if ( this_i2c == &g_mss_i2c0 )
200032a4:	687a      	ldr	r2, [r7, #4]
200032a6:	f24b 43d8 	movw	r3, #46296	; 0xb4d8
200032aa:	f2c2 0300 	movt	r3, #8192	; 0x2000
200032ae:	429a      	cmp	r2, r3
200032b0:	d12c      	bne.n	2000330c <MSS_I2C_init+0xb0>
    {
        this_i2c->irqn = I2C0_IRQn;
200032b2:	687b      	ldr	r3, [r7, #4]
200032b4:	f04f 020e 	mov.w	r2, #14
200032b8:	825a      	strh	r2, [r3, #18]
        this_i2c->hw_reg = I2C0;
200032ba:	687a      	ldr	r2, [r7, #4]
200032bc:	f242 0300 	movw	r3, #8192	; 0x2000
200032c0:	f2c4 0300 	movt	r3, #16384	; 0x4000
200032c4:	6153      	str	r3, [r2, #20]
        this_i2c->hw_reg_bit = I2C0_BITBAND;
200032c6:	687a      	ldr	r2, [r7, #4]
200032c8:	f240 0300 	movw	r3, #0
200032cc:	f2c4 2304 	movt	r3, #16900	; 0x4204
200032d0:	6193      	str	r3, [r2, #24]
        
        /* reset I2C0 */
        SYSREG->SOFT_RST_CR |= SYSREG_I2C0_SOFTRESET_MASK;
200032d2:	f242 0300 	movw	r3, #8192	; 0x2000
200032d6:	f2ce 0304 	movt	r3, #57348	; 0xe004
200032da:	f242 0200 	movw	r2, #8192	; 0x2000
200032de:	f2ce 0204 	movt	r2, #57348	; 0xe004
200032e2:	6b12      	ldr	r2, [r2, #48]	; 0x30
200032e4:	f442 6200 	orr.w	r2, r2, #2048	; 0x800
200032e8:	631a      	str	r2, [r3, #48]	; 0x30
        /* Clear any previously pended I2C0 interrupt */
        NVIC_ClearPendingIRQ( I2C0_IRQn );
200032ea:	f04f 000e 	mov.w	r0, #14
200032ee:	f7ff ff97 	bl	20003220 <NVIC_ClearPendingIRQ>
        /* Take I2C0 out of reset. */
        SYSREG->SOFT_RST_CR &= ~SYSREG_I2C0_SOFTRESET_MASK;
200032f2:	f242 0300 	movw	r3, #8192	; 0x2000
200032f6:	f2ce 0304 	movt	r3, #57348	; 0xe004
200032fa:	f242 0200 	movw	r2, #8192	; 0x2000
200032fe:	f2ce 0204 	movt	r2, #57348	; 0xe004
20003302:	6b12      	ldr	r2, [r2, #48]	; 0x30
20003304:	f422 6200 	bic.w	r2, r2, #2048	; 0x800
20003308:	631a      	str	r2, [r3, #48]	; 0x30
2000330a:	e02b      	b.n	20003364 <MSS_I2C_init+0x108>
    }
    else
    {
        this_i2c->irqn = I2C1_IRQn;
2000330c:	687b      	ldr	r3, [r7, #4]
2000330e:	f04f 0211 	mov.w	r2, #17
20003312:	825a      	strh	r2, [r3, #18]
        this_i2c->hw_reg = I2C1;
20003314:	687a      	ldr	r2, [r7, #4]
20003316:	f242 0300 	movw	r3, #8192	; 0x2000
2000331a:	f2c4 0301 	movt	r3, #16385	; 0x4001
2000331e:	6153      	str	r3, [r2, #20]
        this_i2c->hw_reg_bit = I2C1_BITBAND;
20003320:	687a      	ldr	r2, [r7, #4]
20003322:	f240 0300 	movw	r3, #0
20003326:	f2c4 2324 	movt	r3, #16932	; 0x4224
2000332a:	6193      	str	r3, [r2, #24]
        
        /* reset I2C1 */
        SYSREG->SOFT_RST_CR |= SYSREG_I2C1_SOFTRESET_MASK;
2000332c:	f242 0300 	movw	r3, #8192	; 0x2000
20003330:	f2ce 0304 	movt	r3, #57348	; 0xe004
20003334:	f242 0200 	movw	r2, #8192	; 0x2000
20003338:	f2ce 0204 	movt	r2, #57348	; 0xe004
2000333c:	6b12      	ldr	r2, [r2, #48]	; 0x30
2000333e:	f442 5280 	orr.w	r2, r2, #4096	; 0x1000
20003342:	631a      	str	r2, [r3, #48]	; 0x30
        /* Clear any previously pended I2C1 interrupt */
        NVIC_ClearPendingIRQ( I2C1_IRQn );
20003344:	f04f 0011 	mov.w	r0, #17
20003348:	f7ff ff6a 	bl	20003220 <NVIC_ClearPendingIRQ>
        /* Take I2C1 out of reset. */
        SYSREG->SOFT_RST_CR &= ~SYSREG_I2C1_SOFTRESET_MASK;
2000334c:	f242 0300 	movw	r3, #8192	; 0x2000
20003350:	f2ce 0304 	movt	r3, #57348	; 0xe004
20003354:	f242 0200 	movw	r2, #8192	; 0x2000
20003358:	f2ce 0204 	movt	r2, #57348	; 0xe004
2000335c:	6b12      	ldr	r2, [r2, #48]	; 0x30
2000335e:	f422 5280 	bic.w	r2, r2, #4096	; 0x1000
20003362:	631a      	str	r2, [r3, #48]	; 0x30
    }
    
    /* Use same base address for SMBus bitband access */
    this_i2c->hw_smb_reg_bit = (I2C_SMBus_BitBand_TypeDef *)this_i2c->hw_reg_bit;
20003364:	687b      	ldr	r3, [r7, #4]
20003366:	699b      	ldr	r3, [r3, #24]
20003368:	461a      	mov	r2, r3
2000336a:	687b      	ldr	r3, [r7, #4]
2000336c:	61da      	str	r2, [r3, #28]

    /* Update Serial address of the device */
    this_i2c->ser_address = (uint_fast8_t)ser_address << 1u;
2000336e:	78fb      	ldrb	r3, [r7, #3]
20003370:	ea4f 0243 	mov.w	r2, r3, lsl #1
20003374:	687b      	ldr	r3, [r7, #4]
20003376:	601a      	str	r2, [r3, #0]

    this_i2c->hw_reg_bit->CTRL_CR2 = (uint32_t)((clock_speed >> 2u) & 0x01u);
20003378:	687b      	ldr	r3, [r7, #4]
2000337a:	699b      	ldr	r3, [r3, #24]
2000337c:	68fa      	ldr	r2, [r7, #12]
2000337e:	ea4f 0292 	mov.w	r2, r2, lsr #2
20003382:	f002 0201 	and.w	r2, r2, #1
20003386:	61da      	str	r2, [r3, #28]
    this_i2c->hw_reg_bit->CTRL_CR1 = (uint32_t)((clock_speed >> 1u) & 0x01u);
20003388:	687b      	ldr	r3, [r7, #4]
2000338a:	699b      	ldr	r3, [r3, #24]
2000338c:	68fa      	ldr	r2, [r7, #12]
2000338e:	ea4f 0252 	mov.w	r2, r2, lsr #1
20003392:	f002 0201 	and.w	r2, r2, #1
20003396:	605a      	str	r2, [r3, #4]
    this_i2c->hw_reg_bit->CTRL_CR0 = (uint32_t)(clock_speed & 0x01u);
20003398:	687b      	ldr	r3, [r7, #4]
2000339a:	699b      	ldr	r3, [r3, #24]
2000339c:	68fa      	ldr	r2, [r7, #12]
2000339e:	f002 0201 	and.w	r2, r2, #1
200033a2:	601a      	str	r2, [r3, #0]
    this_i2c->hw_reg->ADDR = (uint8_t)this_i2c->ser_address;
200033a4:	687b      	ldr	r3, [r7, #4]
200033a6:	695b      	ldr	r3, [r3, #20]
200033a8:	687a      	ldr	r2, [r7, #4]
200033aa:	6812      	ldr	r2, [r2, #0]
200033ac:	b2d2      	uxtb	r2, r2
200033ae:	731a      	strb	r2, [r3, #12]
    this_i2c->hw_reg_bit->CTRL_ENS1 = 0x01u; /* set enable bit */
200033b0:	687b      	ldr	r3, [r7, #4]
200033b2:	699b      	ldr	r3, [r3, #24]
200033b4:	f04f 0201 	mov.w	r2, #1
200033b8:	619a      	str	r2, [r3, #24]
    restore_interrupts( primask );
200033ba:	68b8      	ldr	r0, [r7, #8]
200033bc:	f000 fde6 	bl	20003f8c <restore_interrupts>
}
200033c0:	f107 0710 	add.w	r7, r7, #16
200033c4:	46bd      	mov	sp, r7
200033c6:	bd80      	pop	{r7, pc}

200033c8 <MSS_I2C_write>:
    uint8_t serial_addr,
    const uint8_t * write_buffer,
    uint16_t write_size,
    uint8_t options
)
{
200033c8:	b580      	push	{r7, lr}
200033ca:	b086      	sub	sp, #24
200033cc:	af00      	add	r7, sp, #0
200033ce:	60f8      	str	r0, [r7, #12]
200033d0:	607a      	str	r2, [r7, #4]
200033d2:	460a      	mov	r2, r1
200033d4:	72fa      	strb	r2, [r7, #11]
200033d6:	807b      	strh	r3, [r7, #2]
    uint32_t primask;
    volatile uint8_t stat_ctrl;

    ASSERT((this_i2c == &g_mss_i2c0) || (this_i2c == &g_mss_i2c1));
200033d8:	68fa      	ldr	r2, [r7, #12]
200033da:	f24b 43d8 	movw	r3, #46296	; 0xb4d8
200033de:	f2c2 0300 	movt	r3, #8192	; 0x2000
200033e2:	429a      	cmp	r2, r3
200033e4:	d007      	beq.n	200033f6 <MSS_I2C_write+0x2e>
200033e6:	68fa      	ldr	r2, [r7, #12]
200033e8:	f24b 534c 	movw	r3, #46412	; 0xb54c
200033ec:	f2c2 0300 	movt	r3, #8192	; 0x2000
200033f0:	429a      	cmp	r2, r3
200033f2:	d000      	beq.n	200033f6 <MSS_I2C_write+0x2e>
200033f4:	be00      	bkpt	0x0000

    primask = disable_interrupts();
200033f6:	f000 fdb7 	bl	20003f68 <disable_interrupts>
200033fa:	4603      	mov	r3, r0
200033fc:	617b      	str	r3, [r7, #20]

    /* Update the transaction only when there is no transaction going on I2C */
    if( this_i2c->transaction == NO_TRANSACTION)
200033fe:	68fb      	ldr	r3, [r7, #12]
20003400:	7a1b      	ldrb	r3, [r3, #8]
20003402:	2b00      	cmp	r3, #0
20003404:	d103      	bne.n	2000340e <MSS_I2C_write+0x46>
    {
      this_i2c->transaction = MASTER_WRITE_TRANSACTION;
20003406:	68fb      	ldr	r3, [r7, #12]
20003408:	f04f 0201 	mov.w	r2, #1
2000340c:	721a      	strb	r2, [r3, #8]
    }

    /* Update the Pending transaction information so that transaction can restarted */
    this_i2c->pending_transaction = MASTER_WRITE_TRANSACTION ;
2000340e:	68fb      	ldr	r3, [r7, #12]
20003410:	f04f 0201 	mov.w	r2, #1
20003414:	f883 2072 	strb.w	r2, [r3, #114]	; 0x72

    /* Update target address */
    this_i2c->target_addr = (uint_fast8_t)serial_addr << 1u;
20003418:	7afb      	ldrb	r3, [r7, #11]
2000341a:	ea4f 0243 	mov.w	r2, r3, lsl #1
2000341e:	68fb      	ldr	r3, [r7, #12]
20003420:	605a      	str	r2, [r3, #4]

    this_i2c->dir = WRITE_DIR;
20003422:	68fb      	ldr	r3, [r7, #12]
20003424:	f04f 0200 	mov.w	r2, #0
20003428:	62da      	str	r2, [r3, #44]	; 0x2c

    this_i2c->master_tx_buffer = write_buffer;
2000342a:	68fb      	ldr	r3, [r7, #12]
2000342c:	687a      	ldr	r2, [r7, #4]
2000342e:	621a      	str	r2, [r3, #32]
    this_i2c->master_tx_size = write_size;
20003430:	887a      	ldrh	r2, [r7, #2]
20003432:	68fb      	ldr	r3, [r7, #12]
20003434:	625a      	str	r2, [r3, #36]	; 0x24
    this_i2c->master_tx_idx = 0u;
20003436:	68fb      	ldr	r3, [r7, #12]
20003438:	f04f 0200 	mov.w	r2, #0
2000343c:	629a      	str	r2, [r3, #40]	; 0x28

    /* Set I2C status in progress */
    this_i2c->master_status = MSS_I2C_IN_PROGRESS;
2000343e:	68fb      	ldr	r3, [r7, #12]
20003440:	f04f 0201 	mov.w	r2, #1
20003444:	f883 203c 	strb.w	r2, [r3, #60]	; 0x3c
    this_i2c->options = options;
20003448:	68fb      	ldr	r3, [r7, #12]
2000344a:	f897 2020 	ldrb.w	r2, [r7, #32]
2000344e:	741a      	strb	r2, [r3, #16]

    if(MSS_I2C_IN_PROGRESS == this_i2c->slave_status)
20003450:	68fb      	ldr	r3, [r7, #12]
20003452:	f893 305c 	ldrb.w	r3, [r3, #92]	; 0x5c
20003456:	b2db      	uxtb	r3, r3
20003458:	2b01      	cmp	r3, #1
2000345a:	d105      	bne.n	20003468 <MSS_I2C_write+0xa0>
    {
        this_i2c->is_transaction_pending = 1u;
2000345c:	68fb      	ldr	r3, [r7, #12]
2000345e:	f04f 0201 	mov.w	r2, #1
20003462:	f883 2071 	strb.w	r2, [r3, #113]	; 0x71
20003466:	e004      	b.n	20003472 <MSS_I2C_write+0xaa>
    }
    else
    {
        this_i2c->hw_reg_bit->CTRL_STA = 0x01u;
20003468:	68fb      	ldr	r3, [r7, #12]
2000346a:	699b      	ldr	r3, [r3, #24]
2000346c:	f04f 0201 	mov.w	r2, #1
20003470:	615a      	str	r2, [r3, #20]
    /*
     * Clear interrupts if required (depends on repeated starts).
     * Since the Bus is on hold, only then prior status needs to
     * be cleared.
     */
    if ( MSS_I2C_HOLD_BUS == this_i2c->bus_status )
20003472:	68fb      	ldr	r3, [r7, #12]
20003474:	f893 3070 	ldrb.w	r3, [r3, #112]	; 0x70
20003478:	2b01      	cmp	r3, #1
2000347a:	d111      	bne.n	200034a0 <MSS_I2C_write+0xd8>
    {
        this_i2c->hw_reg_bit->CTRL_SI = 0u;
2000347c:	68fb      	ldr	r3, [r7, #12]
2000347e:	699b      	ldr	r3, [r3, #24]
20003480:	f04f 0200 	mov.w	r2, #0
20003484:	60da      	str	r2, [r3, #12]
        stat_ctrl = this_i2c->hw_reg->STATUS;
20003486:	68fb      	ldr	r3, [r7, #12]
20003488:	695b      	ldr	r3, [r3, #20]
2000348a:	791b      	ldrb	r3, [r3, #4]
2000348c:	74fb      	strb	r3, [r7, #19]
        stat_ctrl = stat_ctrl;  /* Avoids Lint warning */
2000348e:	7cfb      	ldrb	r3, [r7, #19]
20003490:	b2db      	uxtb	r3, r3
20003492:	74fb      	strb	r3, [r7, #19]
        NVIC_ClearPendingIRQ( this_i2c->irqn );
20003494:	68fb      	ldr	r3, [r7, #12]
20003496:	8a5b      	ldrh	r3, [r3, #18]
20003498:	b21b      	sxth	r3, r3
2000349a:	4618      	mov	r0, r3
2000349c:	f7ff fec0 	bl	20003220 <NVIC_ClearPendingIRQ>
    }

    /* Enable the interrupt. ( Re-enable) */
    NVIC_EnableIRQ( this_i2c->irqn );
200034a0:	68fb      	ldr	r3, [r7, #12]
200034a2:	8a5b      	ldrh	r3, [r3, #18]
200034a4:	b21b      	sxth	r3, r3
200034a6:	4618      	mov	r0, r3
200034a8:	f7ff fe80 	bl	200031ac <NVIC_EnableIRQ>

    restore_interrupts( primask );
200034ac:	6978      	ldr	r0, [r7, #20]
200034ae:	f000 fd6d 	bl	20003f8c <restore_interrupts>
}
200034b2:	f107 0718 	add.w	r7, r7, #24
200034b6:	46bd      	mov	sp, r7
200034b8:	bd80      	pop	{r7, pc}
200034ba:	bf00      	nop

200034bc <MSS_I2C_write_read>:
    uint16_t offset_size,
    uint8_t * read_buffer,
    uint16_t read_size,
    uint8_t options
)
{
200034bc:	b580      	push	{r7, lr}
200034be:	b086      	sub	sp, #24
200034c0:	af00      	add	r7, sp, #0
200034c2:	60f8      	str	r0, [r7, #12]
200034c4:	607a      	str	r2, [r7, #4]
200034c6:	460a      	mov	r2, r1
200034c8:	72fa      	strb	r2, [r7, #11]
200034ca:	807b      	strh	r3, [r7, #2]
    ASSERT((this_i2c == &g_mss_i2c0) || (this_i2c == &g_mss_i2c1));
200034cc:	68fa      	ldr	r2, [r7, #12]
200034ce:	f24b 43d8 	movw	r3, #46296	; 0xb4d8
200034d2:	f2c2 0300 	movt	r3, #8192	; 0x2000
200034d6:	429a      	cmp	r2, r3
200034d8:	d007      	beq.n	200034ea <MSS_I2C_write_read+0x2e>
200034da:	68fa      	ldr	r2, [r7, #12]
200034dc:	f24b 534c 	movw	r3, #46412	; 0xb54c
200034e0:	f2c2 0300 	movt	r3, #8192	; 0x2000
200034e4:	429a      	cmp	r2, r3
200034e6:	d000      	beq.n	200034ea <MSS_I2C_write_read+0x2e>
200034e8:	be00      	bkpt	0x0000
    ASSERT(offset_size > 0u);
200034ea:	887b      	ldrh	r3, [r7, #2]
200034ec:	2b00      	cmp	r3, #0
200034ee:	d100      	bne.n	200034f2 <MSS_I2C_write_read+0x36>
200034f0:	be00      	bkpt	0x0000
    //ASSERT(addr_offset != (const uint8_t *)0);
    ASSERT(read_size > 0u);
200034f2:	8cbb      	ldrh	r3, [r7, #36]	; 0x24
200034f4:	2b00      	cmp	r3, #0
200034f6:	d100      	bne.n	200034fa <MSS_I2C_write_read+0x3e>
200034f8:	be00      	bkpt	0x0000
    ASSERT(read_buffer != (uint8_t *)0);
200034fa:	6a3b      	ldr	r3, [r7, #32]
200034fc:	2b00      	cmp	r3, #0
200034fe:	d100      	bne.n	20003502 <MSS_I2C_write_read+0x46>
20003500:	be00      	bkpt	0x0000

    if((read_size > 0u) && (offset_size > 0u))
20003502:	8cbb      	ldrh	r3, [r7, #36]	; 0x24
20003504:	2b00      	cmp	r3, #0
20003506:	d06a      	beq.n	200035de <MSS_I2C_write_read+0x122>
20003508:	887b      	ldrh	r3, [r7, #2]
2000350a:	2b00      	cmp	r3, #0
2000350c:	d067      	beq.n	200035de <MSS_I2C_write_read+0x122>
    {
        uint32_t primask;
        volatile uint8_t stat_ctrl;

        primask = disable_interrupts();
2000350e:	f000 fd2b 	bl	20003f68 <disable_interrupts>
20003512:	4603      	mov	r3, r0
20003514:	617b      	str	r3, [r7, #20]

        /* Update the transaction only when there is no transaction going on I2C */
        if( this_i2c->transaction == NO_TRANSACTION)
20003516:	68fb      	ldr	r3, [r7, #12]
20003518:	7a1b      	ldrb	r3, [r3, #8]
2000351a:	2b00      	cmp	r3, #0
2000351c:	d103      	bne.n	20003526 <MSS_I2C_write_read+0x6a>
        {
            this_i2c->transaction = MASTER_RANDOM_READ_TRANSACTION;
2000351e:	68fb      	ldr	r3, [r7, #12]
20003520:	f04f 0203 	mov.w	r2, #3
20003524:	721a      	strb	r2, [r3, #8]
        }

        /* Update the Pending transaction information so that transaction can restarted */
        this_i2c->pending_transaction = MASTER_RANDOM_READ_TRANSACTION ;
20003526:	68fb      	ldr	r3, [r7, #12]
20003528:	f04f 0203 	mov.w	r2, #3
2000352c:	f883 2072 	strb.w	r2, [r3, #114]	; 0x72

        /* Update target address */
        this_i2c->target_addr = (uint_fast8_t)serial_addr << 1u;
20003530:	7afb      	ldrb	r3, [r7, #11]
20003532:	ea4f 0243 	mov.w	r2, r3, lsl #1
20003536:	68fb      	ldr	r3, [r7, #12]
20003538:	605a      	str	r2, [r3, #4]

        this_i2c->dir = WRITE_DIR;
2000353a:	68fb      	ldr	r3, [r7, #12]
2000353c:	f04f 0200 	mov.w	r2, #0
20003540:	62da      	str	r2, [r3, #44]	; 0x2c
        this_i2c->master_tx_buffer = addr_offset;
20003542:	68fb      	ldr	r3, [r7, #12]
20003544:	687a      	ldr	r2, [r7, #4]
20003546:	621a      	str	r2, [r3, #32]
        this_i2c->master_tx_size = offset_size;
20003548:	887a      	ldrh	r2, [r7, #2]
2000354a:	68fb      	ldr	r3, [r7, #12]
2000354c:	625a      	str	r2, [r3, #36]	; 0x24
        this_i2c->master_tx_idx = 0u;
2000354e:	68fb      	ldr	r3, [r7, #12]
20003550:	f04f 0200 	mov.w	r2, #0
20003554:	629a      	str	r2, [r3, #40]	; 0x28

        this_i2c->master_rx_buffer = read_buffer;
20003556:	68fb      	ldr	r3, [r7, #12]
20003558:	6a3a      	ldr	r2, [r7, #32]
2000355a:	631a      	str	r2, [r3, #48]	; 0x30
        this_i2c->master_rx_size = read_size;
2000355c:	8cba      	ldrh	r2, [r7, #36]	; 0x24
2000355e:	68fb      	ldr	r3, [r7, #12]
20003560:	635a      	str	r2, [r3, #52]	; 0x34
        this_i2c->master_rx_idx = 0u;
20003562:	68fb      	ldr	r3, [r7, #12]
20003564:	f04f 0200 	mov.w	r2, #0
20003568:	639a      	str	r2, [r3, #56]	; 0x38

        /* Set I2C status in progress */
        this_i2c->master_status = MSS_I2C_IN_PROGRESS;
2000356a:	68fb      	ldr	r3, [r7, #12]
2000356c:	f04f 0201 	mov.w	r2, #1
20003570:	f883 203c 	strb.w	r2, [r3, #60]	; 0x3c
        this_i2c->options = options;
20003574:	68fb      	ldr	r3, [r7, #12]
20003576:	f897 2028 	ldrb.w	r2, [r7, #40]	; 0x28
2000357a:	741a      	strb	r2, [r3, #16]

        if(MSS_I2C_IN_PROGRESS == this_i2c->slave_status)
2000357c:	68fb      	ldr	r3, [r7, #12]
2000357e:	f893 305c 	ldrb.w	r3, [r3, #92]	; 0x5c
20003582:	b2db      	uxtb	r3, r3
20003584:	2b01      	cmp	r3, #1
20003586:	d105      	bne.n	20003594 <MSS_I2C_write_read+0xd8>
        {
            this_i2c->is_transaction_pending = 1u;
20003588:	68fb      	ldr	r3, [r7, #12]
2000358a:	f04f 0201 	mov.w	r2, #1
2000358e:	f883 2071 	strb.w	r2, [r3, #113]	; 0x71
20003592:	e004      	b.n	2000359e <MSS_I2C_write_read+0xe2>
        }
        else
        {
            this_i2c->hw_reg_bit->CTRL_STA = 0x01u;
20003594:	68fb      	ldr	r3, [r7, #12]
20003596:	699b      	ldr	r3, [r3, #24]
20003598:	f04f 0201 	mov.w	r2, #1
2000359c:	615a      	str	r2, [r3, #20]
        /*
         * Clear interrupts if required (depends on repeated starts).
         * Since the Bus is on hold, only then prior status needs to
         * be cleared.
         */
        if ( MSS_I2C_HOLD_BUS == this_i2c->bus_status )
2000359e:	68fb      	ldr	r3, [r7, #12]
200035a0:	f893 3070 	ldrb.w	r3, [r3, #112]	; 0x70
200035a4:	2b01      	cmp	r3, #1
200035a6:	d111      	bne.n	200035cc <MSS_I2C_write_read+0x110>
        {
            this_i2c->hw_reg_bit->CTRL_SI = 0u;
200035a8:	68fb      	ldr	r3, [r7, #12]
200035aa:	699b      	ldr	r3, [r3, #24]
200035ac:	f04f 0200 	mov.w	r2, #0
200035b0:	60da      	str	r2, [r3, #12]
            stat_ctrl = this_i2c->hw_reg->STATUS;
200035b2:	68fb      	ldr	r3, [r7, #12]
200035b4:	695b      	ldr	r3, [r3, #20]
200035b6:	791b      	ldrb	r3, [r3, #4]
200035b8:	74fb      	strb	r3, [r7, #19]
            stat_ctrl = stat_ctrl;  /* Avoids Lint warning */
200035ba:	7cfb      	ldrb	r3, [r7, #19]
200035bc:	b2db      	uxtb	r3, r3
200035be:	74fb      	strb	r3, [r7, #19]
            NVIC_ClearPendingIRQ( this_i2c->irqn );
200035c0:	68fb      	ldr	r3, [r7, #12]
200035c2:	8a5b      	ldrh	r3, [r3, #18]
200035c4:	b21b      	sxth	r3, r3
200035c6:	4618      	mov	r0, r3
200035c8:	f7ff fe2a 	bl	20003220 <NVIC_ClearPendingIRQ>
        }

        /* Enable the interrupt. ( Re-enable) */
        NVIC_EnableIRQ( this_i2c->irqn );
200035cc:	68fb      	ldr	r3, [r7, #12]
200035ce:	8a5b      	ldrh	r3, [r3, #18]
200035d0:	b21b      	sxth	r3, r3
200035d2:	4618      	mov	r0, r3
200035d4:	f7ff fdea 	bl	200031ac <NVIC_EnableIRQ>

        restore_interrupts( primask );
200035d8:	6978      	ldr	r0, [r7, #20]
200035da:	f000 fcd7 	bl	20003f8c <restore_interrupts>
    }
}
200035de:	f107 0718 	add.w	r7, r7, #24
200035e2:	46bd      	mov	sp, r7
200035e4:	bd80      	pop	{r7, pc}
200035e6:	bf00      	nop

200035e8 <MSS_I2C_wait_complete>:
mss_i2c_status_t MSS_I2C_wait_complete
(
    mss_i2c_instance_t * this_i2c,
    uint32_t timeout_ms
)
{
200035e8:	b480      	push	{r7}
200035ea:	b085      	sub	sp, #20
200035ec:	af00      	add	r7, sp, #0
200035ee:	6078      	str	r0, [r7, #4]
200035f0:	6039      	str	r1, [r7, #0]
	uint32_t counter  = 0;
200035f2:	f04f 0300 	mov.w	r3, #0
200035f6:	60bb      	str	r3, [r7, #8]
	mss_i2c_status_t i2c_status;
    
    ASSERT( (this_i2c == &g_mss_i2c0) || (this_i2c == &g_mss_i2c1) );
200035f8:	687a      	ldr	r2, [r7, #4]
200035fa:	f24b 43d8 	movw	r3, #46296	; 0xb4d8
200035fe:	f2c2 0300 	movt	r3, #8192	; 0x2000
20003602:	429a      	cmp	r2, r3
20003604:	d007      	beq.n	20003616 <MSS_I2C_wait_complete+0x2e>
20003606:	687a      	ldr	r2, [r7, #4]
20003608:	f24b 534c 	movw	r3, #46412	; 0xb54c
2000360c:	f2c2 0300 	movt	r3, #8192	; 0x2000
20003610:	429a      	cmp	r2, r3
20003612:	d000      	beq.n	20003616 <MSS_I2C_wait_complete+0x2e>
20003614:	be00      	bkpt	0x0000
    
    this_i2c->master_timeout_ms = timeout_ms;
20003616:	687b      	ldr	r3, [r7, #4]
20003618:	683a      	ldr	r2, [r7, #0]
2000361a:	641a      	str	r2, [r3, #64]	; 0x40

    /* Run the loop until state returns I2C_FAILED  or I2C_SUCESS*/
    do {
        i2c_status = this_i2c->master_status;
2000361c:	687b      	ldr	r3, [r7, #4]
2000361e:	f893 303c 	ldrb.w	r3, [r3, #60]	; 0x3c
20003622:	73fb      	strb	r3, [r7, #15]
        counter++;
20003624:	68bb      	ldr	r3, [r7, #8]
20003626:	f103 0301 	add.w	r3, r3, #1
2000362a:	60bb      	str	r3, [r7, #8]
    } while(MSS_I2C_IN_PROGRESS == i2c_status && counter < 1000);
2000362c:	7bfb      	ldrb	r3, [r7, #15]
2000362e:	2b01      	cmp	r3, #1
20003630:	d104      	bne.n	2000363c <MSS_I2C_wait_complete+0x54>
20003632:	68ba      	ldr	r2, [r7, #8]
20003634:	f240 33e7 	movw	r3, #999	; 0x3e7
20003638:	429a      	cmp	r2, r3
2000363a:	d9ef      	bls.n	2000361c <MSS_I2C_wait_complete+0x34>

    return i2c_status;
2000363c:	7bfb      	ldrb	r3, [r7, #15]
}
2000363e:	4618      	mov	r0, r3
20003640:	f107 0714 	add.w	r7, r7, #20
20003644:	46bd      	mov	sp, r7
20003646:	bc80      	pop	{r7}
20003648:	4770      	bx	lr
2000364a:	bf00      	nop

2000364c <enable_slave_if_required>:
 */
static void enable_slave_if_required
(
    mss_i2c_instance_t * this_i2c
)
{
2000364c:	b480      	push	{r7}
2000364e:	b083      	sub	sp, #12
20003650:	af00      	add	r7, sp, #0
20003652:	6078      	str	r0, [r7, #4]
    if( this_i2c->is_slave_enabled )
20003654:	687b      	ldr	r3, [r7, #4]
20003656:	f893 3068 	ldrb.w	r3, [r3, #104]	; 0x68
2000365a:	2b00      	cmp	r3, #0
2000365c:	d004      	beq.n	20003668 <enable_slave_if_required+0x1c>
    {
        this_i2c->hw_reg_bit->CTRL_AA = 1u;
2000365e:	687b      	ldr	r3, [r7, #4]
20003660:	699b      	ldr	r3, [r3, #24]
20003662:	f04f 0201 	mov.w	r2, #1
20003666:	609a      	str	r2, [r3, #8]
    }
}
20003668:	f107 070c 	add.w	r7, r7, #12
2000366c:	46bd      	mov	sp, r7
2000366e:	bc80      	pop	{r7}
20003670:	4770      	bx	lr
20003672:	bf00      	nop

20003674 <mss_i2c_isr>:
 */
static void mss_i2c_isr
(
    mss_i2c_instance_t * this_i2c
)
{
20003674:	b580      	push	{r7, lr}
20003676:	b084      	sub	sp, #16
20003678:	af00      	add	r7, sp, #0
2000367a:	6078      	str	r0, [r7, #4]
    volatile uint8_t status;
    uint8_t data;
    uint8_t hold_bus;
    uint8_t clear_irq = 1u;
2000367c:	f04f 0301 	mov.w	r3, #1
20003680:	73bb      	strb	r3, [r7, #14]
    ASSERT( (this_i2c == &g_mss_i2c0) || (this_i2c == &g_mss_i2c1) );
20003682:	687a      	ldr	r2, [r7, #4]
20003684:	f24b 43d8 	movw	r3, #46296	; 0xb4d8
20003688:	f2c2 0300 	movt	r3, #8192	; 0x2000
2000368c:	429a      	cmp	r2, r3
2000368e:	d007      	beq.n	200036a0 <mss_i2c_isr+0x2c>
20003690:	687a      	ldr	r2, [r7, #4]
20003692:	f24b 534c 	movw	r3, #46412	; 0xb54c
20003696:	f2c2 0300 	movt	r3, #8192	; 0x2000
2000369a:	429a      	cmp	r2, r3
2000369c:	d000      	beq.n	200036a0 <mss_i2c_isr+0x2c>
2000369e:	be00      	bkpt	0x0000

    status = this_i2c->hw_reg->STATUS;
200036a0:	687b      	ldr	r3, [r7, #4]
200036a2:	695b      	ldr	r3, [r3, #20]
200036a4:	791b      	ldrb	r3, [r3, #4]
200036a6:	72fb      	strb	r3, [r7, #11]

    switch( status )
200036a8:	7afb      	ldrb	r3, [r7, #11]
200036aa:	b2db      	uxtb	r3, r3
200036ac:	f1a3 0308 	sub.w	r3, r3, #8
200036b0:	2bd0      	cmp	r3, #208	; 0xd0
200036b2:	f200 841c 	bhi.w	20003eee <mss_i2c_isr+0x87a>
200036b6:	a201      	add	r2, pc, #4	; (adr r2, 200036bc <mss_i2c_isr+0x48>)
200036b8:	f852 f023 	ldr.w	pc, [r2, r3, lsl #2]
200036bc:	20003a01 	.word	0x20003a01
200036c0:	20003eef 	.word	0x20003eef
200036c4:	20003eef 	.word	0x20003eef
200036c8:	20003eef 	.word	0x20003eef
200036cc:	20003eef 	.word	0x20003eef
200036d0:	20003eef 	.word	0x20003eef
200036d4:	20003eef 	.word	0x20003eef
200036d8:	20003eef 	.word	0x20003eef
200036dc:	20003a01 	.word	0x20003a01
200036e0:	20003eef 	.word	0x20003eef
200036e4:	20003eef 	.word	0x20003eef
200036e8:	20003eef 	.word	0x20003eef
200036ec:	20003eef 	.word	0x20003eef
200036f0:	20003eef 	.word	0x20003eef
200036f4:	20003eef 	.word	0x20003eef
200036f8:	20003eef 	.word	0x20003eef
200036fc:	20003aa5 	.word	0x20003aa5
20003700:	20003eef 	.word	0x20003eef
20003704:	20003eef 	.word	0x20003eef
20003708:	20003eef 	.word	0x20003eef
2000370c:	20003eef 	.word	0x20003eef
20003710:	20003eef 	.word	0x20003eef
20003714:	20003eef 	.word	0x20003eef
20003718:	20003eef 	.word	0x20003eef
2000371c:	20003a81 	.word	0x20003a81
20003720:	20003eef 	.word	0x20003eef
20003724:	20003eef 	.word	0x20003eef
20003728:	20003eef 	.word	0x20003eef
2000372c:	20003eef 	.word	0x20003eef
20003730:	20003eef 	.word	0x20003eef
20003734:	20003eef 	.word	0x20003eef
20003738:	20003eef 	.word	0x20003eef
2000373c:	20003aa5 	.word	0x20003aa5
20003740:	20003eef 	.word	0x20003eef
20003744:	20003eef 	.word	0x20003eef
20003748:	20003eef 	.word	0x20003eef
2000374c:	20003eef 	.word	0x20003eef
20003750:	20003eef 	.word	0x20003eef
20003754:	20003eef 	.word	0x20003eef
20003758:	20003eef 	.word	0x20003eef
2000375c:	20003b39 	.word	0x20003b39
20003760:	20003eef 	.word	0x20003eef
20003764:	20003eef 	.word	0x20003eef
20003768:	20003eef 	.word	0x20003eef
2000376c:	20003eef 	.word	0x20003eef
20003770:	20003eef 	.word	0x20003eef
20003774:	20003eef 	.word	0x20003eef
20003778:	20003eef 	.word	0x20003eef
2000377c:	20003a75 	.word	0x20003a75
20003780:	20003eef 	.word	0x20003eef
20003784:	20003eef 	.word	0x20003eef
20003788:	20003eef 	.word	0x20003eef
2000378c:	20003eef 	.word	0x20003eef
20003790:	20003eef 	.word	0x20003eef
20003794:	20003eef 	.word	0x20003eef
20003798:	20003eef 	.word	0x20003eef
2000379c:	20003b5d 	.word	0x20003b5d
200037a0:	20003eef 	.word	0x20003eef
200037a4:	20003eef 	.word	0x20003eef
200037a8:	20003eef 	.word	0x20003eef
200037ac:	20003eef 	.word	0x20003eef
200037b0:	20003eef 	.word	0x20003eef
200037b4:	20003eef 	.word	0x20003eef
200037b8:	20003eef 	.word	0x20003eef
200037bc:	20003bad 	.word	0x20003bad
200037c0:	20003eef 	.word	0x20003eef
200037c4:	20003eef 	.word	0x20003eef
200037c8:	20003eef 	.word	0x20003eef
200037cc:	20003eef 	.word	0x20003eef
200037d0:	20003eef 	.word	0x20003eef
200037d4:	20003eef 	.word	0x20003eef
200037d8:	20003eef 	.word	0x20003eef
200037dc:	20003bd1 	.word	0x20003bd1
200037e0:	20003eef 	.word	0x20003eef
200037e4:	20003eef 	.word	0x20003eef
200037e8:	20003eef 	.word	0x20003eef
200037ec:	20003eef 	.word	0x20003eef
200037f0:	20003eef 	.word	0x20003eef
200037f4:	20003eef 	.word	0x20003eef
200037f8:	20003eef 	.word	0x20003eef
200037fc:	20003c0b 	.word	0x20003c0b
20003800:	20003eef 	.word	0x20003eef
20003804:	20003eef 	.word	0x20003eef
20003808:	20003eef 	.word	0x20003eef
2000380c:	20003eef 	.word	0x20003eef
20003810:	20003eef 	.word	0x20003eef
20003814:	20003eef 	.word	0x20003eef
20003818:	20003eef 	.word	0x20003eef
2000381c:	20003cad 	.word	0x20003cad
20003820:	20003eef 	.word	0x20003eef
20003824:	20003eef 	.word	0x20003eef
20003828:	20003eef 	.word	0x20003eef
2000382c:	20003eef 	.word	0x20003eef
20003830:	20003eef 	.word	0x20003eef
20003834:	20003eef 	.word	0x20003eef
20003838:	20003eef 	.word	0x20003eef
2000383c:	20003ca3 	.word	0x20003ca3
20003840:	20003eef 	.word	0x20003eef
20003844:	20003eef 	.word	0x20003eef
20003848:	20003eef 	.word	0x20003eef
2000384c:	20003eef 	.word	0x20003eef
20003850:	20003eef 	.word	0x20003eef
20003854:	20003eef 	.word	0x20003eef
20003858:	20003eef 	.word	0x20003eef
2000385c:	20003cad 	.word	0x20003cad
20003860:	20003eef 	.word	0x20003eef
20003864:	20003eef 	.word	0x20003eef
20003868:	20003eef 	.word	0x20003eef
2000386c:	20003eef 	.word	0x20003eef
20003870:	20003eef 	.word	0x20003eef
20003874:	20003eef 	.word	0x20003eef
20003878:	20003eef 	.word	0x20003eef
2000387c:	20003ca3 	.word	0x20003ca3
20003880:	20003eef 	.word	0x20003eef
20003884:	20003eef 	.word	0x20003eef
20003888:	20003eef 	.word	0x20003eef
2000388c:	20003eef 	.word	0x20003eef
20003890:	20003eef 	.word	0x20003eef
20003894:	20003eef 	.word	0x20003eef
20003898:	20003eef 	.word	0x20003eef
2000389c:	20003cef 	.word	0x20003cef
200038a0:	20003eef 	.word	0x20003eef
200038a4:	20003eef 	.word	0x20003eef
200038a8:	20003eef 	.word	0x20003eef
200038ac:	20003eef 	.word	0x20003eef
200038b0:	20003eef 	.word	0x20003eef
200038b4:	20003eef 	.word	0x20003eef
200038b8:	20003eef 	.word	0x20003eef
200038bc:	20003c6f 	.word	0x20003c6f
200038c0:	20003eef 	.word	0x20003eef
200038c4:	20003eef 	.word	0x20003eef
200038c8:	20003eef 	.word	0x20003eef
200038cc:	20003eef 	.word	0x20003eef
200038d0:	20003eef 	.word	0x20003eef
200038d4:	20003eef 	.word	0x20003eef
200038d8:	20003eef 	.word	0x20003eef
200038dc:	20003cef 	.word	0x20003cef
200038e0:	20003eef 	.word	0x20003eef
200038e4:	20003eef 	.word	0x20003eef
200038e8:	20003eef 	.word	0x20003eef
200038ec:	20003eef 	.word	0x20003eef
200038f0:	20003eef 	.word	0x20003eef
200038f4:	20003eef 	.word	0x20003eef
200038f8:	20003eef 	.word	0x20003eef
200038fc:	20003c6f 	.word	0x20003c6f
20003900:	20003eef 	.word	0x20003eef
20003904:	20003eef 	.word	0x20003eef
20003908:	20003eef 	.word	0x20003eef
2000390c:	20003eef 	.word	0x20003eef
20003910:	20003eef 	.word	0x20003eef
20003914:	20003eef 	.word	0x20003eef
20003918:	20003eef 	.word	0x20003eef
2000391c:	20003d4b 	.word	0x20003d4b
20003920:	20003eef 	.word	0x20003eef
20003924:	20003eef 	.word	0x20003eef
20003928:	20003eef 	.word	0x20003eef
2000392c:	20003eef 	.word	0x20003eef
20003930:	20003eef 	.word	0x20003eef
20003934:	20003eef 	.word	0x20003eef
20003938:	20003eef 	.word	0x20003eef
2000393c:	20003e23 	.word	0x20003e23
20003940:	20003eef 	.word	0x20003eef
20003944:	20003eef 	.word	0x20003eef
20003948:	20003eef 	.word	0x20003eef
2000394c:	20003eef 	.word	0x20003eef
20003950:	20003eef 	.word	0x20003eef
20003954:	20003eef 	.word	0x20003eef
20003958:	20003eef 	.word	0x20003eef
2000395c:	20003e23 	.word	0x20003e23
20003960:	20003eef 	.word	0x20003eef
20003964:	20003eef 	.word	0x20003eef
20003968:	20003eef 	.word	0x20003eef
2000396c:	20003eef 	.word	0x20003eef
20003970:	20003eef 	.word	0x20003eef
20003974:	20003eef 	.word	0x20003eef
20003978:	20003eef 	.word	0x20003eef
2000397c:	20003e23 	.word	0x20003e23
20003980:	20003eef 	.word	0x20003eef
20003984:	20003eef 	.word	0x20003eef
20003988:	20003eef 	.word	0x20003eef
2000398c:	20003eef 	.word	0x20003eef
20003990:	20003eef 	.word	0x20003eef
20003994:	20003eef 	.word	0x20003eef
20003998:	20003eef 	.word	0x20003eef
2000399c:	20003eb5 	.word	0x20003eb5
200039a0:	20003eef 	.word	0x20003eef
200039a4:	20003eef 	.word	0x20003eef
200039a8:	20003eef 	.word	0x20003eef
200039ac:	20003eef 	.word	0x20003eef
200039b0:	20003eef 	.word	0x20003eef
200039b4:	20003eef 	.word	0x20003eef
200039b8:	20003eef 	.word	0x20003eef
200039bc:	20003eb5 	.word	0x20003eb5
200039c0:	20003eef 	.word	0x20003eef
200039c4:	20003eef 	.word	0x20003eef
200039c8:	20003eef 	.word	0x20003eef
200039cc:	20003eef 	.word	0x20003eef
200039d0:	20003eef 	.word	0x20003eef
200039d4:	20003eef 	.word	0x20003eef
200039d8:	20003eef 	.word	0x20003eef
200039dc:	20003eef 	.word	0x20003eef
200039e0:	20003eef 	.word	0x20003eef
200039e4:	20003eef 	.word	0x20003eef
200039e8:	20003eef 	.word	0x20003eef
200039ec:	20003eef 	.word	0x20003eef
200039f0:	20003eef 	.word	0x20003eef
200039f4:	20003eef 	.word	0x20003eef
200039f8:	20003eef 	.word	0x20003eef
200039fc:	20003df5 	.word	0x20003df5
    {
        /************** MASTER TRANSMITTER / RECEIVER *******************/
      
        case ST_START: /* start has been xmt'd */
        case ST_RESTART: /* repeated start has been xmt'd */
            this_i2c->hw_reg_bit->CTRL_STA = 0u;
20003a00:	687b      	ldr	r3, [r7, #4]
20003a02:	699b      	ldr	r3, [r3, #24]
20003a04:	f04f 0200 	mov.w	r2, #0
20003a08:	615a      	str	r2, [r3, #20]
            this_i2c->hw_reg->DATA = (uint8_t)this_i2c->target_addr;
20003a0a:	687b      	ldr	r3, [r7, #4]
20003a0c:	695b      	ldr	r3, [r3, #20]
20003a0e:	687a      	ldr	r2, [r7, #4]
20003a10:	6852      	ldr	r2, [r2, #4]
20003a12:	b2d2      	uxtb	r2, r2
20003a14:	721a      	strb	r2, [r3, #8]
            this_i2c->hw_reg_bit->DATA_DIR = this_i2c->dir;
20003a16:	687b      	ldr	r3, [r7, #4]
20003a18:	699b      	ldr	r3, [r3, #24]
20003a1a:	687a      	ldr	r2, [r7, #4]
20003a1c:	6ad2      	ldr	r2, [r2, #44]	; 0x2c
20003a1e:	f8c3 2100 	str.w	r2, [r3, #256]	; 0x100
            if ( this_i2c->dir == WRITE_DIR )
20003a22:	687b      	ldr	r3, [r7, #4]
20003a24:	6adb      	ldr	r3, [r3, #44]	; 0x2c
20003a26:	2b00      	cmp	r3, #0
20003a28:	d104      	bne.n	20003a34 <mss_i2c_isr+0x3c0>
            {
                this_i2c->master_tx_idx = 0u;
20003a2a:	687b      	ldr	r3, [r7, #4]
20003a2c:	f04f 0200 	mov.w	r2, #0
20003a30:	629a      	str	r2, [r3, #40]	; 0x28
20003a32:	e007      	b.n	20003a44 <mss_i2c_isr+0x3d0>
            }
            else if ( this_i2c->dir == READ_DIR)
20003a34:	687b      	ldr	r3, [r7, #4]
20003a36:	6adb      	ldr	r3, [r3, #44]	; 0x2c
20003a38:	2b01      	cmp	r3, #1
20003a3a:	d103      	bne.n	20003a44 <mss_i2c_isr+0x3d0>
            {
                this_i2c->master_rx_idx = 0u;
20003a3c:	687b      	ldr	r3, [r7, #4]
20003a3e:	f04f 0200 	mov.w	r2, #0
20003a42:	639a      	str	r2, [r3, #56]	; 0x38
            /*
             * Clear the pending transaction. This condition will be true if the slave 
             * has acquired the bus to carry out pending master transaction which 
             * it had received during its slave transmission or reception mode. 
             */
            if(this_i2c->is_transaction_pending)
20003a44:	687b      	ldr	r3, [r7, #4]
20003a46:	f893 3071 	ldrb.w	r3, [r3, #113]	; 0x71
20003a4a:	2b00      	cmp	r3, #0
20003a4c:	d004      	beq.n	20003a58 <mss_i2c_isr+0x3e4>
            {
                this_i2c->is_transaction_pending = 0u;
20003a4e:	687b      	ldr	r3, [r7, #4]
20003a50:	f04f 0200 	mov.w	r2, #0
20003a54:	f883 2071 	strb.w	r2, [r3, #113]	; 0x71

            /*
             * Make sure to update proper transaction after master START
             * or RESTART
             */
            if(this_i2c->transaction != this_i2c->pending_transaction)
20003a58:	687b      	ldr	r3, [r7, #4]
20003a5a:	7a1a      	ldrb	r2, [r3, #8]
20003a5c:	687b      	ldr	r3, [r7, #4]
20003a5e:	f893 3072 	ldrb.w	r3, [r3, #114]	; 0x72
20003a62:	429a      	cmp	r2, r3
20003a64:	f000 8267 	beq.w	20003f36 <mss_i2c_isr+0x8c2>
            {
                this_i2c->transaction = this_i2c->pending_transaction;
20003a68:	687b      	ldr	r3, [r7, #4]
20003a6a:	f893 2072 	ldrb.w	r2, [r3, #114]	; 0x72
20003a6e:	687b      	ldr	r3, [r7, #4]
20003a70:	721a      	strb	r2, [r3, #8]
            }
            break;
20003a72:	e269      	b.n	20003f48 <mss_i2c_isr+0x8d4>
            
        case ST_LOST_ARB:
            /* Set start bit.  Let's keep trying!  Don't give up! */
            this_i2c->hw_reg_bit->CTRL_STA = 0x01u;
20003a74:	687b      	ldr	r3, [r7, #4]
20003a76:	699b      	ldr	r3, [r3, #24]
20003a78:	f04f 0201 	mov.w	r2, #1
20003a7c:	615a      	str	r2, [r3, #20]
            break;
20003a7e:	e263      	b.n	20003f48 <mss_i2c_isr+0x8d4>
            
        /******************* MASTER TRANSMITTER *************************/
        case ST_SLAW_NACK:
            /* SLA+W has been transmitted; not ACK has been received - let's stop. */
            this_i2c->hw_reg_bit->CTRL_STO = 0x01u;
20003a80:	687b      	ldr	r3, [r7, #4]
20003a82:	699b      	ldr	r3, [r3, #24]
20003a84:	f04f 0201 	mov.w	r2, #1
20003a88:	611a      	str	r2, [r3, #16]
            this_i2c->master_status = MSS_I2C_FAILED;
20003a8a:	687b      	ldr	r3, [r7, #4]
20003a8c:	f04f 0202 	mov.w	r2, #2
20003a90:	f883 203c 	strb.w	r2, [r3, #60]	; 0x3c
            this_i2c->transaction = NO_TRANSACTION;
20003a94:	687b      	ldr	r3, [r7, #4]
20003a96:	f04f 0200 	mov.w	r2, #0
20003a9a:	721a      	strb	r2, [r3, #8]
            enable_slave_if_required(this_i2c);
20003a9c:	6878      	ldr	r0, [r7, #4]
20003a9e:	f7ff fdd5 	bl	2000364c <enable_slave_if_required>
            break;
20003aa2:	e251      	b.n	20003f48 <mss_i2c_isr+0x8d4>
            
        case ST_SLAW_ACK:
        case ST_TX_DATA_ACK:
            /* data byte has been xmt'd with ACK, time to send stop bit or repeated start. */
            if (this_i2c->master_tx_idx < this_i2c->master_tx_size)
20003aa4:	687b      	ldr	r3, [r7, #4]
20003aa6:	6a9a      	ldr	r2, [r3, #40]	; 0x28
20003aa8:	687b      	ldr	r3, [r7, #4]
20003aaa:	6a5b      	ldr	r3, [r3, #36]	; 0x24
20003aac:	429a      	cmp	r2, r3
20003aae:	d20d      	bcs.n	20003acc <mss_i2c_isr+0x458>
            {    
                this_i2c->hw_reg->DATA = this_i2c->master_tx_buffer[this_i2c->master_tx_idx++];
20003ab0:	687b      	ldr	r3, [r7, #4]
20003ab2:	695a      	ldr	r2, [r3, #20]
20003ab4:	687b      	ldr	r3, [r7, #4]
20003ab6:	6a19      	ldr	r1, [r3, #32]
20003ab8:	687b      	ldr	r3, [r7, #4]
20003aba:	6a9b      	ldr	r3, [r3, #40]	; 0x28
20003abc:	4419      	add	r1, r3
20003abe:	7809      	ldrb	r1, [r1, #0]
20003ac0:	7211      	strb	r1, [r2, #8]
20003ac2:	f103 0201 	add.w	r2, r3, #1
20003ac6:	687b      	ldr	r3, [r7, #4]
20003ac8:	629a      	str	r2, [r3, #40]	; 0x28
                    NVIC_DisableIRQ( this_i2c->irqn );
                    clear_irq = 0u;
                }
                this_i2c->master_status = MSS_I2C_SUCCESS;
            }
            break;
20003aca:	e23d      	b.n	20003f48 <mss_i2c_isr+0x8d4>
            /* data byte has been xmt'd with ACK, time to send stop bit or repeated start. */
            if (this_i2c->master_tx_idx < this_i2c->master_tx_size)
            {    
                this_i2c->hw_reg->DATA = this_i2c->master_tx_buffer[this_i2c->master_tx_idx++];
            }
            else if ( this_i2c->transaction == MASTER_RANDOM_READ_TRANSACTION )
20003acc:	687b      	ldr	r3, [r7, #4]
20003ace:	7a1b      	ldrb	r3, [r3, #8]
20003ad0:	2b03      	cmp	r3, #3
20003ad2:	d109      	bne.n	20003ae8 <mss_i2c_isr+0x474>
            {
                /* We are finished sending the address offset part of a random read transaction.
                 * It is is time to send a restart in order to change direction. */
                 this_i2c->dir = READ_DIR;
20003ad4:	687b      	ldr	r3, [r7, #4]
20003ad6:	f04f 0201 	mov.w	r2, #1
20003ada:	62da      	str	r2, [r3, #44]	; 0x2c
                 this_i2c->hw_reg_bit->CTRL_STA = 0x01u;
20003adc:	687b      	ldr	r3, [r7, #4]
20003ade:	699b      	ldr	r3, [r3, #24]
20003ae0:	f04f 0201 	mov.w	r2, #1
20003ae4:	615a      	str	r2, [r3, #20]
                    NVIC_DisableIRQ( this_i2c->irqn );
                    clear_irq = 0u;
                }
                this_i2c->master_status = MSS_I2C_SUCCESS;
            }
            break;
20003ae6:	e22f      	b.n	20003f48 <mss_i2c_isr+0x8d4>
            {
                /*
                 * Set the transaction back to NO_TRANSACTION to allow user to do further
                 * transaction
                 */
                this_i2c->transaction = NO_TRANSACTION;
20003ae8:	687b      	ldr	r3, [r7, #4]
20003aea:	f04f 0200 	mov.w	r2, #0
20003aee:	721a      	strb	r2, [r3, #8]
                hold_bus = this_i2c->options & MSS_I2C_HOLD_BUS;
20003af0:	687b      	ldr	r3, [r7, #4]
20003af2:	7c1b      	ldrb	r3, [r3, #16]
20003af4:	f003 0301 	and.w	r3, r3, #1
20003af8:	737b      	strb	r3, [r7, #13]

                /* Store the information of current I2C bus status in the bus_status*/
                this_i2c->bus_status  = hold_bus;
20003afa:	687b      	ldr	r3, [r7, #4]
20003afc:	7b7a      	ldrb	r2, [r7, #13]
20003afe:	f883 2070 	strb.w	r2, [r3, #112]	; 0x70
                if ( hold_bus == 0u )
20003b02:	7b7b      	ldrb	r3, [r7, #13]
20003b04:	2b00      	cmp	r3, #0
20003b06:	d108      	bne.n	20003b1a <mss_i2c_isr+0x4a6>
                { 
                    this_i2c->hw_reg_bit->CTRL_STO = 0x01u; /*xmt stop condition */
20003b08:	687b      	ldr	r3, [r7, #4]
20003b0a:	699b      	ldr	r3, [r3, #24]
20003b0c:	f04f 0201 	mov.w	r2, #1
20003b10:	611a      	str	r2, [r3, #16]
                    enable_slave_if_required(this_i2c);
20003b12:	6878      	ldr	r0, [r7, #4]
20003b14:	f7ff fd9a 	bl	2000364c <enable_slave_if_required>
20003b18:	e008      	b.n	20003b2c <mss_i2c_isr+0x4b8>
                }
                else
                {
                    NVIC_DisableIRQ( this_i2c->irqn );
20003b1a:	687b      	ldr	r3, [r7, #4]
20003b1c:	8a5b      	ldrh	r3, [r3, #18]
20003b1e:	b21b      	sxth	r3, r3
20003b20:	4618      	mov	r0, r3
20003b22:	f7ff fb5f 	bl	200031e4 <NVIC_DisableIRQ>
                    clear_irq = 0u;
20003b26:	f04f 0300 	mov.w	r3, #0
20003b2a:	73bb      	strb	r3, [r7, #14]
                }
                this_i2c->master_status = MSS_I2C_SUCCESS;
20003b2c:	687b      	ldr	r3, [r7, #4]
20003b2e:	f04f 0200 	mov.w	r2, #0
20003b32:	f883 203c 	strb.w	r2, [r3, #60]	; 0x3c
            }
            break;
20003b36:	e207      	b.n	20003f48 <mss_i2c_isr+0x8d4>
            /* data byte SENT, ACK to be received
             * In fact, this means we've received a NACK (This may not be 
             * obvious, but if we've rec'd an ACK then we would be in state 
             * 0x28!) hence, let's send a stop bit
             */
            this_i2c->hw_reg_bit->CTRL_STO = 0x01u;
20003b38:	687b      	ldr	r3, [r7, #4]
20003b3a:	699b      	ldr	r3, [r3, #24]
20003b3c:	f04f 0201 	mov.w	r2, #1
20003b40:	611a      	str	r2, [r3, #16]
            this_i2c->master_status = MSS_I2C_FAILED;
20003b42:	687b      	ldr	r3, [r7, #4]
20003b44:	f04f 0202 	mov.w	r2, #2
20003b48:	f883 203c 	strb.w	r2, [r3, #60]	; 0x3c

            /*
             * Set the transaction back to NO_TRANSACTION to allow user to do further
             * transaction
             */
            this_i2c->transaction = NO_TRANSACTION;
20003b4c:	687b      	ldr	r3, [r7, #4]
20003b4e:	f04f 0200 	mov.w	r2, #0
20003b52:	721a      	strb	r2, [r3, #8]
            enable_slave_if_required(this_i2c);
20003b54:	6878      	ldr	r0, [r7, #4]
20003b56:	f7ff fd79 	bl	2000364c <enable_slave_if_required>

            break;
20003b5a:	e1f5      	b.n	20003f48 <mss_i2c_isr+0x8d4>
      /* STATUS codes 08H, 10H, 38H are all covered in MTX mode */
        case ST_SLAR_ACK: /* SLA+R tx'ed. */
            /* Let's make sure we ACK the first data byte received (set AA bit in CTRL) unless
             * the next byte is the last byte of the read transaction.
             */
            if(this_i2c->master_rx_size > 1u)
20003b5c:	687b      	ldr	r3, [r7, #4]
20003b5e:	6b5b      	ldr	r3, [r3, #52]	; 0x34
20003b60:	2b01      	cmp	r3, #1
20003b62:	d905      	bls.n	20003b70 <mss_i2c_isr+0x4fc>
            {
                this_i2c->hw_reg_bit->CTRL_AA = 0x01u;
20003b64:	687b      	ldr	r3, [r7, #4]
20003b66:	699b      	ldr	r3, [r3, #24]
20003b68:	f04f 0201 	mov.w	r2, #1
20003b6c:	609a      	str	r2, [r3, #8]
                this_i2c->hw_reg_bit->CTRL_AA = 0x01u;
                this_i2c->hw_reg_bit->CTRL_STO = 0x01u;
                this_i2c->master_status = MSS_I2C_SUCCESS;
                this_i2c->transaction = NO_TRANSACTION;
            }
            break;
20003b6e:	e1eb      	b.n	20003f48 <mss_i2c_isr+0x8d4>
             */
            if(this_i2c->master_rx_size > 1u)
            {
                this_i2c->hw_reg_bit->CTRL_AA = 0x01u;
            }
            else if(1u == this_i2c->master_rx_size)
20003b70:	687b      	ldr	r3, [r7, #4]
20003b72:	6b5b      	ldr	r3, [r3, #52]	; 0x34
20003b74:	2b01      	cmp	r3, #1
20003b76:	d105      	bne.n	20003b84 <mss_i2c_isr+0x510>
            {
                this_i2c->hw_reg_bit->CTRL_AA = 0u;
20003b78:	687b      	ldr	r3, [r7, #4]
20003b7a:	699b      	ldr	r3, [r3, #24]
20003b7c:	f04f 0200 	mov.w	r2, #0
20003b80:	609a      	str	r2, [r3, #8]
                this_i2c->hw_reg_bit->CTRL_AA = 0x01u;
                this_i2c->hw_reg_bit->CTRL_STO = 0x01u;
                this_i2c->master_status = MSS_I2C_SUCCESS;
                this_i2c->transaction = NO_TRANSACTION;
            }
            break;
20003b82:	e1e1      	b.n	20003f48 <mss_i2c_isr+0x8d4>
            {
                this_i2c->hw_reg_bit->CTRL_AA = 0u;
            }
            else /* this_i2c->master_rx_size == 0u */
            {
                this_i2c->hw_reg_bit->CTRL_AA = 0x01u;
20003b84:	687b      	ldr	r3, [r7, #4]
20003b86:	699b      	ldr	r3, [r3, #24]
20003b88:	f04f 0201 	mov.w	r2, #1
20003b8c:	609a      	str	r2, [r3, #8]
                this_i2c->hw_reg_bit->CTRL_STO = 0x01u;
20003b8e:	687b      	ldr	r3, [r7, #4]
20003b90:	699b      	ldr	r3, [r3, #24]
20003b92:	f04f 0201 	mov.w	r2, #1
20003b96:	611a      	str	r2, [r3, #16]
                this_i2c->master_status = MSS_I2C_SUCCESS;
20003b98:	687b      	ldr	r3, [r7, #4]
20003b9a:	f04f 0200 	mov.w	r2, #0
20003b9e:	f883 203c 	strb.w	r2, [r3, #60]	; 0x3c
                this_i2c->transaction = NO_TRANSACTION;
20003ba2:	687b      	ldr	r3, [r7, #4]
20003ba4:	f04f 0200 	mov.w	r2, #0
20003ba8:	721a      	strb	r2, [r3, #8]
            }
            break;
20003baa:	e1cd      	b.n	20003f48 <mss_i2c_isr+0x8d4>
            
        case ST_SLAR_NACK: /* SLA+R tx'ed; let's release the bus (send a stop condition) */
            this_i2c->hw_reg_bit->CTRL_STO = 0x01u;
20003bac:	687b      	ldr	r3, [r7, #4]
20003bae:	699b      	ldr	r3, [r3, #24]
20003bb0:	f04f 0201 	mov.w	r2, #1
20003bb4:	611a      	str	r2, [r3, #16]
            this_i2c->master_status = MSS_I2C_FAILED;
20003bb6:	687b      	ldr	r3, [r7, #4]
20003bb8:	f04f 0202 	mov.w	r2, #2
20003bbc:	f883 203c 	strb.w	r2, [r3, #60]	; 0x3c

            /*
             * Set the transaction back to NO_TRANSACTION to allow user to do further
             * transaction
             */
            this_i2c->transaction = NO_TRANSACTION;
20003bc0:	687b      	ldr	r3, [r7, #4]
20003bc2:	f04f 0200 	mov.w	r2, #0
20003bc6:	721a      	strb	r2, [r3, #8]
            enable_slave_if_required(this_i2c);
20003bc8:	6878      	ldr	r0, [r7, #4]
20003bca:	f7ff fd3f 	bl	2000364c <enable_slave_if_required>
            break;
20003bce:	e1bb      	b.n	20003f48 <mss_i2c_isr+0x8d4>
          
        case ST_RX_DATA_ACK: /* Data byte received, ACK returned */
            /* First, get the data */
            this_i2c->master_rx_buffer[this_i2c->master_rx_idx++] = this_i2c->hw_reg->DATA;
20003bd0:	687b      	ldr	r3, [r7, #4]
20003bd2:	6b1a      	ldr	r2, [r3, #48]	; 0x30
20003bd4:	687b      	ldr	r3, [r7, #4]
20003bd6:	6b9b      	ldr	r3, [r3, #56]	; 0x38
20003bd8:	441a      	add	r2, r3
20003bda:	6879      	ldr	r1, [r7, #4]
20003bdc:	6949      	ldr	r1, [r1, #20]
20003bde:	7a09      	ldrb	r1, [r1, #8]
20003be0:	b2c9      	uxtb	r1, r1
20003be2:	7011      	strb	r1, [r2, #0]
20003be4:	f103 0201 	add.w	r2, r3, #1
20003be8:	687b      	ldr	r3, [r7, #4]
20003bea:	639a      	str	r2, [r3, #56]	; 0x38

            if( this_i2c->master_rx_idx >= (this_i2c->master_rx_size - 1u))
20003bec:	687b      	ldr	r3, [r7, #4]
20003bee:	6b9a      	ldr	r2, [r3, #56]	; 0x38
20003bf0:	687b      	ldr	r3, [r7, #4]
20003bf2:	6b5b      	ldr	r3, [r3, #52]	; 0x34
20003bf4:	f103 33ff 	add.w	r3, r3, #4294967295
20003bf8:	429a      	cmp	r2, r3
20003bfa:	f0c0 819e 	bcc.w	20003f3a <mss_i2c_isr+0x8c6>
            {
                /* If we're at the second last byte, let's set AA to 0 so
                 * we return a NACK at the last byte. */
                this_i2c->hw_reg_bit->CTRL_AA = 0u;
20003bfe:	687b      	ldr	r3, [r7, #4]
20003c00:	699b      	ldr	r3, [r3, #24]
20003c02:	f04f 0200 	mov.w	r2, #0
20003c06:	609a      	str	r2, [r3, #8]
            }
            break;
20003c08:	e19e      	b.n	20003f48 <mss_i2c_isr+0x8d4>
            
        case ST_RX_DATA_NACK: /* Data byte received, NACK returned */
            /* Get the data, then send a stop condition */
            this_i2c->master_rx_buffer[this_i2c->master_rx_idx] = this_i2c->hw_reg->DATA;
20003c0a:	687b      	ldr	r3, [r7, #4]
20003c0c:	6b1a      	ldr	r2, [r3, #48]	; 0x30
20003c0e:	687b      	ldr	r3, [r7, #4]
20003c10:	6b9b      	ldr	r3, [r3, #56]	; 0x38
20003c12:	4413      	add	r3, r2
20003c14:	687a      	ldr	r2, [r7, #4]
20003c16:	6952      	ldr	r2, [r2, #20]
20003c18:	7a12      	ldrb	r2, [r2, #8]
20003c1a:	b2d2      	uxtb	r2, r2
20003c1c:	701a      	strb	r2, [r3, #0]
          
            hold_bus = this_i2c->options &  MSS_I2C_HOLD_BUS; 
20003c1e:	687b      	ldr	r3, [r7, #4]
20003c20:	7c1b      	ldrb	r3, [r3, #16]
20003c22:	f003 0301 	and.w	r3, r3, #1
20003c26:	737b      	strb	r3, [r7, #13]

            /* Store the information of current I2C bus status in the bus_status*/
            this_i2c->bus_status  = hold_bus;
20003c28:	687b      	ldr	r3, [r7, #4]
20003c2a:	7b7a      	ldrb	r2, [r7, #13]
20003c2c:	f883 2070 	strb.w	r2, [r3, #112]	; 0x70
            if ( hold_bus == 0u )
20003c30:	7b7b      	ldrb	r3, [r7, #13]
20003c32:	2b00      	cmp	r3, #0
20003c34:	d108      	bne.n	20003c48 <mss_i2c_isr+0x5d4>
            { 
                this_i2c->hw_reg_bit->CTRL_STO = 0x01u;  /*xmt stop condition */
20003c36:	687b      	ldr	r3, [r7, #4]
20003c38:	699b      	ldr	r3, [r3, #24]
20003c3a:	f04f 0201 	mov.w	r2, #1
20003c3e:	611a      	str	r2, [r3, #16]

                /* Bus is released, now we can start listening to bus, if it is slave */
                   enable_slave_if_required(this_i2c);
20003c40:	6878      	ldr	r0, [r7, #4]
20003c42:	f7ff fd03 	bl	2000364c <enable_slave_if_required>
20003c46:	e008      	b.n	20003c5a <mss_i2c_isr+0x5e6>
            }
            else
            {
                NVIC_DisableIRQ( this_i2c->irqn );
20003c48:	687b      	ldr	r3, [r7, #4]
20003c4a:	8a5b      	ldrh	r3, [r3, #18]
20003c4c:	b21b      	sxth	r3, r3
20003c4e:	4618      	mov	r0, r3
20003c50:	f7ff fac8 	bl	200031e4 <NVIC_DisableIRQ>
                clear_irq = 0u;
20003c54:	f04f 0300 	mov.w	r3, #0
20003c58:	73bb      	strb	r3, [r7, #14]

            /*
             * Set the transaction back to NO_TRANSACTION to allow user to do further
             * transaction
             */
            this_i2c->transaction = NO_TRANSACTION;
20003c5a:	687b      	ldr	r3, [r7, #4]
20003c5c:	f04f 0200 	mov.w	r2, #0
20003c60:	721a      	strb	r2, [r3, #8]
            this_i2c->master_status = MSS_I2C_SUCCESS;
20003c62:	687b      	ldr	r3, [r7, #4]
20003c64:	f04f 0200 	mov.w	r2, #0
20003c68:	f883 203c 	strb.w	r2, [r3, #60]	; 0x3c
            break;
20003c6c:	e16c      	b.n	20003f48 <mss_i2c_isr+0x8d4>
        
        /******************** SLAVE RECEIVER **************************/
        case ST_GCA_NACK: /* NACK after, GCA addressing */
        case ST_SLA_NACK: /* Re-enable AA (assert ack) bit for future transmissions */
            this_i2c->hw_reg_bit->CTRL_AA = 0x01u;
20003c6e:	687b      	ldr	r3, [r7, #4]
20003c70:	699b      	ldr	r3, [r3, #24]
20003c72:	f04f 0201 	mov.w	r2, #1
20003c76:	609a      	str	r2, [r3, #8]
            
            this_i2c->transaction = NO_TRANSACTION;
20003c78:	687b      	ldr	r3, [r7, #4]
20003c7a:	f04f 0200 	mov.w	r2, #0
20003c7e:	721a      	strb	r2, [r3, #8]
            this_i2c->slave_status = MSS_I2C_SUCCESS;
20003c80:	687b      	ldr	r3, [r7, #4]
20003c82:	f04f 0200 	mov.w	r2, #0
20003c86:	f883 205c 	strb.w	r2, [r3, #92]	; 0x5c
            
            /* Check if transaction was pending. If yes, set the START bit */
            if(this_i2c->is_transaction_pending)
20003c8a:	687b      	ldr	r3, [r7, #4]
20003c8c:	f893 3071 	ldrb.w	r3, [r3, #113]	; 0x71
20003c90:	2b00      	cmp	r3, #0
20003c92:	f000 8154 	beq.w	20003f3e <mss_i2c_isr+0x8ca>
            {
                this_i2c->hw_reg_bit->CTRL_STA = 1u ;
20003c96:	687b      	ldr	r3, [r7, #4]
20003c98:	699b      	ldr	r3, [r3, #24]
20003c9a:	f04f 0201 	mov.w	r2, #1
20003c9e:	615a      	str	r2, [r3, #20]
            }
            break;
20003ca0:	e152      	b.n	20003f48 <mss_i2c_isr+0x8d4>
        case ST_SLV_LA: /* Arbitr. lost (SLA rec'd) */
            /*
             *  We lost arbitration and either the GCE or our address was the
             *  one received so pend the master operation we were starting.
             */
            this_i2c->is_transaction_pending = 1u;
20003ca2:	687b      	ldr	r3, [r7, #4]
20003ca4:	f04f 0201 	mov.w	r2, #1
20003ca8:	f883 2071 	strb.w	r2, [r3, #113]	; 0x71
            /* Fall through to normal ST processing as we are now in slave mode */

        case ST_GCA: /* General call address received, ACK returned */
        case ST_SLAVE_SLAW: /* SLA+W received, ACK returned */

            this_i2c->transaction = WRITE_SLAVE_TRANSACTION;
20003cac:	687b      	ldr	r3, [r7, #4]
20003cae:	f04f 0204 	mov.w	r2, #4
20003cb2:	721a      	strb	r2, [r3, #8]
            this_i2c->slave_rx_idx = 0u;
20003cb4:	687b      	ldr	r3, [r7, #4]
20003cb6:	f04f 0200 	mov.w	r2, #0
20003cba:	659a      	str	r2, [r3, #88]	; 0x58
            this_i2c->random_read_addr = 0u;
20003cbc:	687b      	ldr	r3, [r7, #4]
20003cbe:	f04f 0200 	mov.w	r2, #0
20003cc2:	60da      	str	r2, [r3, #12]

             /* If Start Bit is set, clear it, but store that information since it is because of
              * pending transaction
              */
            if(this_i2c->hw_reg_bit->CTRL_STA)
20003cc4:	687b      	ldr	r3, [r7, #4]
20003cc6:	699b      	ldr	r3, [r3, #24]
20003cc8:	695b      	ldr	r3, [r3, #20]
20003cca:	2b00      	cmp	r3, #0
20003ccc:	d009      	beq.n	20003ce2 <mss_i2c_isr+0x66e>
            {
                this_i2c->hw_reg_bit->CTRL_STA = 0u ;
20003cce:	687b      	ldr	r3, [r7, #4]
20003cd0:	699b      	ldr	r3, [r3, #24]
20003cd2:	f04f 0200 	mov.w	r2, #0
20003cd6:	615a      	str	r2, [r3, #20]
                this_i2c->is_transaction_pending = 1u;
20003cd8:	687b      	ldr	r3, [r7, #4]
20003cda:	f04f 0201 	mov.w	r2, #1
20003cde:	f883 2071 	strb.w	r2, [r3, #113]	; 0x71
            }
            this_i2c->slave_status = MSS_I2C_IN_PROGRESS;
20003ce2:	687b      	ldr	r3, [r7, #4]
20003ce4:	f04f 0201 	mov.w	r2, #1
20003ce8:	f883 205c 	strb.w	r2, [r3, #92]	; 0x5c
#ifdef MSS_I2C_INCLUDE_SLA_IN_RX_PAYLOAD
            /* Fall through to put address as first byte in payload buffer */
#else
            /* Only break from this case if the slave address must NOT be included at the
             * beginning of the received write data. */
            break;
20003cec:	e12c      	b.n	20003f48 <mss_i2c_isr+0x8d4>
#endif            
        case ST_GCA_ACK: /* DATA received; ACK sent after GCA */
        case ST_RDATA: /* DATA received; must clear DATA register */
            if((this_i2c->slave_rx_buffer != (uint8_t *)0)
20003cee:	687b      	ldr	r3, [r7, #4]
20003cf0:	6d1b      	ldr	r3, [r3, #80]	; 0x50
20003cf2:	2b00      	cmp	r3, #0
20003cf4:	d01c      	beq.n	20003d30 <mss_i2c_isr+0x6bc>
               && (this_i2c->slave_rx_idx < this_i2c->slave_rx_size))
20003cf6:	687b      	ldr	r3, [r7, #4]
20003cf8:	6d9a      	ldr	r2, [r3, #88]	; 0x58
20003cfa:	687b      	ldr	r3, [r7, #4]
20003cfc:	6d5b      	ldr	r3, [r3, #84]	; 0x54
             * beginning of the received write data. */
            break;
#endif            
        case ST_GCA_ACK: /* DATA received; ACK sent after GCA */
        case ST_RDATA: /* DATA received; must clear DATA register */
            if((this_i2c->slave_rx_buffer != (uint8_t *)0)
20003cfe:	429a      	cmp	r2, r3
20003d00:	d216      	bcs.n	20003d30 <mss_i2c_isr+0x6bc>
               && (this_i2c->slave_rx_idx < this_i2c->slave_rx_size))
            {
                data = this_i2c->hw_reg->DATA;
20003d02:	687b      	ldr	r3, [r7, #4]
20003d04:	695b      	ldr	r3, [r3, #20]
20003d06:	7a1b      	ldrb	r3, [r3, #8]
20003d08:	733b      	strb	r3, [r7, #12]
                this_i2c->slave_rx_buffer[this_i2c->slave_rx_idx++] = data;
20003d0a:	687b      	ldr	r3, [r7, #4]
20003d0c:	6d1a      	ldr	r2, [r3, #80]	; 0x50
20003d0e:	687b      	ldr	r3, [r7, #4]
20003d10:	6d9b      	ldr	r3, [r3, #88]	; 0x58
20003d12:	441a      	add	r2, r3
20003d14:	7b39      	ldrb	r1, [r7, #12]
20003d16:	7011      	strb	r1, [r2, #0]
20003d18:	f103 0201 	add.w	r2, r3, #1
20003d1c:	687b      	ldr	r3, [r7, #4]
20003d1e:	659a      	str	r2, [r3, #88]	; 0x58
                {
                    /* Ignore the slave address byte in the random read address
                       computation in the case where INCLUDE_SLA_IN_RX_PAYLOAD
                       is defined. */
#endif
                    this_i2c->random_read_addr = (this_i2c->random_read_addr << 8) + data;
20003d20:	687b      	ldr	r3, [r7, #4]
20003d22:	68db      	ldr	r3, [r3, #12]
20003d24:	ea4f 2203 	mov.w	r2, r3, lsl #8
20003d28:	7b3b      	ldrb	r3, [r7, #12]
20003d2a:	441a      	add	r2, r3
20003d2c:	687b      	ldr	r3, [r7, #4]
20003d2e:	60da      	str	r2, [r3, #12]
#ifdef MSS_I2C_INCLUDE_SLA_IN_RX_PAYLOAD
                }
#endif
            }
            
            if (this_i2c->slave_rx_idx >= this_i2c->slave_rx_size)
20003d30:	687b      	ldr	r3, [r7, #4]
20003d32:	6d9a      	ldr	r2, [r3, #88]	; 0x58
20003d34:	687b      	ldr	r3, [r7, #4]
20003d36:	6d5b      	ldr	r3, [r3, #84]	; 0x54
20003d38:	429a      	cmp	r2, r3
20003d3a:	f0c0 8102 	bcc.w	20003f42 <mss_i2c_isr+0x8ce>
            {
                this_i2c->hw_reg_bit->CTRL_AA = 0u;   /* send a NACK when done (next reception) */
20003d3e:	687b      	ldr	r3, [r7, #4]
20003d40:	699b      	ldr	r3, [r3, #24]
20003d42:	f04f 0200 	mov.w	r2, #0
20003d46:	609a      	str	r2, [r3, #8]
            }
            break;
20003d48:	e0fe      	b.n	20003f48 <mss_i2c_isr+0x8d4>
            /* STOP or repeated START occurred. */
            /* We cannot be sure if the transaction has actually completed as
             * this hardware state reports that either a STOP or repeated START
             * condition has occurred. We assume that this is a repeated START
             * if the transaction was a write from the master to this point.*/
            if ( this_i2c->transaction == WRITE_SLAVE_TRANSACTION )
20003d4a:	687b      	ldr	r3, [r7, #4]
20003d4c:	7a1b      	ldrb	r3, [r3, #8]
20003d4e:	2b04      	cmp	r3, #4
20003d50:	d135      	bne.n	20003dbe <mss_i2c_isr+0x74a>
            {
                if ( this_i2c->slave_rx_idx == this_i2c->slave_mem_offset_length )
20003d52:	687b      	ldr	r3, [r7, #4]
20003d54:	6d9a      	ldr	r2, [r3, #88]	; 0x58
20003d56:	687b      	ldr	r3, [r7, #4]
20003d58:	6e1b      	ldr	r3, [r3, #96]	; 0x60
20003d5a:	429a      	cmp	r2, r3
20003d5c:	d103      	bne.n	20003d66 <mss_i2c_isr+0x6f2>
                {
                    this_i2c->slave_tx_idx = this_i2c->random_read_addr;
20003d5e:	687b      	ldr	r3, [r7, #4]
20003d60:	68da      	ldr	r2, [r3, #12]
20003d62:	687b      	ldr	r3, [r7, #4]
20003d64:	64da      	str	r2, [r3, #76]	; 0x4c
                }
                {
                    /* Call the slave's write transaction handler if it exists. */
                    if ( this_i2c->slave_write_handler != 0u )
20003d66:	687b      	ldr	r3, [r7, #4]
20003d68:	6e5b      	ldr	r3, [r3, #100]	; 0x64
20003d6a:	2b00      	cmp	r3, #0
20003d6c:	d021      	beq.n	20003db2 <mss_i2c_isr+0x73e>
                    {
                        mss_i2c_slave_handler_ret_t h_ret;
                        h_ret = this_i2c->slave_write_handler( this_i2c, this_i2c->slave_rx_buffer, (uint16_t)this_i2c->slave_rx_idx );
20003d6e:	687b      	ldr	r3, [r7, #4]
20003d70:	6e5b      	ldr	r3, [r3, #100]	; 0x64
20003d72:	687a      	ldr	r2, [r7, #4]
20003d74:	6d11      	ldr	r1, [r2, #80]	; 0x50
20003d76:	687a      	ldr	r2, [r7, #4]
20003d78:	6d92      	ldr	r2, [r2, #88]	; 0x58
20003d7a:	b292      	uxth	r2, r2
20003d7c:	6878      	ldr	r0, [r7, #4]
20003d7e:	4798      	blx	r3
20003d80:	4603      	mov	r3, r0
20003d82:	73fb      	strb	r3, [r7, #15]
                        if ( MSS_I2C_REENABLE_SLAVE_RX == h_ret )
20003d84:	7bfb      	ldrb	r3, [r7, #15]
20003d86:	2b00      	cmp	r3, #0
20003d88:	d108      	bne.n	20003d9c <mss_i2c_isr+0x728>
                        {
                            /* There is a small risk that the write handler could
                             * call MSS_I2C_disable_slave() but return
                             * MSS_I2C_REENABLE_SLAVE_RX in error so we only
                             * enable ACKs if still in slave mode. */
                             enable_slave_if_required(this_i2c);
20003d8a:	6878      	ldr	r0, [r7, #4]
20003d8c:	f7ff fc5e 	bl	2000364c <enable_slave_if_required>
                             this_i2c->hw_reg_bit->CTRL_AA = 0x01u;
20003d90:	687b      	ldr	r3, [r7, #4]
20003d92:	699b      	ldr	r3, [r3, #24]
20003d94:	f04f 0201 	mov.w	r2, #1
20003d98:	609a      	str	r2, [r3, #8]
                        }
                    }
                    else
                    {
                        /* Re-enable address acknowledge in case we were ready to nack the next received byte. */
                        this_i2c->hw_reg_bit->CTRL_AA = 0x01u;
20003d9a:	e017      	b.n	20003dcc <mss_i2c_isr+0x758>
                             enable_slave_if_required(this_i2c);
                             this_i2c->hw_reg_bit->CTRL_AA = 0x01u;
                        }
                        else
                        {
                            this_i2c->hw_reg_bit->CTRL_AA = 0u;
20003d9c:	687b      	ldr	r3, [r7, #4]
20003d9e:	699b      	ldr	r3, [r3, #24]
20003da0:	f04f 0200 	mov.w	r2, #0
20003da4:	609a      	str	r2, [r3, #8]
                            /* Clear slave mode flag as well otherwise in mixed
                             * master/slave applications, the AA bit will get set by
                             * subsequent master operations. */
                            this_i2c->is_slave_enabled = 0u;
20003da6:	687b      	ldr	r3, [r7, #4]
20003da8:	f04f 0200 	mov.w	r2, #0
20003dac:	f883 2068 	strb.w	r2, [r3, #104]	; 0x68
                        }
                    }
                    else
                    {
                        /* Re-enable address acknowledge in case we were ready to nack the next received byte. */
                        this_i2c->hw_reg_bit->CTRL_AA = 0x01u;
20003db0:	e00c      	b.n	20003dcc <mss_i2c_isr+0x758>
20003db2:	687b      	ldr	r3, [r7, #4]
20003db4:	699b      	ldr	r3, [r3, #24]
20003db6:	f04f 0201 	mov.w	r2, #1
20003dba:	609a      	str	r2, [r3, #8]
20003dbc:	e006      	b.n	20003dcc <mss_i2c_isr+0x758>
            {
                /*
                 * Reset slave_tx_idx so that a subsequent read will result in the slave's
                 * transmit buffer being sent from the first byte.
                 */
                this_i2c->slave_tx_idx = 0u;
20003dbe:	687b      	ldr	r3, [r7, #4]
20003dc0:	f04f 0200 	mov.w	r2, #0
20003dc4:	64da      	str	r2, [r3, #76]	; 0x4c
                /*
                 * See if we need to re-enable acknowledgement as some error conditions, such
                 * as a master prematurely ending a transfer, can see us get here with AA set
                 * to 0 which will disable slave operation if we are not careful.
                 */
                enable_slave_if_required(this_i2c);
20003dc6:	6878      	ldr	r0, [r7, #4]
20003dc8:	f7ff fc40 	bl	2000364c <enable_slave_if_required>
            }

            /* Mark any previous master write transaction as complete. */
            this_i2c->slave_status = MSS_I2C_SUCCESS;
20003dcc:	687b      	ldr	r3, [r7, #4]
20003dce:	f04f 0200 	mov.w	r2, #0
20003dd2:	f883 205c 	strb.w	r2, [r3, #92]	; 0x5c

            /* Check if transaction was pending. If yes, set the START bit */
            if(this_i2c->is_transaction_pending)
20003dd6:	687b      	ldr	r3, [r7, #4]
20003dd8:	f893 3071 	ldrb.w	r3, [r3, #113]	; 0x71
20003ddc:	2b00      	cmp	r3, #0
20003dde:	d004      	beq.n	20003dea <mss_i2c_isr+0x776>
            {
                this_i2c->hw_reg_bit->CTRL_STA = 1u ;
20003de0:	687b      	ldr	r3, [r7, #4]
20003de2:	699b      	ldr	r3, [r3, #24]
20003de4:	f04f 0201 	mov.w	r2, #1
20003de8:	615a      	str	r2, [r3, #20]

            /*
             * Set the transaction back to NO_TRANSACTION to allow user to do further
             * transaction
             */
            this_i2c->transaction = NO_TRANSACTION;
20003dea:	687b      	ldr	r3, [r7, #4]
20003dec:	f04f 0200 	mov.w	r2, #0
20003df0:	721a      	strb	r2, [r3, #8]
            break;
20003df2:	e0a9      	b.n	20003f48 <mss_i2c_isr+0x8d4>
        case ST_SLV_RST: /* SMBUS ONLY: timeout state. must clear interrupt */
            /*
             * Set the transaction back to NO_TRANSACTION to allow user to do further
             * transaction.
             */
            this_i2c->transaction = NO_TRANSACTION;
20003df4:	687b      	ldr	r3, [r7, #4]
20003df6:	f04f 0200 	mov.w	r2, #0
20003dfa:	721a      	strb	r2, [r3, #8]
            /*
             * Reset slave_tx_idx so that a subsequent read will result in the slave's
             * transmit buffer being sent from the first byte.
             */
            this_i2c->slave_tx_idx = 0u;
20003dfc:	687b      	ldr	r3, [r7, #4]
20003dfe:	f04f 0200 	mov.w	r2, #0
20003e02:	64da      	str	r2, [r3, #76]	; 0x4c
            /*
             * Clear status to I2C_FAILED only if there was an operation in progress.
             */
            if(MSS_I2C_IN_PROGRESS == this_i2c->slave_status)
20003e04:	687b      	ldr	r3, [r7, #4]
20003e06:	f893 305c 	ldrb.w	r3, [r3, #92]	; 0x5c
20003e0a:	b2db      	uxtb	r3, r3
20003e0c:	2b01      	cmp	r3, #1
20003e0e:	d104      	bne.n	20003e1a <mss_i2c_isr+0x7a6>
            {
                this_i2c->slave_status = MSS_I2C_FAILED;
20003e10:	687b      	ldr	r3, [r7, #4]
20003e12:	f04f 0202 	mov.w	r2, #2
20003e16:	f883 205c 	strb.w	r2, [r3, #92]	; 0x5c
            }

            enable_slave_if_required(this_i2c); /* Make sure AA is set correctly */
20003e1a:	6878      	ldr	r0, [r7, #4]
20003e1c:	f7ff fc16 	bl	2000364c <enable_slave_if_required>

            break;
20003e20:	e092      	b.n	20003f48 <mss_i2c_isr+0x8d4>
            
        /****************** SLAVE TRANSMITTER **************************/
        case ST_SLAVE_SLAR_ACK: /* SLA+R received, ACK returned */
        case ST_SLARW_LA:   /* Arbitration lost, SLA+R received, ACK returned */
        case ST_RACK: /* Data tx'ed, ACK received */
            if ( status == ST_SLAVE_SLAR_ACK )
20003e22:	7afb      	ldrb	r3, [r7, #11]
20003e24:	b2db      	uxtb	r3, r3
20003e26:	2ba8      	cmp	r3, #168	; 0xa8
20003e28:	d11b      	bne.n	20003e62 <mss_i2c_isr+0x7ee>
            {
                this_i2c->transaction = READ_SLAVE_TRANSACTION;
20003e2a:	687b      	ldr	r3, [r7, #4]
20003e2c:	f04f 0205 	mov.w	r2, #5
20003e30:	721a      	strb	r2, [r3, #8]
                this_i2c->random_read_addr = 0u;
20003e32:	687b      	ldr	r3, [r7, #4]
20003e34:	f04f 0200 	mov.w	r2, #0
20003e38:	60da      	str	r2, [r3, #12]

                this_i2c->slave_status = MSS_I2C_IN_PROGRESS;
20003e3a:	687b      	ldr	r3, [r7, #4]
20003e3c:	f04f 0201 	mov.w	r2, #1
20003e40:	f883 205c 	strb.w	r2, [r3, #92]	; 0x5c

                /* If Start Bit is set, clear it, but store that information since it is because of
                 * pending transaction
                 */
                if(this_i2c->hw_reg_bit->CTRL_STA)
20003e44:	687b      	ldr	r3, [r7, #4]
20003e46:	699b      	ldr	r3, [r3, #24]
20003e48:	695b      	ldr	r3, [r3, #20]
20003e4a:	2b00      	cmp	r3, #0
20003e4c:	d009      	beq.n	20003e62 <mss_i2c_isr+0x7ee>
                {
                    this_i2c->hw_reg_bit->CTRL_STA = 0u ;
20003e4e:	687b      	ldr	r3, [r7, #4]
20003e50:	699b      	ldr	r3, [r3, #24]
20003e52:	f04f 0200 	mov.w	r2, #0
20003e56:	615a      	str	r2, [r3, #20]
                    this_i2c->is_transaction_pending = 1u;
20003e58:	687b      	ldr	r3, [r7, #4]
20003e5a:	f04f 0201 	mov.w	r2, #1
20003e5e:	f883 2071 	strb.w	r2, [r3, #113]	; 0x71
                }
            }
            if (this_i2c->slave_tx_idx >= this_i2c->slave_tx_size)
20003e62:	687b      	ldr	r3, [r7, #4]
20003e64:	6cda      	ldr	r2, [r3, #76]	; 0x4c
20003e66:	687b      	ldr	r3, [r7, #4]
20003e68:	6c9b      	ldr	r3, [r3, #72]	; 0x48
20003e6a:	429a      	cmp	r2, r3
20003e6c:	d305      	bcc.n	20003e7a <mss_i2c_isr+0x806>
            {
                /* Ensure 0xFF is returned to the master when the slave specifies
                 * an empty transmit buffer. */
                this_i2c->hw_reg->DATA = 0xFFu;
20003e6e:	687b      	ldr	r3, [r7, #4]
20003e70:	695b      	ldr	r3, [r3, #20]
20003e72:	f04f 32ff 	mov.w	r2, #4294967295
20003e76:	721a      	strb	r2, [r3, #8]
20003e78:	e00c      	b.n	20003e94 <mss_i2c_isr+0x820>
            }
            else
            {
                /* Load the data the data byte to be sent to the master. */
                this_i2c->hw_reg->DATA = this_i2c->slave_tx_buffer[this_i2c->slave_tx_idx++];
20003e7a:	687b      	ldr	r3, [r7, #4]
20003e7c:	695a      	ldr	r2, [r3, #20]
20003e7e:	687b      	ldr	r3, [r7, #4]
20003e80:	6c59      	ldr	r1, [r3, #68]	; 0x44
20003e82:	687b      	ldr	r3, [r7, #4]
20003e84:	6cdb      	ldr	r3, [r3, #76]	; 0x4c
20003e86:	4419      	add	r1, r3
20003e88:	7809      	ldrb	r1, [r1, #0]
20003e8a:	7211      	strb	r1, [r2, #8]
20003e8c:	f103 0201 	add.w	r2, r3, #1
20003e90:	687b      	ldr	r3, [r7, #4]
20003e92:	64da      	str	r2, [r3, #76]	; 0x4c
            }
            /* Determine if this is the last data byte to send to the master. */
            if (this_i2c->slave_tx_idx >= this_i2c->slave_tx_size) /* last byte? */
20003e94:	687b      	ldr	r3, [r7, #4]
20003e96:	6cda      	ldr	r2, [r3, #76]	; 0x4c
20003e98:	687b      	ldr	r3, [r7, #4]
20003e9a:	6c9b      	ldr	r3, [r3, #72]	; 0x48
20003e9c:	429a      	cmp	r2, r3
20003e9e:	d352      	bcc.n	20003f46 <mss_i2c_isr+0x8d2>
            {
                this_i2c->hw_reg_bit->CTRL_AA = 0u;
20003ea0:	687b      	ldr	r3, [r7, #4]
20003ea2:	699b      	ldr	r3, [r3, #24]
20003ea4:	f04f 0200 	mov.w	r2, #0
20003ea8:	609a      	str	r2, [r3, #8]
                /* Next read transaction will result in slave's transmit buffer
                 * being sent from the first byte. */
                this_i2c->slave_tx_idx = 0u;
20003eaa:	687b      	ldr	r3, [r7, #4]
20003eac:	f04f 0200 	mov.w	r2, #0
20003eb0:	64da      	str	r2, [r3, #76]	; 0x4c
            }
            break;
20003eb2:	e049      	b.n	20003f48 <mss_i2c_isr+0x8d4>
        case ST_SLAVE_RNACK:    /* Data byte has been transmitted; not-ACK has been received. */
        case ST_FINAL: /* Last Data byte tx'ed, ACK received */
            /* We assume that the transaction will be stopped by the master.
             * Reset slave_tx_idx so that a subsequent read will result in the slave's
             * transmit buffer being sent from the first byte. */
            this_i2c->slave_tx_idx = 0u;
20003eb4:	687b      	ldr	r3, [r7, #4]
20003eb6:	f04f 0200 	mov.w	r2, #0
20003eba:	64da      	str	r2, [r3, #76]	; 0x4c
            this_i2c->hw_reg_bit->CTRL_AA = 0x01u;
20003ebc:	687b      	ldr	r3, [r7, #4]
20003ebe:	699b      	ldr	r3, [r3, #24]
20003ec0:	f04f 0201 	mov.w	r2, #1
20003ec4:	609a      	str	r2, [r3, #8]

            /*  Mark previous state as complete */
            this_i2c->slave_status = MSS_I2C_SUCCESS;
20003ec6:	687b      	ldr	r3, [r7, #4]
20003ec8:	f04f 0200 	mov.w	r2, #0
20003ecc:	f883 205c 	strb.w	r2, [r3, #92]	; 0x5c

            /* Check if transaction was pending. If yes, set the START bit */
            if(this_i2c->is_transaction_pending)
20003ed0:	687b      	ldr	r3, [r7, #4]
20003ed2:	f893 3071 	ldrb.w	r3, [r3, #113]	; 0x71
20003ed6:	2b00      	cmp	r3, #0
20003ed8:	d004      	beq.n	20003ee4 <mss_i2c_isr+0x870>
            {
                this_i2c->hw_reg_bit->CTRL_STA = 1u ;
20003eda:	687b      	ldr	r3, [r7, #4]
20003edc:	699b      	ldr	r3, [r3, #24]
20003ede:	f04f 0201 	mov.w	r2, #1
20003ee2:	615a      	str	r2, [r3, #20]

            /*
             * Set the transaction back to NO_TRANSACTION to allow user to do further
             * transaction
             */
            this_i2c->transaction = NO_TRANSACTION;
20003ee4:	687b      	ldr	r3, [r7, #4]
20003ee6:	f04f 0200 	mov.w	r2, #0
20003eea:	721a      	strb	r2, [r3, #8]
            break;
20003eec:	e02c      	b.n	20003f48 <mss_i2c_isr+0x8d4>
        case ST_RESET_ACTIVATED:
        case ST_BUS_ERROR: /* Bus error during MST or selected slave modes */
        default:
            /* Some undefined state has encountered. Clear Start bit to make
             * sure, next good transaction happen */
            this_i2c->hw_reg_bit->CTRL_STA = 0x00u;
20003eee:	687b      	ldr	r3, [r7, #4]
20003ef0:	699b      	ldr	r3, [r3, #24]
20003ef2:	f04f 0200 	mov.w	r2, #0
20003ef6:	615a      	str	r2, [r3, #20]
            /*
             * Set the transaction back to NO_TRANSACTION to allow user to do further
             * transaction
             */
            this_i2c->transaction = NO_TRANSACTION;
20003ef8:	687b      	ldr	r3, [r7, #4]
20003efa:	f04f 0200 	mov.w	r2, #0
20003efe:	721a      	strb	r2, [r3, #8]
            /*
             * Reset slave_tx_idx so that a subsequent read will result in the slave's
             * transmit buffer being sent from the first byte.
             */
            this_i2c->slave_tx_idx = 0u;
20003f00:	687b      	ldr	r3, [r7, #4]
20003f02:	f04f 0200 	mov.w	r2, #0
20003f06:	64da      	str	r2, [r3, #76]	; 0x4c
            /*
             * Clear statuses to I2C_FAILED only if there was an operation in progress.
             */
            if(MSS_I2C_IN_PROGRESS == this_i2c->master_status)
20003f08:	687b      	ldr	r3, [r7, #4]
20003f0a:	f893 303c 	ldrb.w	r3, [r3, #60]	; 0x3c
20003f0e:	b2db      	uxtb	r3, r3
20003f10:	2b01      	cmp	r3, #1
20003f12:	d104      	bne.n	20003f1e <mss_i2c_isr+0x8aa>
            {
                this_i2c->master_status = MSS_I2C_FAILED;
20003f14:	687b      	ldr	r3, [r7, #4]
20003f16:	f04f 0202 	mov.w	r2, #2
20003f1a:	f883 203c 	strb.w	r2, [r3, #60]	; 0x3c
            }

            if(MSS_I2C_IN_PROGRESS == this_i2c->slave_status)
20003f1e:	687b      	ldr	r3, [r7, #4]
20003f20:	f893 305c 	ldrb.w	r3, [r3, #92]	; 0x5c
20003f24:	b2db      	uxtb	r3, r3
20003f26:	2b01      	cmp	r3, #1
20003f28:	d10e      	bne.n	20003f48 <mss_i2c_isr+0x8d4>
            {
                this_i2c->slave_status = MSS_I2C_FAILED;
20003f2a:	687b      	ldr	r3, [r7, #4]
20003f2c:	f04f 0202 	mov.w	r2, #2
20003f30:	f883 205c 	strb.w	r2, [r3, #92]	; 0x5c
20003f34:	e008      	b.n	20003f48 <mss_i2c_isr+0x8d4>
             */
            if(this_i2c->transaction != this_i2c->pending_transaction)
            {
                this_i2c->transaction = this_i2c->pending_transaction;
            }
            break;
20003f36:	bf00      	nop
20003f38:	e006      	b.n	20003f48 <mss_i2c_isr+0x8d4>
            {
                /* If we're at the second last byte, let's set AA to 0 so
                 * we return a NACK at the last byte. */
                this_i2c->hw_reg_bit->CTRL_AA = 0u;
            }
            break;
20003f3a:	bf00      	nop
20003f3c:	e004      	b.n	20003f48 <mss_i2c_isr+0x8d4>
            /* Check if transaction was pending. If yes, set the START bit */
            if(this_i2c->is_transaction_pending)
            {
                this_i2c->hw_reg_bit->CTRL_STA = 1u ;
            }
            break;
20003f3e:	bf00      	nop
20003f40:	e002      	b.n	20003f48 <mss_i2c_isr+0x8d4>
            
            if (this_i2c->slave_rx_idx >= this_i2c->slave_rx_size)
            {
                this_i2c->hw_reg_bit->CTRL_AA = 0u;   /* send a NACK when done (next reception) */
            }
            break;
20003f42:	bf00      	nop
20003f44:	e000      	b.n	20003f48 <mss_i2c_isr+0x8d4>
                this_i2c->hw_reg_bit->CTRL_AA = 0u;
                /* Next read transaction will result in slave's transmit buffer
                 * being sent from the first byte. */
                this_i2c->slave_tx_idx = 0u;
            }
            break;
20003f46:	bf00      	nop


            break;
    }
    
    if ( clear_irq )
20003f48:	7bbb      	ldrb	r3, [r7, #14]
20003f4a:	2b00      	cmp	r3, #0
20003f4c:	d004      	beq.n	20003f58 <mss_i2c_isr+0x8e4>
    {
        /* clear interrupt. */
        this_i2c->hw_reg_bit->CTRL_SI = 0u;
20003f4e:	687b      	ldr	r3, [r7, #4]
20003f50:	699b      	ldr	r3, [r3, #24]
20003f52:	f04f 0200 	mov.w	r2, #0
20003f56:	60da      	str	r2, [r3, #12]
    }
    
    /* Read the status register to ensure the last I2C registers write took place
     * in a system built around a bus making use of posted writes. */
    status = this_i2c->hw_reg->STATUS;
20003f58:	687b      	ldr	r3, [r7, #4]
20003f5a:	695b      	ldr	r3, [r3, #20]
20003f5c:	791b      	ldrb	r3, [r3, #4]
20003f5e:	72fb      	strb	r3, [r7, #11]
}
20003f60:	f107 0710 	add.w	r7, r7, #16
20003f64:	46bd      	mov	sp, r7
20003f66:	bd80      	pop	{r7, pc}

20003f68 <disable_interrupts>:
}
/*------------------------------------------------------------------------------
 *
 */
static uint32_t disable_interrupts( void )
{
20003f68:	b580      	push	{r7, lr}
20003f6a:	b082      	sub	sp, #8
20003f6c:	af00      	add	r7, sp, #0
    uint32_t primask;
    primask = __get_PRIMASK();
20003f6e:	f000 f845 	bl	20003ffc <__get_PRIMASK>
20003f72:	4603      	mov	r3, r0
20003f74:	607b      	str	r3, [r7, #4]
    __set_PRIMASK(1u);
20003f76:	f04f 0001 	mov.w	r0, #1
20003f7a:	f000 f84f 	bl	2000401c <__set_PRIMASK>
    return primask;
20003f7e:	687b      	ldr	r3, [r7, #4]
}
20003f80:	4618      	mov	r0, r3
20003f82:	f107 0708 	add.w	r7, r7, #8
20003f86:	46bd      	mov	sp, r7
20003f88:	bd80      	pop	{r7, pc}
20003f8a:	bf00      	nop

20003f8c <restore_interrupts>:

/*------------------------------------------------------------------------------
 *
 */
static void restore_interrupts( uint32_t primask )
{
20003f8c:	b580      	push	{r7, lr}
20003f8e:	b082      	sub	sp, #8
20003f90:	af00      	add	r7, sp, #0
20003f92:	6078      	str	r0, [r7, #4]
    __set_PRIMASK( primask );
20003f94:	6878      	ldr	r0, [r7, #4]
20003f96:	f000 f841 	bl	2000401c <__set_PRIMASK>
}
20003f9a:	f107 0708 	add.w	r7, r7, #8
20003f9e:	46bd      	mov	sp, r7
20003fa0:	bd80      	pop	{r7, pc}
20003fa2:	bf00      	nop

20003fa4 <I2C0_IRQHandler>:
#if defined(__GNUC__)
__attribute__((__interrupt__)) void I2C0_IRQHandler( void )
#else
void I2C0_IRQHandler( void )
#endif
{
20003fa4:	4668      	mov	r0, sp
20003fa6:	f020 0107 	bic.w	r1, r0, #7
20003faa:	468d      	mov	sp, r1
20003fac:	b589      	push	{r0, r3, r7, lr}
20003fae:	af00      	add	r7, sp, #0
    mss_i2c_isr( &g_mss_i2c0 );
20003fb0:	f24b 40d8 	movw	r0, #46296	; 0xb4d8
20003fb4:	f2c2 0000 	movt	r0, #8192	; 0x2000
20003fb8:	f7ff fb5c 	bl	20003674 <mss_i2c_isr>
    NVIC_ClearPendingIRQ( I2C0_IRQn );
20003fbc:	f04f 000e 	mov.w	r0, #14
20003fc0:	f7ff f92e 	bl	20003220 <NVIC_ClearPendingIRQ>
}
20003fc4:	46bd      	mov	sp, r7
20003fc6:	e8bd 4089 	ldmia.w	sp!, {r0, r3, r7, lr}
20003fca:	4685      	mov	sp, r0
20003fcc:	4770      	bx	lr
20003fce:	bf00      	nop

20003fd0 <I2C1_IRQHandler>:
#if defined(__GNUC__)
__attribute__((__interrupt__)) void I2C1_IRQHandler( void )
#else
void I2C1_IRQHandler( void )
#endif
{
20003fd0:	4668      	mov	r0, sp
20003fd2:	f020 0107 	bic.w	r1, r0, #7
20003fd6:	468d      	mov	sp, r1
20003fd8:	b589      	push	{r0, r3, r7, lr}
20003fda:	af00      	add	r7, sp, #0
    mss_i2c_isr( &g_mss_i2c1 );
20003fdc:	f24b 504c 	movw	r0, #46412	; 0xb54c
20003fe0:	f2c2 0000 	movt	r0, #8192	; 0x2000
20003fe4:	f7ff fb46 	bl	20003674 <mss_i2c_isr>
    NVIC_ClearPendingIRQ( I2C1_IRQn );
20003fe8:	f04f 0011 	mov.w	r0, #17
20003fec:	f7ff f918 	bl	20003220 <NVIC_ClearPendingIRQ>
}
20003ff0:	46bd      	mov	sp, r7
20003ff2:	e8bd 4089 	ldmia.w	sp!, {r0, r3, r7, lr}
20003ff6:	4685      	mov	sp, r0
20003ff8:	4770      	bx	lr
20003ffa:	bf00      	nop

20003ffc <__get_PRIMASK>:
 * @return PriMask
 *
 * Return state of the priority mask bit from the priority mask register
 */
uint32_t __get_PRIMASK(void)
{
20003ffc:	b480      	push	{r7}
20003ffe:	b083      	sub	sp, #12
20004000:	af00      	add	r7, sp, #0
  uint32_t result=0;
20004002:	f04f 0300 	mov.w	r3, #0
20004006:	607b      	str	r3, [r7, #4]

  __ASM volatile ("MRS %0, primask" : "=r" (result) );
20004008:	f3ef 8310 	mrs	r3, PRIMASK
2000400c:	607b      	str	r3, [r7, #4]
  return(result);
2000400e:	687b      	ldr	r3, [r7, #4]
}
20004010:	4618      	mov	r0, r3
20004012:	f107 070c 	add.w	r7, r7, #12
20004016:	46bd      	mov	sp, r7
20004018:	bc80      	pop	{r7}
2000401a:	4770      	bx	lr

2000401c <__set_PRIMASK>:
 * @param  priMask  PriMask
 *
 * Set the priority mask bit in the priority mask register
 */
void __set_PRIMASK(uint32_t priMask)
{
2000401c:	b480      	push	{r7}
2000401e:	b083      	sub	sp, #12
20004020:	af00      	add	r7, sp, #0
20004022:	6078      	str	r0, [r7, #4]
  __ASM volatile ("MSR primask, %0" : : "r" (priMask) );
20004024:	687b      	ldr	r3, [r7, #4]
20004026:	f383 8810 	msr	PRIMASK, r3
}
2000402a:	f107 070c 	add.w	r7, r7, #12
2000402e:	46bd      	mov	sp, r7
20004030:	bc80      	pop	{r7}
20004032:	4770      	bx	lr

20004034 <SystemInit>:

/***************************************************************************//**
 * See system_a2fxxxm3f.h for details.
 */
void SystemInit(void)
{
20004034:	b480      	push	{r7}
20004036:	af00      	add	r7, sp, #0
    /*
     * Do not make use of global variables or make any asumptions regarding
     * memory content if modifying this function. The memory content has not been
     * initialised by the time this function is called by the start-up code.
     */
}
20004038:	46bd      	mov	sp, r7
2000403a:	bc80      	pop	{r7}
2000403c:	4770      	bx	lr
2000403e:	bf00      	nop

20004040 <SystemCoreClockUpdate>:

/***************************************************************************//**
 *
 */
void SystemCoreClockUpdate (void)
{
20004040:	b580      	push	{r7, lr}
20004042:	b08a      	sub	sp, #40	; 0x28
20004044:	af00      	add	r7, sp, #0
    uint32_t PclkDiv0;
    uint32_t PclkDiv1;
    uint32_t AceDiv;
    uint32_t FabDiv;

    const uint32_t pclk_div_lut[4] = { 1uL, 2uL, 4uL, 1uL };
20004046:	f64a 338c 	movw	r3, #43916	; 0xab8c
2000404a:	f2c2 0300 	movt	r3, #8192	; 0x2000
2000404e:	46bc      	mov	ip, r7
20004050:	cb0f      	ldmia	r3!, {r0, r1, r2, r3}
20004052:	e88c 000f 	stmia.w	ip, {r0, r1, r2, r3}

    /* Read PCLK dividers from system registers. Multiply the value read from
     * system register by two to get actual divider value. */
    PclkDiv0 = pclk_div_lut[((SYSREG->MSS_CLK_CR >> PCLK0_DIV_SHIFT) & PCLK_DIV_MASK)];
20004056:	f242 0300 	movw	r3, #8192	; 0x2000
2000405a:	f2ce 0304 	movt	r3, #57348	; 0xe004
2000405e:	6c9b      	ldr	r3, [r3, #72]	; 0x48
20004060:	ea4f 0393 	mov.w	r3, r3, lsr #2
20004064:	f003 0303 	and.w	r3, r3, #3
20004068:	ea4f 0383 	mov.w	r3, r3, lsl #2
2000406c:	f107 0228 	add.w	r2, r7, #40	; 0x28
20004070:	4413      	add	r3, r2
20004072:	f853 3c28 	ldr.w	r3, [r3, #-40]
20004076:	613b      	str	r3, [r7, #16]
    PclkDiv1 = pclk_div_lut[((SYSREG->MSS_CLK_CR >> PCLK1_DIV_SHIFT) & PCLK_DIV_MASK)];
20004078:	f242 0300 	movw	r3, #8192	; 0x2000
2000407c:	f2ce 0304 	movt	r3, #57348	; 0xe004
20004080:	6c9b      	ldr	r3, [r3, #72]	; 0x48
20004082:	ea4f 1313 	mov.w	r3, r3, lsr #4
20004086:	f003 0303 	and.w	r3, r3, #3
2000408a:	ea4f 0383 	mov.w	r3, r3, lsl #2
2000408e:	f107 0228 	add.w	r2, r7, #40	; 0x28
20004092:	4413      	add	r3, r2
20004094:	f853 3c28 	ldr.w	r3, [r3, #-40]
20004098:	617b      	str	r3, [r7, #20]
    AceDiv = pclk_div_lut[((SYSREG->MSS_CLK_CR >> ACE_DIV_SHIFT) & PCLK_DIV_MASK)];
2000409a:	f242 0300 	movw	r3, #8192	; 0x2000
2000409e:	f2ce 0304 	movt	r3, #57348	; 0xe004
200040a2:	6c9b      	ldr	r3, [r3, #72]	; 0x48
200040a4:	ea4f 1393 	mov.w	r3, r3, lsr #6
200040a8:	f003 0303 	and.w	r3, r3, #3
200040ac:	ea4f 0383 	mov.w	r3, r3, lsl #2
200040b0:	f107 0228 	add.w	r2, r7, #40	; 0x28
200040b4:	4413      	add	r3, r2
200040b6:	f853 3c28 	ldr.w	r3, [r3, #-40]
200040ba:	61bb      	str	r3, [r7, #24]
    {
        /* Compute the FPGA fabric frequency divider. */
        uint32_t obdiv;
        uint32_t obdivhalf;
        
        obdiv = (SYSREG->MSS_CCC_DIV_CR >> OBDIV_SHIFT) & OBDIV_MASK;
200040bc:	f242 0300 	movw	r3, #8192	; 0x2000
200040c0:	f2ce 0304 	movt	r3, #57348	; 0xe004
200040c4:	6cdb      	ldr	r3, [r3, #76]	; 0x4c
200040c6:	ea4f 2313 	mov.w	r3, r3, lsr #8
200040ca:	f003 031f 	and.w	r3, r3, #31
200040ce:	623b      	str	r3, [r7, #32]
        obdivhalf = (SYSREG->MSS_CCC_DIV_CR >> OBDIVHALF_SHIFT) & OBDIVHALF_MASK;
200040d0:	f242 0300 	movw	r3, #8192	; 0x2000
200040d4:	f2ce 0304 	movt	r3, #57348	; 0xe004
200040d8:	6cdb      	ldr	r3, [r3, #76]	; 0x4c
200040da:	ea4f 3353 	mov.w	r3, r3, lsr #13
200040de:	f003 0301 	and.w	r3, r3, #1
200040e2:	627b      	str	r3, [r7, #36]	; 0x24
        FabDiv = obdiv + 1uL;
200040e4:	6a3b      	ldr	r3, [r7, #32]
200040e6:	f103 0301 	add.w	r3, r3, #1
200040ea:	61fb      	str	r3, [r7, #28]
        if ( obdivhalf != 0uL )
200040ec:	6a7b      	ldr	r3, [r7, #36]	; 0x24
200040ee:	2b00      	cmp	r3, #0
200040f0:	d003      	beq.n	200040fa <SystemCoreClockUpdate+0xba>
        {
            FabDiv = FabDiv * 2uL;
200040f2:	69fb      	ldr	r3, [r7, #28]
200040f4:	ea4f 0343 	mov.w	r3, r3, lsl #1
200040f8:	61fb      	str	r3, [r7, #28]
    }
    
    /* Retrieve FCLK from eNVM spare pages if Actel system boot programmed as part of the system. */
    
    /* Read system clock from eNVM spare pages. */
    SystemCoreClock = GetSystemClock();
200040fa:	f000 f849 	bl	20004190 <GetSystemClock>
200040fe:	4602      	mov	r2, r0
20004100:	f64a 6318 	movw	r3, #44568	; 0xae18
20004104:	f2c2 0300 	movt	r3, #8192	; 0x2000
20004108:	601a      	str	r2, [r3, #0]
    g_FrequencyPCLK0 = SystemCoreClock / PclkDiv0;
2000410a:	f64a 6318 	movw	r3, #44568	; 0xae18
2000410e:	f2c2 0300 	movt	r3, #8192	; 0x2000
20004112:	681a      	ldr	r2, [r3, #0]
20004114:	693b      	ldr	r3, [r7, #16]
20004116:	fbb2 f2f3 	udiv	r2, r2, r3
2000411a:	f64a 631c 	movw	r3, #44572	; 0xae1c
2000411e:	f2c2 0300 	movt	r3, #8192	; 0x2000
20004122:	601a      	str	r2, [r3, #0]
    g_FrequencyPCLK1 = SystemCoreClock / PclkDiv1;
20004124:	f64a 6318 	movw	r3, #44568	; 0xae18
20004128:	f2c2 0300 	movt	r3, #8192	; 0x2000
2000412c:	681a      	ldr	r2, [r3, #0]
2000412e:	697b      	ldr	r3, [r7, #20]
20004130:	fbb2 f2f3 	udiv	r2, r2, r3
20004134:	f64a 6320 	movw	r3, #44576	; 0xae20
20004138:	f2c2 0300 	movt	r3, #8192	; 0x2000
2000413c:	601a      	str	r2, [r3, #0]
    g_FrequencyACE = SystemCoreClock / AceDiv;
2000413e:	f64a 6318 	movw	r3, #44568	; 0xae18
20004142:	f2c2 0300 	movt	r3, #8192	; 0x2000
20004146:	681a      	ldr	r2, [r3, #0]
20004148:	69bb      	ldr	r3, [r7, #24]
2000414a:	fbb2 f2f3 	udiv	r2, r2, r3
2000414e:	f64a 6324 	movw	r3, #44580	; 0xae24
20004152:	f2c2 0300 	movt	r3, #8192	; 0x2000
20004156:	601a      	str	r2, [r3, #0]
    g_FrequencyFPGA = SystemCoreClock / FabDiv;
20004158:	f64a 6318 	movw	r3, #44568	; 0xae18
2000415c:	f2c2 0300 	movt	r3, #8192	; 0x2000
20004160:	681a      	ldr	r2, [r3, #0]
20004162:	69fb      	ldr	r3, [r7, #28]
20004164:	fbb2 f2f3 	udiv	r2, r2, r3
20004168:	f64a 6328 	movw	r3, #44584	; 0xae28
2000416c:	f2c2 0300 	movt	r3, #8192	; 0x2000
20004170:	601a      	str	r2, [r3, #0]
    
    /* Keep SystemFrequency as well as SystemCoreClock for legacy reasons. */
    SystemFrequency = SystemCoreClock;
20004172:	f64a 6318 	movw	r3, #44568	; 0xae18
20004176:	f2c2 0300 	movt	r3, #8192	; 0x2000
2000417a:	681a      	ldr	r2, [r3, #0]
2000417c:	f64a 6314 	movw	r3, #44564	; 0xae14
20004180:	f2c2 0300 	movt	r3, #8192	; 0x2000
20004184:	601a      	str	r2, [r3, #0]
}
20004186:	f107 0728 	add.w	r7, r7, #40	; 0x28
2000418a:	46bd      	mov	sp, r7
2000418c:	bd80      	pop	{r7, pc}
2000418e:	bf00      	nop

20004190 <GetSystemClock>:
 * retrieved from eNVM spare pages.
 * The FCLK frequency value selected in the MSS Configurator software tool is
 * stored in eNVM spare pages as part of the Actel system boot configuration data.
 */
uint32_t GetSystemClock( void )
{
20004190:	b480      	push	{r7}
20004192:	b08b      	sub	sp, #44	; 0x2c
20004194:	af00      	add	r7, sp, #0
    uint32_t fclk = 0uL;
20004196:	f04f 0300 	mov.w	r3, #0
2000419a:	607b      	str	r3, [r7, #4]
    
    uint32_t * p_sysboot_key = SYSBOOT_KEY_ADDR;
2000419c:	f640 031c 	movw	r3, #2076	; 0x81c
200041a0:	f2c6 0308 	movt	r3, #24584	; 0x6008
200041a4:	60bb      	str	r3, [r7, #8]
    uint32_t * p_idcode = IDCODE_LOCATION;
200041a6:	f240 2330 	movw	r3, #560	; 0x230
200041aa:	f2c6 0308 	movt	r3, #24584	; 0x6008
200041ae:	60fb      	str	r3, [r7, #12]
    uint32_t idcode;
	
    idcode = *p_idcode & ~IDCODE_DEV_REV_MASK;
200041b0:	68fb      	ldr	r3, [r7, #12]
200041b2:	681b      	ldr	r3, [r3, #0]
200041b4:	f023 4370 	bic.w	r3, r3, #4026531840	; 0xf0000000
200041b8:	613b      	str	r3, [r7, #16]
	
    if ( A2F060IFX_ID == idcode )
200041ba:	693a      	ldr	r2, [r7, #16]
200041bc:	f241 13cf 	movw	r3, #4559	; 0x11cf
200041c0:	f2c0 53a1 	movt	r3, #1441	; 0x5a1
200041c4:	429a      	cmp	r2, r3
200041c6:	d108      	bne.n	200041da <GetSystemClock+0x4a>
    {
        uint32_t *p_fclk = SYSBOOT_A2F060_FCLK_ADDR;
200041c8:	f64e 732c 	movw	r3, #61228	; 0xef2c
200041cc:	f2c6 0301 	movt	r3, #24577	; 0x6001
200041d0:	617b      	str	r3, [r7, #20]
        fclk = *p_fclk;
200041d2:	697b      	ldr	r3, [r7, #20]
200041d4:	681b      	ldr	r3, [r3, #0]
200041d6:	607b      	str	r3, [r7, #4]
200041d8:	e03d      	b.n	20004256 <GetSystemClock+0xc6>
    }
    else if ( SYSBOOT_KEY_VALUE == *p_sysboot_key )
200041da:	68bb      	ldr	r3, [r7, #8]
200041dc:	681a      	ldr	r2, [r3, #0]
200041de:	f244 3341 	movw	r3, #17217	; 0x4341
200041e2:	f6c4 4354 	movt	r3, #19540	; 0x4c54
200041e6:	429a      	cmp	r2, r3
200041e8:	d135      	bne.n	20004256 <GetSystemClock+0xc6>
    {
        /* Actel system boot programmed, check if it has the FCLK value stored. */
        uint32_t *p_sysboot_version = SYSBOOT_VERSION_ADDR;
200041ea:	f640 0340 	movw	r3, #2112	; 0x840
200041ee:	f2c6 0308 	movt	r3, #24584	; 0x6008
200041f2:	61bb      	str	r3, [r7, #24]
        uint32_t sysboot_version = *p_sysboot_version;
200041f4:	69bb      	ldr	r3, [r7, #24]
200041f6:	681b      	ldr	r3, [r3, #0]
200041f8:	61fb      	str	r3, [r7, #28]
        
        sysboot_version &= SYSBOOT_VERSION_MASK;
200041fa:	69fb      	ldr	r3, [r7, #28]
200041fc:	f023 437f 	bic.w	r3, r3, #4278190080	; 0xff000000
20004200:	61fb      	str	r3, [r7, #28]
        
        if ( sysboot_version >= MIN_SYSBOOT_VERSION )
20004202:	69fa      	ldr	r2, [r7, #28]
20004204:	f240 3300 	movw	r3, #768	; 0x300
20004208:	f2c0 0301 	movt	r3, #1
2000420c:	429a      	cmp	r2, r3
2000420e:	d922      	bls.n	20004256 <GetSystemClock+0xc6>
        {
            /* Handle change of eNVM location of FCLK between 1.3.x and 2.x.x versions of the system boot. */
            if ( sysboot_version < SYSBOOT_VERSION_2_X )
20004210:	69fa      	ldr	r2, [r7, #28]
20004212:	f64f 73ff 	movw	r3, #65535	; 0xffff
20004216:	f2c0 0301 	movt	r3, #1
2000421a:	429a      	cmp	r2, r3
2000421c:	d808      	bhi.n	20004230 <GetSystemClock+0xa0>
            {
                /* Read FCLK value from MSS configurator generated configuration
                 * data stored in eNVM spare pages as part of system boot version 1.3.x
                 * configuration tables. */
                uint32_t *p_fclk = SYSBOOT_1_3_FCLK_ADDR;
2000421e:	f241 632c 	movw	r3, #5676	; 0x162c
20004222:	f2c6 0308 	movt	r3, #24584	; 0x6008
20004226:	623b      	str	r3, [r7, #32]
                fclk = *p_fclk;
20004228:	6a3b      	ldr	r3, [r7, #32]
2000422a:	681b      	ldr	r3, [r3, #0]
2000422c:	607b      	str	r3, [r7, #4]
2000422e:	e012      	b.n	20004256 <GetSystemClock+0xc6>
            }
            else if ( sysboot_version < MAX_SYSBOOT_VERSION )
20004230:	69fa      	ldr	r2, [r7, #28]
20004232:	f64f 73ff 	movw	r3, #65535	; 0xffff
20004236:	f2c0 0302 	movt	r3, #2
2000423a:	429a      	cmp	r2, r3
2000423c:	d808      	bhi.n	20004250 <GetSystemClock+0xc0>
            {
                /* Read FCLK value from MSS configurator generated configuration
                 * data stored in eNVM spare pages as part of system boot version 2.x.x
                 * configuration tables. */
                uint32_t *p_fclk = SYSBOOT_2_x_FCLK_ADDR;
2000423e:	f641 63ac 	movw	r3, #7852	; 0x1eac
20004242:	f2c6 0308 	movt	r3, #24584	; 0x6008
20004246:	627b      	str	r3, [r7, #36]	; 0x24
                fclk = *p_fclk;
20004248:	6a7b      	ldr	r3, [r7, #36]	; 0x24
2000424a:	681b      	ldr	r3, [r3, #0]
2000424c:	607b      	str	r3, [r7, #4]
2000424e:	e002      	b.n	20004256 <GetSystemClock+0xc6>
            }
            else
            {
                fclk = 0uL;
20004250:	f04f 0300 	mov.w	r3, #0
20004254:	607b      	str	r3, [r7, #4]
            }
        }
    }
    
    if ( 0uL == fclk )
20004256:	687b      	ldr	r3, [r7, #4]
20004258:	2b00      	cmp	r3, #0
2000425a:	d105      	bne.n	20004268 <GetSystemClock+0xd8>
        /* 
         * Could not retrieve FCLK from system boot configuration data. Fall back
         * to using SMARTFUSION_FCLK_FREQ which must then be defined as part of
         * project settings.
         */
        ASSERT( SMARTFUSION_FCLK_FREQ_DEFINED );
2000425c:	be00      	bkpt	0x0000
        fclk = SMARTFUSION_FCLK_FREQ;
2000425e:	f647 0340 	movw	r3, #30784	; 0x7840
20004262:	f2c0 137d 	movt	r3, #381	; 0x17d
20004266:	607b      	str	r3, [r7, #4]
    }
    
    return fclk;
20004268:	687b      	ldr	r3, [r7, #4]
}
2000426a:	4618      	mov	r0, r3
2000426c:	f107 072c 	add.w	r7, r7, #44	; 0x2c
20004270:	46bd      	mov	sp, r7
20004272:	bc80      	pop	{r7}
20004274:	4770      	bx	lr
20004276:	bf00      	nop

20004278 <clock>:
20004278:	f64a 632c 	movw	r3, #44588	; 0xae2c
2000427c:	f2c2 0300 	movt	r3, #8192	; 0x2000
20004280:	b500      	push	{lr}
20004282:	b085      	sub	sp, #20
20004284:	4669      	mov	r1, sp
20004286:	6818      	ldr	r0, [r3, #0]
20004288:	f000 fbca 	bl	20004a20 <_times_r>
2000428c:	f1b0 3fff 	cmp.w	r0, #4294967295
20004290:	d006      	beq.n	200042a0 <clock+0x28>
20004292:	9b00      	ldr	r3, [sp, #0]
20004294:	9801      	ldr	r0, [sp, #4]
20004296:	18c0      	adds	r0, r0, r3
20004298:	9b02      	ldr	r3, [sp, #8]
2000429a:	18c0      	adds	r0, r0, r3
2000429c:	9b03      	ldr	r3, [sp, #12]
2000429e:	18c0      	adds	r0, r0, r3
200042a0:	b005      	add	sp, #20
200042a2:	bd00      	pop	{pc}

200042a4 <__libc_init_array>:
200042a4:	b570      	push	{r4, r5, r6, lr}
200042a6:	f64a 6600 	movw	r6, #44544	; 0xae00
200042aa:	f64a 6500 	movw	r5, #44544	; 0xae00
200042ae:	f2c2 0600 	movt	r6, #8192	; 0x2000
200042b2:	f2c2 0500 	movt	r5, #8192	; 0x2000
200042b6:	1b76      	subs	r6, r6, r5
200042b8:	10b6      	asrs	r6, r6, #2
200042ba:	d006      	beq.n	200042ca <__libc_init_array+0x26>
200042bc:	2400      	movs	r4, #0
200042be:	f855 3024 	ldr.w	r3, [r5, r4, lsl #2]
200042c2:	3401      	adds	r4, #1
200042c4:	4798      	blx	r3
200042c6:	42a6      	cmp	r6, r4
200042c8:	d8f9      	bhi.n	200042be <__libc_init_array+0x1a>
200042ca:	f64a 6500 	movw	r5, #44544	; 0xae00
200042ce:	f64a 6604 	movw	r6, #44548	; 0xae04
200042d2:	f2c2 0500 	movt	r5, #8192	; 0x2000
200042d6:	f2c2 0600 	movt	r6, #8192	; 0x2000
200042da:	1b76      	subs	r6, r6, r5
200042dc:	f006 fd84 	bl	2000ade8 <_init>
200042e0:	10b6      	asrs	r6, r6, #2
200042e2:	d006      	beq.n	200042f2 <__libc_init_array+0x4e>
200042e4:	2400      	movs	r4, #0
200042e6:	f855 3024 	ldr.w	r3, [r5, r4, lsl #2]
200042ea:	3401      	adds	r4, #1
200042ec:	4798      	blx	r3
200042ee:	42a6      	cmp	r6, r4
200042f0:	d8f9      	bhi.n	200042e6 <__libc_init_array+0x42>
200042f2:	bd70      	pop	{r4, r5, r6, pc}

200042f4 <free>:
200042f4:	f64a 632c 	movw	r3, #44588	; 0xae2c
200042f8:	4601      	mov	r1, r0
200042fa:	f2c2 0300 	movt	r3, #8192	; 0x2000
200042fe:	6818      	ldr	r0, [r3, #0]
20004300:	f003 ba86 	b.w	20007810 <_free_r>

20004304 <malloc>:
20004304:	f64a 632c 	movw	r3, #44588	; 0xae2c
20004308:	4601      	mov	r1, r0
2000430a:	f2c2 0300 	movt	r3, #8192	; 0x2000
2000430e:	6818      	ldr	r0, [r3, #0]
20004310:	f000 b800 	b.w	20004314 <_malloc_r>

20004314 <_malloc_r>:
20004314:	e92d 4ff0 	stmdb	sp!, {r4, r5, r6, r7, r8, r9, sl, fp, lr}
20004318:	f101 040b 	add.w	r4, r1, #11
2000431c:	2c16      	cmp	r4, #22
2000431e:	b083      	sub	sp, #12
20004320:	4606      	mov	r6, r0
20004322:	d82f      	bhi.n	20004384 <_malloc_r+0x70>
20004324:	2300      	movs	r3, #0
20004326:	2410      	movs	r4, #16
20004328:	428c      	cmp	r4, r1
2000432a:	bf2c      	ite	cs
2000432c:	4619      	movcs	r1, r3
2000432e:	f043 0101 	orrcc.w	r1, r3, #1
20004332:	2900      	cmp	r1, #0
20004334:	d130      	bne.n	20004398 <_malloc_r+0x84>
20004336:	4630      	mov	r0, r6
20004338:	f000 fb28 	bl	2000498c <__malloc_lock>
2000433c:	f5b4 7ffc 	cmp.w	r4, #504	; 0x1f8
20004340:	d22e      	bcs.n	200043a0 <_malloc_r+0x8c>
20004342:	ea4f 0ed4 	mov.w	lr, r4, lsr #3
20004346:	f64a 7520 	movw	r5, #44832	; 0xaf20
2000434a:	f2c2 0500 	movt	r5, #8192	; 0x2000
2000434e:	eb05 02ce 	add.w	r2, r5, lr, lsl #3
20004352:	68d3      	ldr	r3, [r2, #12]
20004354:	4293      	cmp	r3, r2
20004356:	f000 8206 	beq.w	20004766 <_malloc_r+0x452>
2000435a:	685a      	ldr	r2, [r3, #4]
2000435c:	f103 0508 	add.w	r5, r3, #8
20004360:	68d9      	ldr	r1, [r3, #12]
20004362:	4630      	mov	r0, r6
20004364:	f022 0c03 	bic.w	ip, r2, #3
20004368:	689a      	ldr	r2, [r3, #8]
2000436a:	4463      	add	r3, ip
2000436c:	685c      	ldr	r4, [r3, #4]
2000436e:	608a      	str	r2, [r1, #8]
20004370:	f044 0401 	orr.w	r4, r4, #1
20004374:	60d1      	str	r1, [r2, #12]
20004376:	605c      	str	r4, [r3, #4]
20004378:	f000 fb0a 	bl	20004990 <__malloc_unlock>
2000437c:	4628      	mov	r0, r5
2000437e:	b003      	add	sp, #12
20004380:	e8bd 8ff0 	ldmia.w	sp!, {r4, r5, r6, r7, r8, r9, sl, fp, pc}
20004384:	f024 0407 	bic.w	r4, r4, #7
20004388:	0fe3      	lsrs	r3, r4, #31
2000438a:	428c      	cmp	r4, r1
2000438c:	bf2c      	ite	cs
2000438e:	4619      	movcs	r1, r3
20004390:	f043 0101 	orrcc.w	r1, r3, #1
20004394:	2900      	cmp	r1, #0
20004396:	d0ce      	beq.n	20004336 <_malloc_r+0x22>
20004398:	230c      	movs	r3, #12
2000439a:	2500      	movs	r5, #0
2000439c:	6033      	str	r3, [r6, #0]
2000439e:	e7ed      	b.n	2000437c <_malloc_r+0x68>
200043a0:	ea5f 2e54 	movs.w	lr, r4, lsr #9
200043a4:	bf04      	itt	eq
200043a6:	ea4f 0ed4 	moveq.w	lr, r4, lsr #3
200043aa:	ea4f 00ce 	moveq.w	r0, lr, lsl #3
200043ae:	f040 8090 	bne.w	200044d2 <_malloc_r+0x1be>
200043b2:	f64a 7520 	movw	r5, #44832	; 0xaf20
200043b6:	f2c2 0500 	movt	r5, #8192	; 0x2000
200043ba:	1828      	adds	r0, r5, r0
200043bc:	68c3      	ldr	r3, [r0, #12]
200043be:	4298      	cmp	r0, r3
200043c0:	d106      	bne.n	200043d0 <_malloc_r+0xbc>
200043c2:	e00d      	b.n	200043e0 <_malloc_r+0xcc>
200043c4:	2a00      	cmp	r2, #0
200043c6:	f280 816f 	bge.w	200046a8 <_malloc_r+0x394>
200043ca:	68db      	ldr	r3, [r3, #12]
200043cc:	4298      	cmp	r0, r3
200043ce:	d007      	beq.n	200043e0 <_malloc_r+0xcc>
200043d0:	6859      	ldr	r1, [r3, #4]
200043d2:	f021 0103 	bic.w	r1, r1, #3
200043d6:	1b0a      	subs	r2, r1, r4
200043d8:	2a0f      	cmp	r2, #15
200043da:	ddf3      	ble.n	200043c4 <_malloc_r+0xb0>
200043dc:	f10e 3eff 	add.w	lr, lr, #4294967295
200043e0:	f10e 0e01 	add.w	lr, lr, #1
200043e4:	f64a 7720 	movw	r7, #44832	; 0xaf20
200043e8:	f2c2 0700 	movt	r7, #8192	; 0x2000
200043ec:	f107 0108 	add.w	r1, r7, #8
200043f0:	688b      	ldr	r3, [r1, #8]
200043f2:	4299      	cmp	r1, r3
200043f4:	bf08      	it	eq
200043f6:	687a      	ldreq	r2, [r7, #4]
200043f8:	d026      	beq.n	20004448 <_malloc_r+0x134>
200043fa:	685a      	ldr	r2, [r3, #4]
200043fc:	f022 0c03 	bic.w	ip, r2, #3
20004400:	ebc4 020c 	rsb	r2, r4, ip
20004404:	2a0f      	cmp	r2, #15
20004406:	f300 8194 	bgt.w	20004732 <_malloc_r+0x41e>
2000440a:	2a00      	cmp	r2, #0
2000440c:	60c9      	str	r1, [r1, #12]
2000440e:	6089      	str	r1, [r1, #8]
20004410:	f280 8099 	bge.w	20004546 <_malloc_r+0x232>
20004414:	f5bc 7f00 	cmp.w	ip, #512	; 0x200
20004418:	f080 8165 	bcs.w	200046e6 <_malloc_r+0x3d2>
2000441c:	ea4f 0cdc 	mov.w	ip, ip, lsr #3
20004420:	f04f 0a01 	mov.w	sl, #1
20004424:	687a      	ldr	r2, [r7, #4]
20004426:	eb07 00cc 	add.w	r0, r7, ip, lsl #3
2000442a:	ea4f 0cac 	mov.w	ip, ip, asr #2
2000442e:	fa0a fc0c 	lsl.w	ip, sl, ip
20004432:	60d8      	str	r0, [r3, #12]
20004434:	f8d0 8008 	ldr.w	r8, [r0, #8]
20004438:	ea4c 0202 	orr.w	r2, ip, r2
2000443c:	607a      	str	r2, [r7, #4]
2000443e:	f8c3 8008 	str.w	r8, [r3, #8]
20004442:	f8c8 300c 	str.w	r3, [r8, #12]
20004446:	6083      	str	r3, [r0, #8]
20004448:	f04f 0c01 	mov.w	ip, #1
2000444c:	ea4f 03ae 	mov.w	r3, lr, asr #2
20004450:	fa0c fc03 	lsl.w	ip, ip, r3
20004454:	4594      	cmp	ip, r2
20004456:	f200 8082 	bhi.w	2000455e <_malloc_r+0x24a>
2000445a:	ea12 0f0c 	tst.w	r2, ip
2000445e:	d108      	bne.n	20004472 <_malloc_r+0x15e>
20004460:	f02e 0e03 	bic.w	lr, lr, #3
20004464:	ea4f 0c4c 	mov.w	ip, ip, lsl #1
20004468:	f10e 0e04 	add.w	lr, lr, #4
2000446c:	ea12 0f0c 	tst.w	r2, ip
20004470:	d0f8      	beq.n	20004464 <_malloc_r+0x150>
20004472:	eb07 09ce 	add.w	r9, r7, lr, lsl #3
20004476:	46f2      	mov	sl, lr
20004478:	46c8      	mov	r8, r9
2000447a:	f8d8 300c 	ldr.w	r3, [r8, #12]
2000447e:	4598      	cmp	r8, r3
20004480:	d107      	bne.n	20004492 <_malloc_r+0x17e>
20004482:	e168      	b.n	20004756 <_malloc_r+0x442>
20004484:	2a00      	cmp	r2, #0
20004486:	f280 8178 	bge.w	2000477a <_malloc_r+0x466>
2000448a:	68db      	ldr	r3, [r3, #12]
2000448c:	4598      	cmp	r8, r3
2000448e:	f000 8162 	beq.w	20004756 <_malloc_r+0x442>
20004492:	6858      	ldr	r0, [r3, #4]
20004494:	f020 0003 	bic.w	r0, r0, #3
20004498:	1b02      	subs	r2, r0, r4
2000449a:	2a0f      	cmp	r2, #15
2000449c:	ddf2      	ble.n	20004484 <_malloc_r+0x170>
2000449e:	461d      	mov	r5, r3
200044a0:	191f      	adds	r7, r3, r4
200044a2:	f8d3 c00c 	ldr.w	ip, [r3, #12]
200044a6:	f044 0e01 	orr.w	lr, r4, #1
200044aa:	f855 4f08 	ldr.w	r4, [r5, #8]!
200044ae:	4630      	mov	r0, r6
200044b0:	50ba      	str	r2, [r7, r2]
200044b2:	f042 0201 	orr.w	r2, r2, #1
200044b6:	f8c3 e004 	str.w	lr, [r3, #4]
200044ba:	f8cc 4008 	str.w	r4, [ip, #8]
200044be:	f8c4 c00c 	str.w	ip, [r4, #12]
200044c2:	608f      	str	r7, [r1, #8]
200044c4:	60cf      	str	r7, [r1, #12]
200044c6:	607a      	str	r2, [r7, #4]
200044c8:	60b9      	str	r1, [r7, #8]
200044ca:	60f9      	str	r1, [r7, #12]
200044cc:	f000 fa60 	bl	20004990 <__malloc_unlock>
200044d0:	e754      	b.n	2000437c <_malloc_r+0x68>
200044d2:	f1be 0f04 	cmp.w	lr, #4
200044d6:	bf9e      	ittt	ls
200044d8:	ea4f 1e94 	movls.w	lr, r4, lsr #6
200044dc:	f10e 0e38 	addls.w	lr, lr, #56	; 0x38
200044e0:	ea4f 00ce 	movls.w	r0, lr, lsl #3
200044e4:	f67f af65 	bls.w	200043b2 <_malloc_r+0x9e>
200044e8:	f1be 0f14 	cmp.w	lr, #20
200044ec:	bf9c      	itt	ls
200044ee:	f10e 0e5b 	addls.w	lr, lr, #91	; 0x5b
200044f2:	ea4f 00ce 	movls.w	r0, lr, lsl #3
200044f6:	f67f af5c 	bls.w	200043b2 <_malloc_r+0x9e>
200044fa:	f1be 0f54 	cmp.w	lr, #84	; 0x54
200044fe:	bf9e      	ittt	ls
20004500:	ea4f 3e14 	movls.w	lr, r4, lsr #12
20004504:	f10e 0e6e 	addls.w	lr, lr, #110	; 0x6e
20004508:	ea4f 00ce 	movls.w	r0, lr, lsl #3
2000450c:	f67f af51 	bls.w	200043b2 <_malloc_r+0x9e>
20004510:	f5be 7faa 	cmp.w	lr, #340	; 0x154
20004514:	bf9e      	ittt	ls
20004516:	ea4f 3ed4 	movls.w	lr, r4, lsr #15
2000451a:	f10e 0e77 	addls.w	lr, lr, #119	; 0x77
2000451e:	ea4f 00ce 	movls.w	r0, lr, lsl #3
20004522:	f67f af46 	bls.w	200043b2 <_malloc_r+0x9e>
20004526:	f240 5354 	movw	r3, #1364	; 0x554
2000452a:	459e      	cmp	lr, r3
2000452c:	bf95      	itete	ls
2000452e:	ea4f 4e94 	movls.w	lr, r4, lsr #18
20004532:	f44f 707c 	movhi.w	r0, #1008	; 0x3f0
20004536:	f10e 0e7c 	addls.w	lr, lr, #124	; 0x7c
2000453a:	f04f 0e7e 	movhi.w	lr, #126	; 0x7e
2000453e:	bf98      	it	ls
20004540:	ea4f 00ce 	movls.w	r0, lr, lsl #3
20004544:	e735      	b.n	200043b2 <_malloc_r+0x9e>
20004546:	eb03 020c 	add.w	r2, r3, ip
2000454a:	f103 0508 	add.w	r5, r3, #8
2000454e:	4630      	mov	r0, r6
20004550:	6853      	ldr	r3, [r2, #4]
20004552:	f043 0301 	orr.w	r3, r3, #1
20004556:	6053      	str	r3, [r2, #4]
20004558:	f000 fa1a 	bl	20004990 <__malloc_unlock>
2000455c:	e70e      	b.n	2000437c <_malloc_r+0x68>
2000455e:	f8d7 8008 	ldr.w	r8, [r7, #8]
20004562:	f8d8 3004 	ldr.w	r3, [r8, #4]
20004566:	f023 0903 	bic.w	r9, r3, #3
2000456a:	ebc4 0209 	rsb	r2, r4, r9
2000456e:	454c      	cmp	r4, r9
20004570:	bf94      	ite	ls
20004572:	2300      	movls	r3, #0
20004574:	2301      	movhi	r3, #1
20004576:	2a0f      	cmp	r2, #15
20004578:	bfd8      	it	le
2000457a:	f043 0301 	orrle.w	r3, r3, #1
2000457e:	2b00      	cmp	r3, #0
20004580:	f000 80a1 	beq.w	200046c6 <_malloc_r+0x3b2>
20004584:	f24b 3b44 	movw	fp, #45892	; 0xb344
20004588:	f8d5 2408 	ldr.w	r2, [r5, #1032]	; 0x408
2000458c:	f2c2 0b00 	movt	fp, #8192	; 0x2000
20004590:	f8db 3000 	ldr.w	r3, [fp]
20004594:	3310      	adds	r3, #16
20004596:	191b      	adds	r3, r3, r4
20004598:	f1b2 3fff 	cmp.w	r2, #4294967295
2000459c:	d006      	beq.n	200045ac <_malloc_r+0x298>
2000459e:	f503 637e 	add.w	r3, r3, #4064	; 0xfe0
200045a2:	331f      	adds	r3, #31
200045a4:	f423 637e 	bic.w	r3, r3, #4064	; 0xfe0
200045a8:	f023 031f 	bic.w	r3, r3, #31
200045ac:	4619      	mov	r1, r3
200045ae:	4630      	mov	r0, r6
200045b0:	9301      	str	r3, [sp, #4]
200045b2:	f000 fa21 	bl	200049f8 <_sbrk_r>
200045b6:	9b01      	ldr	r3, [sp, #4]
200045b8:	f1b0 3fff 	cmp.w	r0, #4294967295
200045bc:	4682      	mov	sl, r0
200045be:	f000 80f4 	beq.w	200047aa <_malloc_r+0x496>
200045c2:	eb08 0109 	add.w	r1, r8, r9
200045c6:	4281      	cmp	r1, r0
200045c8:	f200 80ec 	bhi.w	200047a4 <_malloc_r+0x490>
200045cc:	f8db 2004 	ldr.w	r2, [fp, #4]
200045d0:	189a      	adds	r2, r3, r2
200045d2:	4551      	cmp	r1, sl
200045d4:	f8cb 2004 	str.w	r2, [fp, #4]
200045d8:	f000 8145 	beq.w	20004866 <_malloc_r+0x552>
200045dc:	f8d5 5408 	ldr.w	r5, [r5, #1032]	; 0x408
200045e0:	f64a 7020 	movw	r0, #44832	; 0xaf20
200045e4:	f2c2 0000 	movt	r0, #8192	; 0x2000
200045e8:	f1b5 3fff 	cmp.w	r5, #4294967295
200045ec:	bf08      	it	eq
200045ee:	f8c0 a408 	streq.w	sl, [r0, #1032]	; 0x408
200045f2:	d003      	beq.n	200045fc <_malloc_r+0x2e8>
200045f4:	4452      	add	r2, sl
200045f6:	1a51      	subs	r1, r2, r1
200045f8:	f8cb 1004 	str.w	r1, [fp, #4]
200045fc:	f01a 0507 	ands.w	r5, sl, #7
20004600:	4630      	mov	r0, r6
20004602:	bf17      	itett	ne
20004604:	f1c5 0508 	rsbne	r5, r5, #8
20004608:	f44f 5580 	moveq.w	r5, #4096	; 0x1000
2000460c:	44aa      	addne	sl, r5
2000460e:	f505 5580 	addne.w	r5, r5, #4096	; 0x1000
20004612:	4453      	add	r3, sl
20004614:	051b      	lsls	r3, r3, #20
20004616:	0d1b      	lsrs	r3, r3, #20
20004618:	1aed      	subs	r5, r5, r3
2000461a:	4629      	mov	r1, r5
2000461c:	f000 f9ec 	bl	200049f8 <_sbrk_r>
20004620:	f1b0 3fff 	cmp.w	r0, #4294967295
20004624:	f000 812c 	beq.w	20004880 <_malloc_r+0x56c>
20004628:	ebca 0100 	rsb	r1, sl, r0
2000462c:	1949      	adds	r1, r1, r5
2000462e:	f041 0101 	orr.w	r1, r1, #1
20004632:	f8db 2004 	ldr.w	r2, [fp, #4]
20004636:	f24b 3344 	movw	r3, #45892	; 0xb344
2000463a:	f8c7 a008 	str.w	sl, [r7, #8]
2000463e:	f2c2 0300 	movt	r3, #8192	; 0x2000
20004642:	18aa      	adds	r2, r5, r2
20004644:	45b8      	cmp	r8, r7
20004646:	f8cb 2004 	str.w	r2, [fp, #4]
2000464a:	f8ca 1004 	str.w	r1, [sl, #4]
2000464e:	d017      	beq.n	20004680 <_malloc_r+0x36c>
20004650:	f1b9 0f0f 	cmp.w	r9, #15
20004654:	f240 80df 	bls.w	20004816 <_malloc_r+0x502>
20004658:	f1a9 010c 	sub.w	r1, r9, #12
2000465c:	2505      	movs	r5, #5
2000465e:	f021 0107 	bic.w	r1, r1, #7
20004662:	eb08 0001 	add.w	r0, r8, r1
20004666:	290f      	cmp	r1, #15
20004668:	6085      	str	r5, [r0, #8]
2000466a:	6045      	str	r5, [r0, #4]
2000466c:	f8d8 0004 	ldr.w	r0, [r8, #4]
20004670:	f000 0001 	and.w	r0, r0, #1
20004674:	ea41 0000 	orr.w	r0, r1, r0
20004678:	f8c8 0004 	str.w	r0, [r8, #4]
2000467c:	f200 80ac 	bhi.w	200047d8 <_malloc_r+0x4c4>
20004680:	46d0      	mov	r8, sl
20004682:	f24b 3344 	movw	r3, #45892	; 0xb344
20004686:	f8db 102c 	ldr.w	r1, [fp, #44]	; 0x2c
2000468a:	f2c2 0300 	movt	r3, #8192	; 0x2000
2000468e:	428a      	cmp	r2, r1
20004690:	f8db 1030 	ldr.w	r1, [fp, #48]	; 0x30
20004694:	bf88      	it	hi
20004696:	62da      	strhi	r2, [r3, #44]	; 0x2c
20004698:	f24b 3344 	movw	r3, #45892	; 0xb344
2000469c:	f2c2 0300 	movt	r3, #8192	; 0x2000
200046a0:	428a      	cmp	r2, r1
200046a2:	bf88      	it	hi
200046a4:	631a      	strhi	r2, [r3, #48]	; 0x30
200046a6:	e082      	b.n	200047ae <_malloc_r+0x49a>
200046a8:	185c      	adds	r4, r3, r1
200046aa:	689a      	ldr	r2, [r3, #8]
200046ac:	68d9      	ldr	r1, [r3, #12]
200046ae:	4630      	mov	r0, r6
200046b0:	6866      	ldr	r6, [r4, #4]
200046b2:	f103 0508 	add.w	r5, r3, #8
200046b6:	608a      	str	r2, [r1, #8]
200046b8:	f046 0301 	orr.w	r3, r6, #1
200046bc:	60d1      	str	r1, [r2, #12]
200046be:	6063      	str	r3, [r4, #4]
200046c0:	f000 f966 	bl	20004990 <__malloc_unlock>
200046c4:	e65a      	b.n	2000437c <_malloc_r+0x68>
200046c6:	eb08 0304 	add.w	r3, r8, r4
200046ca:	f042 0201 	orr.w	r2, r2, #1
200046ce:	f044 0401 	orr.w	r4, r4, #1
200046d2:	4630      	mov	r0, r6
200046d4:	f8c8 4004 	str.w	r4, [r8, #4]
200046d8:	f108 0508 	add.w	r5, r8, #8
200046dc:	605a      	str	r2, [r3, #4]
200046de:	60bb      	str	r3, [r7, #8]
200046e0:	f000 f956 	bl	20004990 <__malloc_unlock>
200046e4:	e64a      	b.n	2000437c <_malloc_r+0x68>
200046e6:	ea4f 225c 	mov.w	r2, ip, lsr #9
200046ea:	2a04      	cmp	r2, #4
200046ec:	d954      	bls.n	20004798 <_malloc_r+0x484>
200046ee:	2a14      	cmp	r2, #20
200046f0:	f200 8089 	bhi.w	20004806 <_malloc_r+0x4f2>
200046f4:	325b      	adds	r2, #91	; 0x5b
200046f6:	ea4f 08c2 	mov.w	r8, r2, lsl #3
200046fa:	44a8      	add	r8, r5
200046fc:	f64a 7720 	movw	r7, #44832	; 0xaf20
20004700:	f2c2 0700 	movt	r7, #8192	; 0x2000
20004704:	f8d8 0008 	ldr.w	r0, [r8, #8]
20004708:	4540      	cmp	r0, r8
2000470a:	d103      	bne.n	20004714 <_malloc_r+0x400>
2000470c:	e06f      	b.n	200047ee <_malloc_r+0x4da>
2000470e:	6880      	ldr	r0, [r0, #8]
20004710:	4580      	cmp	r8, r0
20004712:	d004      	beq.n	2000471e <_malloc_r+0x40a>
20004714:	6842      	ldr	r2, [r0, #4]
20004716:	f022 0203 	bic.w	r2, r2, #3
2000471a:	4594      	cmp	ip, r2
2000471c:	d3f7      	bcc.n	2000470e <_malloc_r+0x3fa>
2000471e:	f8d0 c00c 	ldr.w	ip, [r0, #12]
20004722:	f8c3 c00c 	str.w	ip, [r3, #12]
20004726:	6098      	str	r0, [r3, #8]
20004728:	687a      	ldr	r2, [r7, #4]
2000472a:	60c3      	str	r3, [r0, #12]
2000472c:	f8cc 3008 	str.w	r3, [ip, #8]
20004730:	e68a      	b.n	20004448 <_malloc_r+0x134>
20004732:	191f      	adds	r7, r3, r4
20004734:	4630      	mov	r0, r6
20004736:	f044 0401 	orr.w	r4, r4, #1
2000473a:	60cf      	str	r7, [r1, #12]
2000473c:	605c      	str	r4, [r3, #4]
2000473e:	f103 0508 	add.w	r5, r3, #8
20004742:	50ba      	str	r2, [r7, r2]
20004744:	f042 0201 	orr.w	r2, r2, #1
20004748:	608f      	str	r7, [r1, #8]
2000474a:	607a      	str	r2, [r7, #4]
2000474c:	60b9      	str	r1, [r7, #8]
2000474e:	60f9      	str	r1, [r7, #12]
20004750:	f000 f91e 	bl	20004990 <__malloc_unlock>
20004754:	e612      	b.n	2000437c <_malloc_r+0x68>
20004756:	f10a 0a01 	add.w	sl, sl, #1
2000475a:	f01a 0f03 	tst.w	sl, #3
2000475e:	d05f      	beq.n	20004820 <_malloc_r+0x50c>
20004760:	f103 0808 	add.w	r8, r3, #8
20004764:	e689      	b.n	2000447a <_malloc_r+0x166>
20004766:	f103 0208 	add.w	r2, r3, #8
2000476a:	68d3      	ldr	r3, [r2, #12]
2000476c:	429a      	cmp	r2, r3
2000476e:	bf08      	it	eq
20004770:	f10e 0e02 	addeq.w	lr, lr, #2
20004774:	f43f ae36 	beq.w	200043e4 <_malloc_r+0xd0>
20004778:	e5ef      	b.n	2000435a <_malloc_r+0x46>
2000477a:	461d      	mov	r5, r3
2000477c:	1819      	adds	r1, r3, r0
2000477e:	68da      	ldr	r2, [r3, #12]
20004780:	4630      	mov	r0, r6
20004782:	f855 3f08 	ldr.w	r3, [r5, #8]!
20004786:	684c      	ldr	r4, [r1, #4]
20004788:	6093      	str	r3, [r2, #8]
2000478a:	f044 0401 	orr.w	r4, r4, #1
2000478e:	60da      	str	r2, [r3, #12]
20004790:	604c      	str	r4, [r1, #4]
20004792:	f000 f8fd 	bl	20004990 <__malloc_unlock>
20004796:	e5f1      	b.n	2000437c <_malloc_r+0x68>
20004798:	ea4f 129c 	mov.w	r2, ip, lsr #6
2000479c:	3238      	adds	r2, #56	; 0x38
2000479e:	ea4f 08c2 	mov.w	r8, r2, lsl #3
200047a2:	e7aa      	b.n	200046fa <_malloc_r+0x3e6>
200047a4:	45b8      	cmp	r8, r7
200047a6:	f43f af11 	beq.w	200045cc <_malloc_r+0x2b8>
200047aa:	f8d7 8008 	ldr.w	r8, [r7, #8]
200047ae:	f8d8 2004 	ldr.w	r2, [r8, #4]
200047b2:	f022 0203 	bic.w	r2, r2, #3
200047b6:	4294      	cmp	r4, r2
200047b8:	bf94      	ite	ls
200047ba:	2300      	movls	r3, #0
200047bc:	2301      	movhi	r3, #1
200047be:	1b12      	subs	r2, r2, r4
200047c0:	2a0f      	cmp	r2, #15
200047c2:	bfd8      	it	le
200047c4:	f043 0301 	orrle.w	r3, r3, #1
200047c8:	2b00      	cmp	r3, #0
200047ca:	f43f af7c 	beq.w	200046c6 <_malloc_r+0x3b2>
200047ce:	4630      	mov	r0, r6
200047d0:	2500      	movs	r5, #0
200047d2:	f000 f8dd 	bl	20004990 <__malloc_unlock>
200047d6:	e5d1      	b.n	2000437c <_malloc_r+0x68>
200047d8:	f108 0108 	add.w	r1, r8, #8
200047dc:	4630      	mov	r0, r6
200047de:	9301      	str	r3, [sp, #4]
200047e0:	f003 f816 	bl	20007810 <_free_r>
200047e4:	9b01      	ldr	r3, [sp, #4]
200047e6:	f8d7 8008 	ldr.w	r8, [r7, #8]
200047ea:	685a      	ldr	r2, [r3, #4]
200047ec:	e749      	b.n	20004682 <_malloc_r+0x36e>
200047ee:	f04f 0a01 	mov.w	sl, #1
200047f2:	f8d7 8004 	ldr.w	r8, [r7, #4]
200047f6:	1092      	asrs	r2, r2, #2
200047f8:	4684      	mov	ip, r0
200047fa:	fa0a f202 	lsl.w	r2, sl, r2
200047fe:	ea48 0202 	orr.w	r2, r8, r2
20004802:	607a      	str	r2, [r7, #4]
20004804:	e78d      	b.n	20004722 <_malloc_r+0x40e>
20004806:	2a54      	cmp	r2, #84	; 0x54
20004808:	d824      	bhi.n	20004854 <_malloc_r+0x540>
2000480a:	ea4f 321c 	mov.w	r2, ip, lsr #12
2000480e:	326e      	adds	r2, #110	; 0x6e
20004810:	ea4f 08c2 	mov.w	r8, r2, lsl #3
20004814:	e771      	b.n	200046fa <_malloc_r+0x3e6>
20004816:	2301      	movs	r3, #1
20004818:	46d0      	mov	r8, sl
2000481a:	f8ca 3004 	str.w	r3, [sl, #4]
2000481e:	e7c6      	b.n	200047ae <_malloc_r+0x49a>
20004820:	464a      	mov	r2, r9
20004822:	f01e 0f03 	tst.w	lr, #3
20004826:	4613      	mov	r3, r2
20004828:	f10e 3eff 	add.w	lr, lr, #4294967295
2000482c:	d033      	beq.n	20004896 <_malloc_r+0x582>
2000482e:	f853 2908 	ldr.w	r2, [r3], #-8
20004832:	429a      	cmp	r2, r3
20004834:	d0f5      	beq.n	20004822 <_malloc_r+0x50e>
20004836:	687b      	ldr	r3, [r7, #4]
20004838:	ea4f 0c4c 	mov.w	ip, ip, lsl #1
2000483c:	459c      	cmp	ip, r3
2000483e:	f63f ae8e 	bhi.w	2000455e <_malloc_r+0x24a>
20004842:	f1bc 0f00 	cmp.w	ip, #0
20004846:	f43f ae8a 	beq.w	2000455e <_malloc_r+0x24a>
2000484a:	ea1c 0f03 	tst.w	ip, r3
2000484e:	d027      	beq.n	200048a0 <_malloc_r+0x58c>
20004850:	46d6      	mov	lr, sl
20004852:	e60e      	b.n	20004472 <_malloc_r+0x15e>
20004854:	f5b2 7faa 	cmp.w	r2, #340	; 0x154
20004858:	d815      	bhi.n	20004886 <_malloc_r+0x572>
2000485a:	ea4f 32dc 	mov.w	r2, ip, lsr #15
2000485e:	3277      	adds	r2, #119	; 0x77
20004860:	ea4f 08c2 	mov.w	r8, r2, lsl #3
20004864:	e749      	b.n	200046fa <_malloc_r+0x3e6>
20004866:	0508      	lsls	r0, r1, #20
20004868:	0d00      	lsrs	r0, r0, #20
2000486a:	2800      	cmp	r0, #0
2000486c:	f47f aeb6 	bne.w	200045dc <_malloc_r+0x2c8>
20004870:	f8d7 8008 	ldr.w	r8, [r7, #8]
20004874:	444b      	add	r3, r9
20004876:	f043 0301 	orr.w	r3, r3, #1
2000487a:	f8c8 3004 	str.w	r3, [r8, #4]
2000487e:	e700      	b.n	20004682 <_malloc_r+0x36e>
20004880:	2101      	movs	r1, #1
20004882:	2500      	movs	r5, #0
20004884:	e6d5      	b.n	20004632 <_malloc_r+0x31e>
20004886:	f240 5054 	movw	r0, #1364	; 0x554
2000488a:	4282      	cmp	r2, r0
2000488c:	d90d      	bls.n	200048aa <_malloc_r+0x596>
2000488e:	f44f 787c 	mov.w	r8, #1008	; 0x3f0
20004892:	227e      	movs	r2, #126	; 0x7e
20004894:	e731      	b.n	200046fa <_malloc_r+0x3e6>
20004896:	687b      	ldr	r3, [r7, #4]
20004898:	ea23 030c 	bic.w	r3, r3, ip
2000489c:	607b      	str	r3, [r7, #4]
2000489e:	e7cb      	b.n	20004838 <_malloc_r+0x524>
200048a0:	ea4f 0c4c 	mov.w	ip, ip, lsl #1
200048a4:	f10a 0a04 	add.w	sl, sl, #4
200048a8:	e7cf      	b.n	2000484a <_malloc_r+0x536>
200048aa:	ea4f 429c 	mov.w	r2, ip, lsr #18
200048ae:	327c      	adds	r2, #124	; 0x7c
200048b0:	ea4f 08c2 	mov.w	r8, r2, lsl #3
200048b4:	e721      	b.n	200046fa <_malloc_r+0x3e6>
200048b6:	bf00      	nop

200048b8 <memset>:
200048b8:	2a03      	cmp	r2, #3
200048ba:	b2c9      	uxtb	r1, r1
200048bc:	b430      	push	{r4, r5}
200048be:	d807      	bhi.n	200048d0 <memset+0x18>
200048c0:	b122      	cbz	r2, 200048cc <memset+0x14>
200048c2:	2300      	movs	r3, #0
200048c4:	54c1      	strb	r1, [r0, r3]
200048c6:	3301      	adds	r3, #1
200048c8:	4293      	cmp	r3, r2
200048ca:	d1fb      	bne.n	200048c4 <memset+0xc>
200048cc:	bc30      	pop	{r4, r5}
200048ce:	4770      	bx	lr
200048d0:	eb00 0c02 	add.w	ip, r0, r2
200048d4:	4603      	mov	r3, r0
200048d6:	e001      	b.n	200048dc <memset+0x24>
200048d8:	f803 1c01 	strb.w	r1, [r3, #-1]
200048dc:	f003 0403 	and.w	r4, r3, #3
200048e0:	461a      	mov	r2, r3
200048e2:	3301      	adds	r3, #1
200048e4:	2c00      	cmp	r4, #0
200048e6:	d1f7      	bne.n	200048d8 <memset+0x20>
200048e8:	f04f 3301 	mov.w	r3, #16843009	; 0x1010101
200048ec:	ebc2 040c 	rsb	r4, r2, ip
200048f0:	fb03 f301 	mul.w	r3, r3, r1
200048f4:	e01f      	b.n	20004936 <memset+0x7e>
200048f6:	f842 3c40 	str.w	r3, [r2, #-64]
200048fa:	f842 3c3c 	str.w	r3, [r2, #-60]
200048fe:	f842 3c38 	str.w	r3, [r2, #-56]
20004902:	f842 3c34 	str.w	r3, [r2, #-52]
20004906:	f842 3c30 	str.w	r3, [r2, #-48]
2000490a:	f842 3c2c 	str.w	r3, [r2, #-44]
2000490e:	f842 3c28 	str.w	r3, [r2, #-40]
20004912:	f842 3c24 	str.w	r3, [r2, #-36]
20004916:	f842 3c20 	str.w	r3, [r2, #-32]
2000491a:	f842 3c1c 	str.w	r3, [r2, #-28]
2000491e:	f842 3c18 	str.w	r3, [r2, #-24]
20004922:	f842 3c14 	str.w	r3, [r2, #-20]
20004926:	f842 3c10 	str.w	r3, [r2, #-16]
2000492a:	f842 3c0c 	str.w	r3, [r2, #-12]
2000492e:	f842 3c08 	str.w	r3, [r2, #-8]
20004932:	f842 3c04 	str.w	r3, [r2, #-4]
20004936:	4615      	mov	r5, r2
20004938:	3240      	adds	r2, #64	; 0x40
2000493a:	2c3f      	cmp	r4, #63	; 0x3f
2000493c:	f1a4 0440 	sub.w	r4, r4, #64	; 0x40
20004940:	dcd9      	bgt.n	200048f6 <memset+0x3e>
20004942:	462a      	mov	r2, r5
20004944:	ebc5 040c 	rsb	r4, r5, ip
20004948:	e007      	b.n	2000495a <memset+0xa2>
2000494a:	f842 3c10 	str.w	r3, [r2, #-16]
2000494e:	f842 3c0c 	str.w	r3, [r2, #-12]
20004952:	f842 3c08 	str.w	r3, [r2, #-8]
20004956:	f842 3c04 	str.w	r3, [r2, #-4]
2000495a:	4615      	mov	r5, r2
2000495c:	3210      	adds	r2, #16
2000495e:	2c0f      	cmp	r4, #15
20004960:	f1a4 0410 	sub.w	r4, r4, #16
20004964:	dcf1      	bgt.n	2000494a <memset+0x92>
20004966:	462a      	mov	r2, r5
20004968:	ebc5 050c 	rsb	r5, r5, ip
2000496c:	e001      	b.n	20004972 <memset+0xba>
2000496e:	f842 3c04 	str.w	r3, [r2, #-4]
20004972:	4614      	mov	r4, r2
20004974:	3204      	adds	r2, #4
20004976:	2d03      	cmp	r5, #3
20004978:	f1a5 0504 	sub.w	r5, r5, #4
2000497c:	dcf7      	bgt.n	2000496e <memset+0xb6>
2000497e:	e001      	b.n	20004984 <memset+0xcc>
20004980:	f804 1b01 	strb.w	r1, [r4], #1
20004984:	4564      	cmp	r4, ip
20004986:	d3fb      	bcc.n	20004980 <memset+0xc8>
20004988:	e7a0      	b.n	200048cc <memset+0x14>
2000498a:	bf00      	nop

2000498c <__malloc_lock>:
2000498c:	4770      	bx	lr
2000498e:	bf00      	nop

20004990 <__malloc_unlock>:
20004990:	4770      	bx	lr
20004992:	bf00      	nop

20004994 <printf>:
20004994:	b40f      	push	{r0, r1, r2, r3}
20004996:	f64a 632c 	movw	r3, #44588	; 0xae2c
2000499a:	f2c2 0300 	movt	r3, #8192	; 0x2000
2000499e:	b510      	push	{r4, lr}
200049a0:	681c      	ldr	r4, [r3, #0]
200049a2:	b082      	sub	sp, #8
200049a4:	b124      	cbz	r4, 200049b0 <printf+0x1c>
200049a6:	69a3      	ldr	r3, [r4, #24]
200049a8:	b913      	cbnz	r3, 200049b0 <printf+0x1c>
200049aa:	4620      	mov	r0, r4
200049ac:	f002 feac 	bl	20007708 <__sinit>
200049b0:	4620      	mov	r0, r4
200049b2:	ac05      	add	r4, sp, #20
200049b4:	9a04      	ldr	r2, [sp, #16]
200049b6:	4623      	mov	r3, r4
200049b8:	6881      	ldr	r1, [r0, #8]
200049ba:	9401      	str	r4, [sp, #4]
200049bc:	f000 f842 	bl	20004a44 <_vfprintf_r>
200049c0:	b002      	add	sp, #8
200049c2:	e8bd 4010 	ldmia.w	sp!, {r4, lr}
200049c6:	b004      	add	sp, #16
200049c8:	4770      	bx	lr
200049ca:	bf00      	nop

200049cc <_printf_r>:
200049cc:	b40e      	push	{r1, r2, r3}
200049ce:	b510      	push	{r4, lr}
200049d0:	4604      	mov	r4, r0
200049d2:	b083      	sub	sp, #12
200049d4:	b118      	cbz	r0, 200049de <_printf_r+0x12>
200049d6:	6983      	ldr	r3, [r0, #24]
200049d8:	b90b      	cbnz	r3, 200049de <_printf_r+0x12>
200049da:	f002 fe95 	bl	20007708 <__sinit>
200049de:	4620      	mov	r0, r4
200049e0:	ac06      	add	r4, sp, #24
200049e2:	9a05      	ldr	r2, [sp, #20]
200049e4:	4623      	mov	r3, r4
200049e6:	6881      	ldr	r1, [r0, #8]
200049e8:	9401      	str	r4, [sp, #4]
200049ea:	f000 f82b 	bl	20004a44 <_vfprintf_r>
200049ee:	b003      	add	sp, #12
200049f0:	e8bd 4010 	ldmia.w	sp!, {r4, lr}
200049f4:	b003      	add	sp, #12
200049f6:	4770      	bx	lr

200049f8 <_sbrk_r>:
200049f8:	b538      	push	{r3, r4, r5, lr}
200049fa:	f24b 54c0 	movw	r4, #46528	; 0xb5c0
200049fe:	f2c2 0400 	movt	r4, #8192	; 0x2000
20004a02:	4605      	mov	r5, r0
20004a04:	4608      	mov	r0, r1
20004a06:	2300      	movs	r3, #0
20004a08:	6023      	str	r3, [r4, #0]
20004a0a:	f7fd faeb 	bl	20001fe4 <_sbrk>
20004a0e:	f1b0 3fff 	cmp.w	r0, #4294967295
20004a12:	d000      	beq.n	20004a16 <_sbrk_r+0x1e>
20004a14:	bd38      	pop	{r3, r4, r5, pc}
20004a16:	6823      	ldr	r3, [r4, #0]
20004a18:	2b00      	cmp	r3, #0
20004a1a:	d0fb      	beq.n	20004a14 <_sbrk_r+0x1c>
20004a1c:	602b      	str	r3, [r5, #0]
20004a1e:	bd38      	pop	{r3, r4, r5, pc}

20004a20 <_times_r>:
20004a20:	4608      	mov	r0, r1
20004a22:	f7fd bb29 	b.w	20002078 <_times>
20004a26:	bf00      	nop

20004a28 <__sprint_r>:
20004a28:	6893      	ldr	r3, [r2, #8]
20004a2a:	b510      	push	{r4, lr}
20004a2c:	4614      	mov	r4, r2
20004a2e:	b913      	cbnz	r3, 20004a36 <__sprint_r+0xe>
20004a30:	6053      	str	r3, [r2, #4]
20004a32:	4618      	mov	r0, r3
20004a34:	bd10      	pop	{r4, pc}
20004a36:	f002 ffcb 	bl	200079d0 <__sfvwrite_r>
20004a3a:	2300      	movs	r3, #0
20004a3c:	6063      	str	r3, [r4, #4]
20004a3e:	60a3      	str	r3, [r4, #8]
20004a40:	bd10      	pop	{r4, pc}
20004a42:	bf00      	nop

20004a44 <_vfprintf_r>:
20004a44:	e92d 4ff0 	stmdb	sp!, {r4, r5, r6, r7, r8, r9, sl, fp, lr}
20004a48:	f5ad 6dae 	sub.w	sp, sp, #1392	; 0x570
20004a4c:	b083      	sub	sp, #12
20004a4e:	460e      	mov	r6, r1
20004a50:	4615      	mov	r5, r2
20004a52:	469a      	mov	sl, r3
20004a54:	4681      	mov	r9, r0
20004a56:	f003 f9ab 	bl	20007db0 <_localeconv_r>
20004a5a:	6800      	ldr	r0, [r0, #0]
20004a5c:	901d      	str	r0, [sp, #116]	; 0x74
20004a5e:	f1b9 0f00 	cmp.w	r9, #0
20004a62:	d004      	beq.n	20004a6e <_vfprintf_r+0x2a>
20004a64:	f8d9 3018 	ldr.w	r3, [r9, #24]
20004a68:	2b00      	cmp	r3, #0
20004a6a:	f000 815a 	beq.w	20004d22 <_vfprintf_r+0x2de>
20004a6e:	f64a 4318 	movw	r3, #44056	; 0xac18
20004a72:	f2c2 0300 	movt	r3, #8192	; 0x2000
20004a76:	429e      	cmp	r6, r3
20004a78:	bf08      	it	eq
20004a7a:	f8d9 6004 	ldreq.w	r6, [r9, #4]
20004a7e:	d010      	beq.n	20004aa2 <_vfprintf_r+0x5e>
20004a80:	f64a 4338 	movw	r3, #44088	; 0xac38
20004a84:	f2c2 0300 	movt	r3, #8192	; 0x2000
20004a88:	429e      	cmp	r6, r3
20004a8a:	bf08      	it	eq
20004a8c:	f8d9 6008 	ldreq.w	r6, [r9, #8]
20004a90:	d007      	beq.n	20004aa2 <_vfprintf_r+0x5e>
20004a92:	f64a 4358 	movw	r3, #44120	; 0xac58
20004a96:	f2c2 0300 	movt	r3, #8192	; 0x2000
20004a9a:	429e      	cmp	r6, r3
20004a9c:	bf08      	it	eq
20004a9e:	f8d9 600c 	ldreq.w	r6, [r9, #12]
20004aa2:	f8b6 c00c 	ldrh.w	ip, [r6, #12]
20004aa6:	fa1f f38c 	uxth.w	r3, ip
20004aaa:	f413 5f00 	tst.w	r3, #8192	; 0x2000
20004aae:	d109      	bne.n	20004ac4 <_vfprintf_r+0x80>
20004ab0:	f44c 5c00 	orr.w	ip, ip, #8192	; 0x2000
20004ab4:	6e72      	ldr	r2, [r6, #100]	; 0x64
20004ab6:	f8a6 c00c 	strh.w	ip, [r6, #12]
20004aba:	fa1f f38c 	uxth.w	r3, ip
20004abe:	f422 5200 	bic.w	r2, r2, #8192	; 0x2000
20004ac2:	6672      	str	r2, [r6, #100]	; 0x64
20004ac4:	f013 0f08 	tst.w	r3, #8
20004ac8:	f001 8301 	beq.w	200060ce <_vfprintf_r+0x168a>
20004acc:	6932      	ldr	r2, [r6, #16]
20004ace:	2a00      	cmp	r2, #0
20004ad0:	f001 82fd 	beq.w	200060ce <_vfprintf_r+0x168a>
20004ad4:	f003 031a 	and.w	r3, r3, #26
20004ad8:	2b0a      	cmp	r3, #10
20004ada:	f000 80e0 	beq.w	20004c9e <_vfprintf_r+0x25a>
20004ade:	2200      	movs	r2, #0
20004ae0:	9212      	str	r2, [sp, #72]	; 0x48
20004ae2:	921a      	str	r2, [sp, #104]	; 0x68
20004ae4:	2300      	movs	r3, #0
20004ae6:	921c      	str	r2, [sp, #112]	; 0x70
20004ae8:	f50d 649c 	add.w	r4, sp, #1248	; 0x4e0
20004aec:	9211      	str	r2, [sp, #68]	; 0x44
20004aee:	3404      	adds	r4, #4
20004af0:	9219      	str	r2, [sp, #100]	; 0x64
20004af2:	f50d 62a4 	add.w	r2, sp, #1312	; 0x520
20004af6:	931b      	str	r3, [sp, #108]	; 0x6c
20004af8:	3204      	adds	r2, #4
20004afa:	f50d 6390 	add.w	r3, sp, #1152	; 0x480
20004afe:	3228      	adds	r2, #40	; 0x28
20004b00:	3303      	adds	r3, #3
20004b02:	9218      	str	r2, [sp, #96]	; 0x60
20004b04:	9307      	str	r3, [sp, #28]
20004b06:	2300      	movs	r3, #0
20004b08:	f8cd 454c 	str.w	r4, [sp, #1356]	; 0x54c
20004b0c:	f8cd 3550 	str.w	r3, [sp, #1360]	; 0x550
20004b10:	f8cd 3554 	str.w	r3, [sp, #1364]	; 0x554
20004b14:	782b      	ldrb	r3, [r5, #0]
20004b16:	1e1a      	subs	r2, r3, #0
20004b18:	bf18      	it	ne
20004b1a:	2201      	movne	r2, #1
20004b1c:	2b25      	cmp	r3, #37	; 0x25
20004b1e:	bf0c      	ite	eq
20004b20:	2200      	moveq	r2, #0
20004b22:	f002 0201 	andne.w	r2, r2, #1
20004b26:	b332      	cbz	r2, 20004b76 <_vfprintf_r+0x132>
20004b28:	462f      	mov	r7, r5
20004b2a:	f817 3f01 	ldrb.w	r3, [r7, #1]!
20004b2e:	1e1a      	subs	r2, r3, #0
20004b30:	bf18      	it	ne
20004b32:	2201      	movne	r2, #1
20004b34:	2b25      	cmp	r3, #37	; 0x25
20004b36:	bf0c      	ite	eq
20004b38:	2200      	moveq	r2, #0
20004b3a:	f002 0201 	andne.w	r2, r2, #1
20004b3e:	2a00      	cmp	r2, #0
20004b40:	d1f3      	bne.n	20004b2a <_vfprintf_r+0xe6>
20004b42:	ebb7 0805 	subs.w	r8, r7, r5
20004b46:	bf08      	it	eq
20004b48:	463d      	moveq	r5, r7
20004b4a:	d014      	beq.n	20004b76 <_vfprintf_r+0x132>
20004b4c:	f8c4 8004 	str.w	r8, [r4, #4]
20004b50:	f8dd 3550 	ldr.w	r3, [sp, #1360]	; 0x550
20004b54:	f8dd 2554 	ldr.w	r2, [sp, #1364]	; 0x554
20004b58:	3301      	adds	r3, #1
20004b5a:	6025      	str	r5, [r4, #0]
20004b5c:	2b07      	cmp	r3, #7
20004b5e:	4442      	add	r2, r8
20004b60:	f8cd 3550 	str.w	r3, [sp, #1360]	; 0x550
20004b64:	f8cd 2554 	str.w	r2, [sp, #1364]	; 0x554
20004b68:	dc78      	bgt.n	20004c5c <_vfprintf_r+0x218>
20004b6a:	3408      	adds	r4, #8
20004b6c:	9811      	ldr	r0, [sp, #68]	; 0x44
20004b6e:	463d      	mov	r5, r7
20004b70:	4440      	add	r0, r8
20004b72:	9011      	str	r0, [sp, #68]	; 0x44
20004b74:	783b      	ldrb	r3, [r7, #0]
20004b76:	2b00      	cmp	r3, #0
20004b78:	d07c      	beq.n	20004c74 <_vfprintf_r+0x230>
20004b7a:	1c6b      	adds	r3, r5, #1
20004b7c:	f04f 37ff 	mov.w	r7, #4294967295
20004b80:	202b      	movs	r0, #43	; 0x2b
20004b82:	f04f 0c20 	mov.w	ip, #32
20004b86:	2100      	movs	r1, #0
20004b88:	f04f 0200 	mov.w	r2, #0
20004b8c:	910f      	str	r1, [sp, #60]	; 0x3c
20004b8e:	f88d 2577 	strb.w	r2, [sp, #1399]	; 0x577
20004b92:	f8cd a02c 	str.w	sl, [sp, #44]	; 0x2c
20004b96:	786a      	ldrb	r2, [r5, #1]
20004b98:	910a      	str	r1, [sp, #40]	; 0x28
20004b9a:	1c5d      	adds	r5, r3, #1
20004b9c:	f1a2 0320 	sub.w	r3, r2, #32
20004ba0:	2b58      	cmp	r3, #88	; 0x58
20004ba2:	f200 8286 	bhi.w	200050b2 <_vfprintf_r+0x66e>
20004ba6:	e8df f013 	tbh	[pc, r3, lsl #1]
20004baa:	0298      	.short	0x0298
20004bac:	02840284 	.word	0x02840284
20004bb0:	028402a4 	.word	0x028402a4
20004bb4:	02840284 	.word	0x02840284
20004bb8:	02840284 	.word	0x02840284
20004bbc:	02ad0284 	.word	0x02ad0284
20004bc0:	028402ba 	.word	0x028402ba
20004bc4:	02ca02c1 	.word	0x02ca02c1
20004bc8:	02e70284 	.word	0x02e70284
20004bcc:	02f002f0 	.word	0x02f002f0
20004bd0:	02f002f0 	.word	0x02f002f0
20004bd4:	02f002f0 	.word	0x02f002f0
20004bd8:	02f002f0 	.word	0x02f002f0
20004bdc:	028402f0 	.word	0x028402f0
20004be0:	02840284 	.word	0x02840284
20004be4:	02840284 	.word	0x02840284
20004be8:	02840284 	.word	0x02840284
20004bec:	02840284 	.word	0x02840284
20004bf0:	03040284 	.word	0x03040284
20004bf4:	02840326 	.word	0x02840326
20004bf8:	02840326 	.word	0x02840326
20004bfc:	02840284 	.word	0x02840284
20004c00:	036a0284 	.word	0x036a0284
20004c04:	02840284 	.word	0x02840284
20004c08:	02840481 	.word	0x02840481
20004c0c:	02840284 	.word	0x02840284
20004c10:	02840284 	.word	0x02840284
20004c14:	02840414 	.word	0x02840414
20004c18:	042f0284 	.word	0x042f0284
20004c1c:	02840284 	.word	0x02840284
20004c20:	02840284 	.word	0x02840284
20004c24:	02840284 	.word	0x02840284
20004c28:	02840284 	.word	0x02840284
20004c2c:	02840284 	.word	0x02840284
20004c30:	0465044f 	.word	0x0465044f
20004c34:	03260326 	.word	0x03260326
20004c38:	03730326 	.word	0x03730326
20004c3c:	02840465 	.word	0x02840465
20004c40:	03790284 	.word	0x03790284
20004c44:	03850284 	.word	0x03850284
20004c48:	03ad0396 	.word	0x03ad0396
20004c4c:	0284040a 	.word	0x0284040a
20004c50:	028403cc 	.word	0x028403cc
20004c54:	028403f4 	.word	0x028403f4
20004c58:	00c00284 	.word	0x00c00284
20004c5c:	f50d 62a8 	add.w	r2, sp, #1344	; 0x540
20004c60:	4648      	mov	r0, r9
20004c62:	4631      	mov	r1, r6
20004c64:	320c      	adds	r2, #12
20004c66:	f7ff fedf 	bl	20004a28 <__sprint_r>
20004c6a:	b958      	cbnz	r0, 20004c84 <_vfprintf_r+0x240>
20004c6c:	f50d 649c 	add.w	r4, sp, #1248	; 0x4e0
20004c70:	3404      	adds	r4, #4
20004c72:	e77b      	b.n	20004b6c <_vfprintf_r+0x128>
20004c74:	f8dd 3554 	ldr.w	r3, [sp, #1364]	; 0x554
20004c78:	2b00      	cmp	r3, #0
20004c7a:	f041 8192 	bne.w	20005fa2 <_vfprintf_r+0x155e>
20004c7e:	2300      	movs	r3, #0
20004c80:	f8cd 3550 	str.w	r3, [sp, #1360]	; 0x550
20004c84:	89b3      	ldrh	r3, [r6, #12]
20004c86:	f013 0f40 	tst.w	r3, #64	; 0x40
20004c8a:	d002      	beq.n	20004c92 <_vfprintf_r+0x24e>
20004c8c:	f04f 30ff 	mov.w	r0, #4294967295
20004c90:	9011      	str	r0, [sp, #68]	; 0x44
20004c92:	9811      	ldr	r0, [sp, #68]	; 0x44
20004c94:	b05f      	add	sp, #380	; 0x17c
20004c96:	f50d 6d80 	add.w	sp, sp, #1024	; 0x400
20004c9a:	e8bd 8ff0 	ldmia.w	sp!, {r4, r5, r6, r7, r8, r9, sl, fp, pc}
20004c9e:	f9b6 300e 	ldrsh.w	r3, [r6, #14]
20004ca2:	2b00      	cmp	r3, #0
20004ca4:	f6ff af1b 	blt.w	20004ade <_vfprintf_r+0x9a>
20004ca8:	6a37      	ldr	r7, [r6, #32]
20004caa:	f02c 0c02 	bic.w	ip, ip, #2
20004cae:	f8d6 e028 	ldr.w	lr, [r6, #40]	; 0x28
20004cb2:	f50d 648e 	add.w	r4, sp, #1136	; 0x470
20004cb6:	f8ad c488 	strh.w	ip, [sp, #1160]	; 0x488
20004cba:	340c      	adds	r4, #12
20004cbc:	f8b6 c00e 	ldrh.w	ip, [r6, #14]
20004cc0:	462a      	mov	r2, r5
20004cc2:	4653      	mov	r3, sl
20004cc4:	4648      	mov	r0, r9
20004cc6:	4621      	mov	r1, r4
20004cc8:	ad1f      	add	r5, sp, #124	; 0x7c
20004cca:	f8cd 749c 	str.w	r7, [sp, #1180]	; 0x49c
20004cce:	2700      	movs	r7, #0
20004cd0:	f8cd 548c 	str.w	r5, [sp, #1164]	; 0x48c
20004cd4:	f8cd 547c 	str.w	r5, [sp, #1148]	; 0x47c
20004cd8:	f44f 6580 	mov.w	r5, #1024	; 0x400
20004cdc:	f8cd e4a4 	str.w	lr, [sp, #1188]	; 0x4a4
20004ce0:	f8ad c48a 	strh.w	ip, [sp, #1162]	; 0x48a
20004ce4:	f8cd 5490 	str.w	r5, [sp, #1168]	; 0x490
20004ce8:	f8cd 7494 	str.w	r7, [sp, #1172]	; 0x494
20004cec:	f8cd 5484 	str.w	r5, [sp, #1156]	; 0x484
20004cf0:	f7ff fea8 	bl	20004a44 <_vfprintf_r>
20004cf4:	2800      	cmp	r0, #0
20004cf6:	9011      	str	r0, [sp, #68]	; 0x44
20004cf8:	db09      	blt.n	20004d0e <_vfprintf_r+0x2ca>
20004cfa:	4621      	mov	r1, r4
20004cfc:	4648      	mov	r0, r9
20004cfe:	f002 fb93 	bl	20007428 <_fflush_r>
20004d02:	9911      	ldr	r1, [sp, #68]	; 0x44
20004d04:	42b8      	cmp	r0, r7
20004d06:	bf18      	it	ne
20004d08:	f04f 31ff 	movne.w	r1, #4294967295
20004d0c:	9111      	str	r1, [sp, #68]	; 0x44
20004d0e:	f8bd 3488 	ldrh.w	r3, [sp, #1160]	; 0x488
20004d12:	f013 0f40 	tst.w	r3, #64	; 0x40
20004d16:	d0bc      	beq.n	20004c92 <_vfprintf_r+0x24e>
20004d18:	89b3      	ldrh	r3, [r6, #12]
20004d1a:	f043 0340 	orr.w	r3, r3, #64	; 0x40
20004d1e:	81b3      	strh	r3, [r6, #12]
20004d20:	e7b7      	b.n	20004c92 <_vfprintf_r+0x24e>
20004d22:	4648      	mov	r0, r9
20004d24:	f002 fcf0 	bl	20007708 <__sinit>
20004d28:	e6a1      	b.n	20004a6e <_vfprintf_r+0x2a>
20004d2a:	980a      	ldr	r0, [sp, #40]	; 0x28
20004d2c:	f64a 3ce8 	movw	ip, #44008	; 0xabe8
20004d30:	f2c2 0c00 	movt	ip, #8192	; 0x2000
20004d34:	9216      	str	r2, [sp, #88]	; 0x58
20004d36:	f010 0f20 	tst.w	r0, #32
20004d3a:	f8cd c064 	str.w	ip, [sp, #100]	; 0x64
20004d3e:	f000 836e 	beq.w	2000541e <_vfprintf_r+0x9da>
20004d42:	990b      	ldr	r1, [sp, #44]	; 0x2c
20004d44:	1dcb      	adds	r3, r1, #7
20004d46:	f023 0307 	bic.w	r3, r3, #7
20004d4a:	f103 0208 	add.w	r2, r3, #8
20004d4e:	920b      	str	r2, [sp, #44]	; 0x2c
20004d50:	e9d3 ab00 	ldrd	sl, fp, [r3]
20004d54:	ea5a 020b 	orrs.w	r2, sl, fp
20004d58:	9b0a      	ldr	r3, [sp, #40]	; 0x28
20004d5a:	bf0c      	ite	eq
20004d5c:	2200      	moveq	r2, #0
20004d5e:	2201      	movne	r2, #1
20004d60:	4213      	tst	r3, r2
20004d62:	f040 866b 	bne.w	20005a3c <_vfprintf_r+0xff8>
20004d66:	2302      	movs	r3, #2
20004d68:	f04f 0100 	mov.w	r1, #0
20004d6c:	f88d 1577 	strb.w	r1, [sp, #1399]	; 0x577
20004d70:	2f00      	cmp	r7, #0
20004d72:	bfa2      	ittt	ge
20004d74:	f8dd c028 	ldrge.w	ip, [sp, #40]	; 0x28
20004d78:	f02c 0c80 	bicge.w	ip, ip, #128	; 0x80
20004d7c:	f8cd c028 	strge.w	ip, [sp, #40]	; 0x28
20004d80:	2f00      	cmp	r7, #0
20004d82:	bf18      	it	ne
20004d84:	f042 0201 	orrne.w	r2, r2, #1
20004d88:	2a00      	cmp	r2, #0
20004d8a:	f000 841e 	beq.w	200055ca <_vfprintf_r+0xb86>
20004d8e:	2b01      	cmp	r3, #1
20004d90:	f000 85de 	beq.w	20005950 <_vfprintf_r+0xf0c>
20004d94:	2b02      	cmp	r3, #2
20004d96:	f000 85c1 	beq.w	2000591c <_vfprintf_r+0xed8>
20004d9a:	9918      	ldr	r1, [sp, #96]	; 0x60
20004d9c:	9113      	str	r1, [sp, #76]	; 0x4c
20004d9e:	ea4f 08da 	mov.w	r8, sl, lsr #3
20004da2:	ea4f 0cdb 	mov.w	ip, fp, lsr #3
20004da6:	ea48 784b 	orr.w	r8, r8, fp, lsl #29
20004daa:	f00a 0007 	and.w	r0, sl, #7
20004dae:	46e3      	mov	fp, ip
20004db0:	46c2      	mov	sl, r8
20004db2:	3030      	adds	r0, #48	; 0x30
20004db4:	ea5a 020b 	orrs.w	r2, sl, fp
20004db8:	f801 0d01 	strb.w	r0, [r1, #-1]!
20004dbc:	d1ef      	bne.n	20004d9e <_vfprintf_r+0x35a>
20004dbe:	f8dd c028 	ldr.w	ip, [sp, #40]	; 0x28
20004dc2:	9113      	str	r1, [sp, #76]	; 0x4c
20004dc4:	f01c 0f01 	tst.w	ip, #1
20004dc8:	f040 868c 	bne.w	20005ae4 <_vfprintf_r+0x10a0>
20004dcc:	9818      	ldr	r0, [sp, #96]	; 0x60
20004dce:	1a40      	subs	r0, r0, r1
20004dd0:	9010      	str	r0, [sp, #64]	; 0x40
20004dd2:	f89d 3577 	ldrb.w	r3, [sp, #1399]	; 0x577
20004dd6:	9a10      	ldr	r2, [sp, #64]	; 0x40
20004dd8:	9717      	str	r7, [sp, #92]	; 0x5c
20004dda:	42ba      	cmp	r2, r7
20004ddc:	bfb8      	it	lt
20004dde:	463a      	movlt	r2, r7
20004de0:	920c      	str	r2, [sp, #48]	; 0x30
20004de2:	b113      	cbz	r3, 20004dea <_vfprintf_r+0x3a6>
20004de4:	9a0c      	ldr	r2, [sp, #48]	; 0x30
20004de6:	3201      	adds	r2, #1
20004de8:	920c      	str	r2, [sp, #48]	; 0x30
20004dea:	9b0a      	ldr	r3, [sp, #40]	; 0x28
20004dec:	980a      	ldr	r0, [sp, #40]	; 0x28
20004dee:	f013 0302 	ands.w	r3, r3, #2
20004df2:	9315      	str	r3, [sp, #84]	; 0x54
20004df4:	bf1e      	ittt	ne
20004df6:	f8dd c030 	ldrne.w	ip, [sp, #48]	; 0x30
20004dfa:	f10c 0c02 	addne.w	ip, ip, #2
20004dfe:	f8cd c030 	strne.w	ip, [sp, #48]	; 0x30
20004e02:	f010 0084 	ands.w	r0, r0, #132	; 0x84
20004e06:	9014      	str	r0, [sp, #80]	; 0x50
20004e08:	d14d      	bne.n	20004ea6 <_vfprintf_r+0x462>
20004e0a:	990f      	ldr	r1, [sp, #60]	; 0x3c
20004e0c:	9a0c      	ldr	r2, [sp, #48]	; 0x30
20004e0e:	1a8f      	subs	r7, r1, r2
20004e10:	2f00      	cmp	r7, #0
20004e12:	dd48      	ble.n	20004ea6 <_vfprintf_r+0x462>
20004e14:	2f10      	cmp	r7, #16
20004e16:	f64a 38a4 	movw	r8, #43940	; 0xaba4
20004e1a:	bfd8      	it	le
20004e1c:	f2c2 0800 	movtle	r8, #8192	; 0x2000
20004e20:	dd30      	ble.n	20004e84 <_vfprintf_r+0x440>
20004e22:	f2c2 0800 	movt	r8, #8192	; 0x2000
20004e26:	f50d 6ba8 	add.w	fp, sp, #1344	; 0x540
20004e2a:	4643      	mov	r3, r8
20004e2c:	f04f 0a10 	mov.w	sl, #16
20004e30:	46a8      	mov	r8, r5
20004e32:	f10b 0b0c 	add.w	fp, fp, #12
20004e36:	461d      	mov	r5, r3
20004e38:	e002      	b.n	20004e40 <_vfprintf_r+0x3fc>
20004e3a:	3f10      	subs	r7, #16
20004e3c:	2f10      	cmp	r7, #16
20004e3e:	dd1e      	ble.n	20004e7e <_vfprintf_r+0x43a>
20004e40:	f8c4 a004 	str.w	sl, [r4, #4]
20004e44:	f8dd 3550 	ldr.w	r3, [sp, #1360]	; 0x550
20004e48:	f8dd 2554 	ldr.w	r2, [sp, #1364]	; 0x554
20004e4c:	3301      	adds	r3, #1
20004e4e:	6025      	str	r5, [r4, #0]
20004e50:	3210      	adds	r2, #16
20004e52:	2b07      	cmp	r3, #7
20004e54:	f8cd 2554 	str.w	r2, [sp, #1364]	; 0x554
20004e58:	f104 0408 	add.w	r4, r4, #8
20004e5c:	f8cd 3550 	str.w	r3, [sp, #1360]	; 0x550
20004e60:	ddeb      	ble.n	20004e3a <_vfprintf_r+0x3f6>
20004e62:	f50d 649c 	add.w	r4, sp, #1248	; 0x4e0
20004e66:	4648      	mov	r0, r9
20004e68:	4631      	mov	r1, r6
20004e6a:	465a      	mov	r2, fp
20004e6c:	3404      	adds	r4, #4
20004e6e:	f7ff fddb 	bl	20004a28 <__sprint_r>
20004e72:	2800      	cmp	r0, #0
20004e74:	f47f af06 	bne.w	20004c84 <_vfprintf_r+0x240>
20004e78:	3f10      	subs	r7, #16
20004e7a:	2f10      	cmp	r7, #16
20004e7c:	dce0      	bgt.n	20004e40 <_vfprintf_r+0x3fc>
20004e7e:	462b      	mov	r3, r5
20004e80:	4645      	mov	r5, r8
20004e82:	4698      	mov	r8, r3
20004e84:	6067      	str	r7, [r4, #4]
20004e86:	f8dd 3550 	ldr.w	r3, [sp, #1360]	; 0x550
20004e8a:	f8c4 8000 	str.w	r8, [r4]
20004e8e:	1c5a      	adds	r2, r3, #1
20004e90:	f8dd 3554 	ldr.w	r3, [sp, #1364]	; 0x554
20004e94:	f8cd 2550 	str.w	r2, [sp, #1360]	; 0x550
20004e98:	19db      	adds	r3, r3, r7
20004e9a:	2a07      	cmp	r2, #7
20004e9c:	f8cd 3554 	str.w	r3, [sp, #1364]	; 0x554
20004ea0:	f300 858a 	bgt.w	200059b8 <_vfprintf_r+0xf74>
20004ea4:	3408      	adds	r4, #8
20004ea6:	f89d 3577 	ldrb.w	r3, [sp, #1399]	; 0x577
20004eaa:	b19b      	cbz	r3, 20004ed4 <_vfprintf_r+0x490>
20004eac:	2301      	movs	r3, #1
20004eae:	6063      	str	r3, [r4, #4]
20004eb0:	f8dd 3550 	ldr.w	r3, [sp, #1360]	; 0x550
20004eb4:	f50d 62ae 	add.w	r2, sp, #1392	; 0x570
20004eb8:	3207      	adds	r2, #7
20004eba:	6022      	str	r2, [r4, #0]
20004ebc:	f8dd 2554 	ldr.w	r2, [sp, #1364]	; 0x554
20004ec0:	3301      	adds	r3, #1
20004ec2:	f8cd 3550 	str.w	r3, [sp, #1360]	; 0x550
20004ec6:	3201      	adds	r2, #1
20004ec8:	2b07      	cmp	r3, #7
20004eca:	f8cd 2554 	str.w	r2, [sp, #1364]	; 0x554
20004ece:	f300 84b6 	bgt.w	2000583e <_vfprintf_r+0xdfa>
20004ed2:	3408      	adds	r4, #8
20004ed4:	9b15      	ldr	r3, [sp, #84]	; 0x54
20004ed6:	b19b      	cbz	r3, 20004f00 <_vfprintf_r+0x4bc>
20004ed8:	2302      	movs	r3, #2
20004eda:	6063      	str	r3, [r4, #4]
20004edc:	f8dd 3550 	ldr.w	r3, [sp, #1360]	; 0x550
20004ee0:	f50d 62ae 	add.w	r2, sp, #1392	; 0x570
20004ee4:	3204      	adds	r2, #4
20004ee6:	6022      	str	r2, [r4, #0]
20004ee8:	f8dd 2554 	ldr.w	r2, [sp, #1364]	; 0x554
20004eec:	3301      	adds	r3, #1
20004eee:	f8cd 3550 	str.w	r3, [sp, #1360]	; 0x550
20004ef2:	3202      	adds	r2, #2
20004ef4:	2b07      	cmp	r3, #7
20004ef6:	f8cd 2554 	str.w	r2, [sp, #1364]	; 0x554
20004efa:	f300 84af 	bgt.w	2000585c <_vfprintf_r+0xe18>
20004efe:	3408      	adds	r4, #8
20004f00:	f8dd c050 	ldr.w	ip, [sp, #80]	; 0x50
20004f04:	f1bc 0f80 	cmp.w	ip, #128	; 0x80
20004f08:	f000 8376 	beq.w	200055f8 <_vfprintf_r+0xbb4>
20004f0c:	9b17      	ldr	r3, [sp, #92]	; 0x5c
20004f0e:	9a10      	ldr	r2, [sp, #64]	; 0x40
20004f10:	1a9f      	subs	r7, r3, r2
20004f12:	2f00      	cmp	r7, #0
20004f14:	dd43      	ble.n	20004f9e <_vfprintf_r+0x55a>
20004f16:	2f10      	cmp	r7, #16
20004f18:	f8df 8b8c 	ldr.w	r8, [pc, #2956]	; 20005aa8 <_vfprintf_r+0x1064>
20004f1c:	dd2e      	ble.n	20004f7c <_vfprintf_r+0x538>
20004f1e:	4643      	mov	r3, r8
20004f20:	f50d 6ba8 	add.w	fp, sp, #1344	; 0x540
20004f24:	46a8      	mov	r8, r5
20004f26:	f04f 0a10 	mov.w	sl, #16
20004f2a:	f10b 0b0c 	add.w	fp, fp, #12
20004f2e:	461d      	mov	r5, r3
20004f30:	e002      	b.n	20004f38 <_vfprintf_r+0x4f4>
20004f32:	3f10      	subs	r7, #16
20004f34:	2f10      	cmp	r7, #16
20004f36:	dd1e      	ble.n	20004f76 <_vfprintf_r+0x532>
20004f38:	f8c4 a004 	str.w	sl, [r4, #4]
20004f3c:	f8dd 3550 	ldr.w	r3, [sp, #1360]	; 0x550
20004f40:	f8dd 2554 	ldr.w	r2, [sp, #1364]	; 0x554
20004f44:	3301      	adds	r3, #1
20004f46:	6025      	str	r5, [r4, #0]
20004f48:	3210      	adds	r2, #16
20004f4a:	2b07      	cmp	r3, #7
20004f4c:	f8cd 2554 	str.w	r2, [sp, #1364]	; 0x554
20004f50:	f104 0408 	add.w	r4, r4, #8
20004f54:	f8cd 3550 	str.w	r3, [sp, #1360]	; 0x550
20004f58:	ddeb      	ble.n	20004f32 <_vfprintf_r+0x4ee>
20004f5a:	f50d 649c 	add.w	r4, sp, #1248	; 0x4e0
20004f5e:	4648      	mov	r0, r9
20004f60:	4631      	mov	r1, r6
20004f62:	465a      	mov	r2, fp
20004f64:	3404      	adds	r4, #4
20004f66:	f7ff fd5f 	bl	20004a28 <__sprint_r>
20004f6a:	2800      	cmp	r0, #0
20004f6c:	f47f ae8a 	bne.w	20004c84 <_vfprintf_r+0x240>
20004f70:	3f10      	subs	r7, #16
20004f72:	2f10      	cmp	r7, #16
20004f74:	dce0      	bgt.n	20004f38 <_vfprintf_r+0x4f4>
20004f76:	462b      	mov	r3, r5
20004f78:	4645      	mov	r5, r8
20004f7a:	4698      	mov	r8, r3
20004f7c:	6067      	str	r7, [r4, #4]
20004f7e:	f8dd 3550 	ldr.w	r3, [sp, #1360]	; 0x550
20004f82:	f8dd 2554 	ldr.w	r2, [sp, #1364]	; 0x554
20004f86:	3301      	adds	r3, #1
20004f88:	f8c4 8000 	str.w	r8, [r4]
20004f8c:	19d2      	adds	r2, r2, r7
20004f8e:	2b07      	cmp	r3, #7
20004f90:	f8cd 2554 	str.w	r2, [sp, #1364]	; 0x554
20004f94:	f8cd 3550 	str.w	r3, [sp, #1360]	; 0x550
20004f98:	f300 8442 	bgt.w	20005820 <_vfprintf_r+0xddc>
20004f9c:	3408      	adds	r4, #8
20004f9e:	f8dd c028 	ldr.w	ip, [sp, #40]	; 0x28
20004fa2:	f41c 7f80 	tst.w	ip, #256	; 0x100
20004fa6:	f040 829d 	bne.w	200054e4 <_vfprintf_r+0xaa0>
20004faa:	9810      	ldr	r0, [sp, #64]	; 0x40
20004fac:	9913      	ldr	r1, [sp, #76]	; 0x4c
20004fae:	6060      	str	r0, [r4, #4]
20004fb0:	f8dd 3550 	ldr.w	r3, [sp, #1360]	; 0x550
20004fb4:	f8dd 2554 	ldr.w	r2, [sp, #1364]	; 0x554
20004fb8:	3301      	adds	r3, #1
20004fba:	6021      	str	r1, [r4, #0]
20004fbc:	1812      	adds	r2, r2, r0
20004fbe:	2b07      	cmp	r3, #7
20004fc0:	f8cd 3550 	str.w	r3, [sp, #1360]	; 0x550
20004fc4:	bfd8      	it	le
20004fc6:	f104 0308 	addle.w	r3, r4, #8
20004fca:	f8cd 2554 	str.w	r2, [sp, #1364]	; 0x554
20004fce:	f300 839b 	bgt.w	20005708 <_vfprintf_r+0xcc4>
20004fd2:	990a      	ldr	r1, [sp, #40]	; 0x28
20004fd4:	f011 0f04 	tst.w	r1, #4
20004fd8:	d055      	beq.n	20005086 <_vfprintf_r+0x642>
20004fda:	9a0f      	ldr	r2, [sp, #60]	; 0x3c
20004fdc:	f8dd c030 	ldr.w	ip, [sp, #48]	; 0x30
20004fe0:	ebcc 0702 	rsb	r7, ip, r2
20004fe4:	2f00      	cmp	r7, #0
20004fe6:	dd4e      	ble.n	20005086 <_vfprintf_r+0x642>
20004fe8:	2f10      	cmp	r7, #16
20004fea:	f64a 38a4 	movw	r8, #43940	; 0xaba4
20004fee:	bfd8      	it	le
20004ff0:	f2c2 0800 	movtle	r8, #8192	; 0x2000
20004ff4:	dd2e      	ble.n	20005054 <_vfprintf_r+0x610>
20004ff6:	f2c2 0800 	movt	r8, #8192	; 0x2000
20004ffa:	f50d 6aa8 	add.w	sl, sp, #1344	; 0x540
20004ffe:	4642      	mov	r2, r8
20005000:	2410      	movs	r4, #16
20005002:	46a8      	mov	r8, r5
20005004:	f10a 0a0c 	add.w	sl, sl, #12
20005008:	4615      	mov	r5, r2
2000500a:	e002      	b.n	20005012 <_vfprintf_r+0x5ce>
2000500c:	3f10      	subs	r7, #16
2000500e:	2f10      	cmp	r7, #16
20005010:	dd1d      	ble.n	2000504e <_vfprintf_r+0x60a>
20005012:	605c      	str	r4, [r3, #4]
20005014:	f8dd 2550 	ldr.w	r2, [sp, #1360]	; 0x550
20005018:	f8dd 1554 	ldr.w	r1, [sp, #1364]	; 0x554
2000501c:	3201      	adds	r2, #1
2000501e:	601d      	str	r5, [r3, #0]
20005020:	3110      	adds	r1, #16
20005022:	2a07      	cmp	r2, #7
20005024:	f8cd 1554 	str.w	r1, [sp, #1364]	; 0x554
20005028:	f103 0308 	add.w	r3, r3, #8
2000502c:	f8cd 2550 	str.w	r2, [sp, #1360]	; 0x550
20005030:	ddec      	ble.n	2000500c <_vfprintf_r+0x5c8>
20005032:	4648      	mov	r0, r9
20005034:	4631      	mov	r1, r6
20005036:	4652      	mov	r2, sl
20005038:	f7ff fcf6 	bl	20004a28 <__sprint_r>
2000503c:	f50d 639c 	add.w	r3, sp, #1248	; 0x4e0
20005040:	3304      	adds	r3, #4
20005042:	2800      	cmp	r0, #0
20005044:	f47f ae1e 	bne.w	20004c84 <_vfprintf_r+0x240>
20005048:	3f10      	subs	r7, #16
2000504a:	2f10      	cmp	r7, #16
2000504c:	dce1      	bgt.n	20005012 <_vfprintf_r+0x5ce>
2000504e:	462a      	mov	r2, r5
20005050:	4645      	mov	r5, r8
20005052:	4690      	mov	r8, r2
20005054:	605f      	str	r7, [r3, #4]
20005056:	f8dd 2550 	ldr.w	r2, [sp, #1360]	; 0x550
2000505a:	f8c3 8000 	str.w	r8, [r3]
2000505e:	f8dd 3554 	ldr.w	r3, [sp, #1364]	; 0x554
20005062:	3201      	adds	r2, #1
20005064:	f8cd 2550 	str.w	r2, [sp, #1360]	; 0x550
20005068:	18fb      	adds	r3, r7, r3
2000506a:	2a07      	cmp	r2, #7
2000506c:	f8cd 3554 	str.w	r3, [sp, #1364]	; 0x554
20005070:	dd0b      	ble.n	2000508a <_vfprintf_r+0x646>
20005072:	f50d 62a8 	add.w	r2, sp, #1344	; 0x540
20005076:	4648      	mov	r0, r9
20005078:	4631      	mov	r1, r6
2000507a:	320c      	adds	r2, #12
2000507c:	f7ff fcd4 	bl	20004a28 <__sprint_r>
20005080:	2800      	cmp	r0, #0
20005082:	f47f adff 	bne.w	20004c84 <_vfprintf_r+0x240>
20005086:	f8dd 3554 	ldr.w	r3, [sp, #1364]	; 0x554
2000508a:	9811      	ldr	r0, [sp, #68]	; 0x44
2000508c:	9a0c      	ldr	r2, [sp, #48]	; 0x30
2000508e:	990f      	ldr	r1, [sp, #60]	; 0x3c
20005090:	428a      	cmp	r2, r1
20005092:	bfac      	ite	ge
20005094:	1880      	addge	r0, r0, r2
20005096:	1840      	addlt	r0, r0, r1
20005098:	9011      	str	r0, [sp, #68]	; 0x44
2000509a:	2b00      	cmp	r3, #0
2000509c:	f040 8342 	bne.w	20005724 <_vfprintf_r+0xce0>
200050a0:	f50d 649c 	add.w	r4, sp, #1248	; 0x4e0
200050a4:	2300      	movs	r3, #0
200050a6:	f8dd a02c 	ldr.w	sl, [sp, #44]	; 0x2c
200050aa:	3404      	adds	r4, #4
200050ac:	f8cd 3550 	str.w	r3, [sp, #1360]	; 0x550
200050b0:	e530      	b.n	20004b14 <_vfprintf_r+0xd0>
200050b2:	9216      	str	r2, [sp, #88]	; 0x58
200050b4:	2a00      	cmp	r2, #0
200050b6:	f43f addd 	beq.w	20004c74 <_vfprintf_r+0x230>
200050ba:	f50d 60a4 	add.w	r0, sp, #1312	; 0x520
200050be:	2301      	movs	r3, #1
200050c0:	f04f 0c00 	mov.w	ip, #0
200050c4:	3004      	adds	r0, #4
200050c6:	930c      	str	r3, [sp, #48]	; 0x30
200050c8:	f88d 2524 	strb.w	r2, [sp, #1316]	; 0x524
200050cc:	f88d c577 	strb.w	ip, [sp, #1399]	; 0x577
200050d0:	9013      	str	r0, [sp, #76]	; 0x4c
200050d2:	9310      	str	r3, [sp, #64]	; 0x40
200050d4:	2100      	movs	r1, #0
200050d6:	9117      	str	r1, [sp, #92]	; 0x5c
200050d8:	e687      	b.n	20004dea <_vfprintf_r+0x3a6>
200050da:	f89d 3577 	ldrb.w	r3, [sp, #1399]	; 0x577
200050de:	2b00      	cmp	r3, #0
200050e0:	f040 852b 	bne.w	20005b3a <_vfprintf_r+0x10f6>
200050e4:	990b      	ldr	r1, [sp, #44]	; 0x2c
200050e6:	462b      	mov	r3, r5
200050e8:	f88d c577 	strb.w	ip, [sp, #1399]	; 0x577
200050ec:	782a      	ldrb	r2, [r5, #0]
200050ee:	910b      	str	r1, [sp, #44]	; 0x2c
200050f0:	e553      	b.n	20004b9a <_vfprintf_r+0x156>
200050f2:	990b      	ldr	r1, [sp, #44]	; 0x2c
200050f4:	9b0a      	ldr	r3, [sp, #40]	; 0x28
200050f6:	f043 0301 	orr.w	r3, r3, #1
200050fa:	930a      	str	r3, [sp, #40]	; 0x28
200050fc:	462b      	mov	r3, r5
200050fe:	782a      	ldrb	r2, [r5, #0]
20005100:	910b      	str	r1, [sp, #44]	; 0x2c
20005102:	e54a      	b.n	20004b9a <_vfprintf_r+0x156>
20005104:	990b      	ldr	r1, [sp, #44]	; 0x2c
20005106:	9a0b      	ldr	r2, [sp, #44]	; 0x2c
20005108:	6809      	ldr	r1, [r1, #0]
2000510a:	910f      	str	r1, [sp, #60]	; 0x3c
2000510c:	1d11      	adds	r1, r2, #4
2000510e:	9b0f      	ldr	r3, [sp, #60]	; 0x3c
20005110:	2b00      	cmp	r3, #0
20005112:	f2c0 8780 	blt.w	20006016 <_vfprintf_r+0x15d2>
20005116:	782a      	ldrb	r2, [r5, #0]
20005118:	462b      	mov	r3, r5
2000511a:	910b      	str	r1, [sp, #44]	; 0x2c
2000511c:	e53d      	b.n	20004b9a <_vfprintf_r+0x156>
2000511e:	990b      	ldr	r1, [sp, #44]	; 0x2c
20005120:	462b      	mov	r3, r5
20005122:	f88d 0577 	strb.w	r0, [sp, #1399]	; 0x577
20005126:	782a      	ldrb	r2, [r5, #0]
20005128:	910b      	str	r1, [sp, #44]	; 0x2c
2000512a:	e536      	b.n	20004b9a <_vfprintf_r+0x156>
2000512c:	990b      	ldr	r1, [sp, #44]	; 0x2c
2000512e:	9b0a      	ldr	r3, [sp, #40]	; 0x28
20005130:	f043 0304 	orr.w	r3, r3, #4
20005134:	930a      	str	r3, [sp, #40]	; 0x28
20005136:	462b      	mov	r3, r5
20005138:	782a      	ldrb	r2, [r5, #0]
2000513a:	910b      	str	r1, [sp, #44]	; 0x2c
2000513c:	e52d      	b.n	20004b9a <_vfprintf_r+0x156>
2000513e:	462b      	mov	r3, r5
20005140:	f813 2b01 	ldrb.w	r2, [r3], #1
20005144:	2a2a      	cmp	r2, #42	; 0x2a
20005146:	f001 80cd 	beq.w	200062e4 <_vfprintf_r+0x18a0>
2000514a:	f1a2 0130 	sub.w	r1, r2, #48	; 0x30
2000514e:	2909      	cmp	r1, #9
20005150:	f201 8037 	bhi.w	200061c2 <_vfprintf_r+0x177e>
20005154:	3502      	adds	r5, #2
20005156:	2700      	movs	r7, #0
20005158:	f815 2c01 	ldrb.w	r2, [r5, #-1]
2000515c:	eb07 0787 	add.w	r7, r7, r7, lsl #2
20005160:	462b      	mov	r3, r5
20005162:	3501      	adds	r5, #1
20005164:	eb01 0747 	add.w	r7, r1, r7, lsl #1
20005168:	f1a2 0130 	sub.w	r1, r2, #48	; 0x30
2000516c:	2909      	cmp	r1, #9
2000516e:	d9f3      	bls.n	20005158 <_vfprintf_r+0x714>
20005170:	ea47 77e7 	orr.w	r7, r7, r7, asr #31
20005174:	461d      	mov	r5, r3
20005176:	e511      	b.n	20004b9c <_vfprintf_r+0x158>
20005178:	990b      	ldr	r1, [sp, #44]	; 0x2c
2000517a:	462b      	mov	r3, r5
2000517c:	9a0a      	ldr	r2, [sp, #40]	; 0x28
2000517e:	f042 0280 	orr.w	r2, r2, #128	; 0x80
20005182:	920a      	str	r2, [sp, #40]	; 0x28
20005184:	782a      	ldrb	r2, [r5, #0]
20005186:	910b      	str	r1, [sp, #44]	; 0x2c
20005188:	e507      	b.n	20004b9a <_vfprintf_r+0x156>
2000518a:	f1a2 0130 	sub.w	r1, r2, #48	; 0x30
2000518e:	f04f 0800 	mov.w	r8, #0
20005192:	462b      	mov	r3, r5
20005194:	eb08 0888 	add.w	r8, r8, r8, lsl #2
20005198:	f813 2b01 	ldrb.w	r2, [r3], #1
2000519c:	eb01 0848 	add.w	r8, r1, r8, lsl #1
200051a0:	f1a2 0130 	sub.w	r1, r2, #48	; 0x30
200051a4:	461d      	mov	r5, r3
200051a6:	2909      	cmp	r1, #9
200051a8:	d9f3      	bls.n	20005192 <_vfprintf_r+0x74e>
200051aa:	f8cd 803c 	str.w	r8, [sp, #60]	; 0x3c
200051ae:	461d      	mov	r5, r3
200051b0:	e4f4      	b.n	20004b9c <_vfprintf_r+0x158>
200051b2:	9b0a      	ldr	r3, [sp, #40]	; 0x28
200051b4:	9216      	str	r2, [sp, #88]	; 0x58
200051b6:	f043 0310 	orr.w	r3, r3, #16
200051ba:	930a      	str	r3, [sp, #40]	; 0x28
200051bc:	f8dd c028 	ldr.w	ip, [sp, #40]	; 0x28
200051c0:	f01c 0f20 	tst.w	ip, #32
200051c4:	f000 815d 	beq.w	20005482 <_vfprintf_r+0xa3e>
200051c8:	980b      	ldr	r0, [sp, #44]	; 0x2c
200051ca:	1dc3      	adds	r3, r0, #7
200051cc:	f023 0307 	bic.w	r3, r3, #7
200051d0:	f103 0108 	add.w	r1, r3, #8
200051d4:	910b      	str	r1, [sp, #44]	; 0x2c
200051d6:	e9d3 ab00 	ldrd	sl, fp, [r3]
200051da:	f1ba 0f00 	cmp.w	sl, #0
200051de:	f17b 0200 	sbcs.w	r2, fp, #0
200051e2:	f2c0 849b 	blt.w	20005b1c <_vfprintf_r+0x10d8>
200051e6:	ea5a 030b 	orrs.w	r3, sl, fp
200051ea:	f04f 0301 	mov.w	r3, #1
200051ee:	bf0c      	ite	eq
200051f0:	2200      	moveq	r2, #0
200051f2:	2201      	movne	r2, #1
200051f4:	e5bc      	b.n	20004d70 <_vfprintf_r+0x32c>
200051f6:	980a      	ldr	r0, [sp, #40]	; 0x28
200051f8:	9216      	str	r2, [sp, #88]	; 0x58
200051fa:	f010 0f08 	tst.w	r0, #8
200051fe:	f000 84ed 	beq.w	20005bdc <_vfprintf_r+0x1198>
20005202:	990b      	ldr	r1, [sp, #44]	; 0x2c
20005204:	1dcb      	adds	r3, r1, #7
20005206:	f023 0307 	bic.w	r3, r3, #7
2000520a:	f103 0208 	add.w	r2, r3, #8
2000520e:	920b      	str	r2, [sp, #44]	; 0x2c
20005210:	f8d3 8004 	ldr.w	r8, [r3, #4]
20005214:	f8d3 a000 	ldr.w	sl, [r3]
20005218:	f8cd 806c 	str.w	r8, [sp, #108]	; 0x6c
2000521c:	f8cd a048 	str.w	sl, [sp, #72]	; 0x48
20005220:	4650      	mov	r0, sl
20005222:	4641      	mov	r1, r8
20005224:	f003 fe4a 	bl	20008ebc <__isinfd>
20005228:	4683      	mov	fp, r0
2000522a:	2800      	cmp	r0, #0
2000522c:	f000 8599 	beq.w	20005d62 <_vfprintf_r+0x131e>
20005230:	4650      	mov	r0, sl
20005232:	2200      	movs	r2, #0
20005234:	2300      	movs	r3, #0
20005236:	4641      	mov	r1, r8
20005238:	f004 fe2e 	bl	20009e98 <__aeabi_dcmplt>
2000523c:	2800      	cmp	r0, #0
2000523e:	f040 850b 	bne.w	20005c58 <_vfprintf_r+0x1214>
20005242:	f89d 3577 	ldrb.w	r3, [sp, #1399]	; 0x577
20005246:	f64a 31dc 	movw	r1, #43996	; 0xabdc
2000524a:	f64a 32d8 	movw	r2, #43992	; 0xabd8
2000524e:	9816      	ldr	r0, [sp, #88]	; 0x58
20005250:	f2c2 0100 	movt	r1, #8192	; 0x2000
20005254:	f2c2 0200 	movt	r2, #8192	; 0x2000
20005258:	f04f 0c03 	mov.w	ip, #3
2000525c:	2847      	cmp	r0, #71	; 0x47
2000525e:	bfd8      	it	le
20005260:	4611      	movle	r1, r2
20005262:	9113      	str	r1, [sp, #76]	; 0x4c
20005264:	990a      	ldr	r1, [sp, #40]	; 0x28
20005266:	f8cd c030 	str.w	ip, [sp, #48]	; 0x30
2000526a:	f021 0180 	bic.w	r1, r1, #128	; 0x80
2000526e:	f8cd c040 	str.w	ip, [sp, #64]	; 0x40
20005272:	910a      	str	r1, [sp, #40]	; 0x28
20005274:	f04f 0c00 	mov.w	ip, #0
20005278:	f8cd c05c 	str.w	ip, [sp, #92]	; 0x5c
2000527c:	e5b1      	b.n	20004de2 <_vfprintf_r+0x39e>
2000527e:	990b      	ldr	r1, [sp, #44]	; 0x2c
20005280:	9b0a      	ldr	r3, [sp, #40]	; 0x28
20005282:	f043 0308 	orr.w	r3, r3, #8
20005286:	930a      	str	r3, [sp, #40]	; 0x28
20005288:	462b      	mov	r3, r5
2000528a:	782a      	ldrb	r2, [r5, #0]
2000528c:	910b      	str	r1, [sp, #44]	; 0x2c
2000528e:	e484      	b.n	20004b9a <_vfprintf_r+0x156>
20005290:	990a      	ldr	r1, [sp, #40]	; 0x28
20005292:	f041 0140 	orr.w	r1, r1, #64	; 0x40
20005296:	910a      	str	r1, [sp, #40]	; 0x28
20005298:	990b      	ldr	r1, [sp, #44]	; 0x2c
2000529a:	e73c      	b.n	20005116 <_vfprintf_r+0x6d2>
2000529c:	782a      	ldrb	r2, [r5, #0]
2000529e:	2a6c      	cmp	r2, #108	; 0x6c
200052a0:	f000 8555 	beq.w	20005d4e <_vfprintf_r+0x130a>
200052a4:	990b      	ldr	r1, [sp, #44]	; 0x2c
200052a6:	9b0a      	ldr	r3, [sp, #40]	; 0x28
200052a8:	910b      	str	r1, [sp, #44]	; 0x2c
200052aa:	f043 0310 	orr.w	r3, r3, #16
200052ae:	930a      	str	r3, [sp, #40]	; 0x28
200052b0:	462b      	mov	r3, r5
200052b2:	e472      	b.n	20004b9a <_vfprintf_r+0x156>
200052b4:	9a0a      	ldr	r2, [sp, #40]	; 0x28
200052b6:	f012 0f20 	tst.w	r2, #32
200052ba:	f000 8482 	beq.w	20005bc2 <_vfprintf_r+0x117e>
200052be:	980b      	ldr	r0, [sp, #44]	; 0x2c
200052c0:	9a11      	ldr	r2, [sp, #68]	; 0x44
200052c2:	6803      	ldr	r3, [r0, #0]
200052c4:	4610      	mov	r0, r2
200052c6:	ea4f 71e0 	mov.w	r1, r0, asr #31
200052ca:	9a0b      	ldr	r2, [sp, #44]	; 0x2c
200052cc:	e9c3 0100 	strd	r0, r1, [r3]
200052d0:	f102 0a04 	add.w	sl, r2, #4
200052d4:	e41e      	b.n	20004b14 <_vfprintf_r+0xd0>
200052d6:	9216      	str	r2, [sp, #88]	; 0x58
200052d8:	9a0a      	ldr	r2, [sp, #40]	; 0x28
200052da:	f012 0320 	ands.w	r3, r2, #32
200052de:	f000 80ef 	beq.w	200054c0 <_vfprintf_r+0xa7c>
200052e2:	9b0b      	ldr	r3, [sp, #44]	; 0x2c
200052e4:	1dda      	adds	r2, r3, #7
200052e6:	2300      	movs	r3, #0
200052e8:	f022 0207 	bic.w	r2, r2, #7
200052ec:	f102 0c08 	add.w	ip, r2, #8
200052f0:	f8cd c02c 	str.w	ip, [sp, #44]	; 0x2c
200052f4:	e9d2 ab00 	ldrd	sl, fp, [r2]
200052f8:	ea5a 000b 	orrs.w	r0, sl, fp
200052fc:	bf0c      	ite	eq
200052fe:	2200      	moveq	r2, #0
20005300:	2201      	movne	r2, #1
20005302:	e531      	b.n	20004d68 <_vfprintf_r+0x324>
20005304:	980b      	ldr	r0, [sp, #44]	; 0x2c
20005306:	2178      	movs	r1, #120	; 0x78
20005308:	f8dd c028 	ldr.w	ip, [sp, #40]	; 0x28
2000530c:	9116      	str	r1, [sp, #88]	; 0x58
2000530e:	6803      	ldr	r3, [r0, #0]
20005310:	f64a 30e8 	movw	r0, #44008	; 0xabe8
20005314:	f88d 1575 	strb.w	r1, [sp, #1397]	; 0x575
20005318:	2130      	movs	r1, #48	; 0x30
2000531a:	f88d 1574 	strb.w	r1, [sp, #1396]	; 0x574
2000531e:	f04c 0c02 	orr.w	ip, ip, #2
20005322:	990b      	ldr	r1, [sp, #44]	; 0x2c
20005324:	1e1a      	subs	r2, r3, #0
20005326:	bf18      	it	ne
20005328:	2201      	movne	r2, #1
2000532a:	f2c2 0000 	movt	r0, #8192	; 0x2000
2000532e:	469a      	mov	sl, r3
20005330:	f04f 0b00 	mov.w	fp, #0
20005334:	3104      	adds	r1, #4
20005336:	f8cd c028 	str.w	ip, [sp, #40]	; 0x28
2000533a:	9019      	str	r0, [sp, #100]	; 0x64
2000533c:	2302      	movs	r3, #2
2000533e:	910b      	str	r1, [sp, #44]	; 0x2c
20005340:	e512      	b.n	20004d68 <_vfprintf_r+0x324>
20005342:	9b0b      	ldr	r3, [sp, #44]	; 0x2c
20005344:	9216      	str	r2, [sp, #88]	; 0x58
20005346:	f04f 0200 	mov.w	r2, #0
2000534a:	1d18      	adds	r0, r3, #4
2000534c:	f88d 2577 	strb.w	r2, [sp, #1399]	; 0x577
20005350:	681b      	ldr	r3, [r3, #0]
20005352:	900b      	str	r0, [sp, #44]	; 0x2c
20005354:	9313      	str	r3, [sp, #76]	; 0x4c
20005356:	2b00      	cmp	r3, #0
20005358:	f000 86c6 	beq.w	200060e8 <_vfprintf_r+0x16a4>
2000535c:	2f00      	cmp	r7, #0
2000535e:	9813      	ldr	r0, [sp, #76]	; 0x4c
20005360:	f2c0 868f 	blt.w	20006082 <_vfprintf_r+0x163e>
20005364:	2100      	movs	r1, #0
20005366:	463a      	mov	r2, r7
20005368:	f002 fdc4 	bl	20007ef4 <memchr>
2000536c:	4603      	mov	r3, r0
2000536e:	2800      	cmp	r0, #0
20005370:	f000 86f5 	beq.w	2000615e <_vfprintf_r+0x171a>
20005374:	9813      	ldr	r0, [sp, #76]	; 0x4c
20005376:	1a1b      	subs	r3, r3, r0
20005378:	9310      	str	r3, [sp, #64]	; 0x40
2000537a:	42bb      	cmp	r3, r7
2000537c:	f340 85be 	ble.w	20005efc <_vfprintf_r+0x14b8>
20005380:	9710      	str	r7, [sp, #64]	; 0x40
20005382:	2100      	movs	r1, #0
20005384:	ea27 77e7 	bic.w	r7, r7, r7, asr #31
20005388:	f89d 3577 	ldrb.w	r3, [sp, #1399]	; 0x577
2000538c:	970c      	str	r7, [sp, #48]	; 0x30
2000538e:	9117      	str	r1, [sp, #92]	; 0x5c
20005390:	e527      	b.n	20004de2 <_vfprintf_r+0x39e>
20005392:	f8dd c028 	ldr.w	ip, [sp, #40]	; 0x28
20005396:	9216      	str	r2, [sp, #88]	; 0x58
20005398:	f01c 0f20 	tst.w	ip, #32
2000539c:	d023      	beq.n	200053e6 <_vfprintf_r+0x9a2>
2000539e:	980b      	ldr	r0, [sp, #44]	; 0x2c
200053a0:	2301      	movs	r3, #1
200053a2:	1dc2      	adds	r2, r0, #7
200053a4:	f022 0207 	bic.w	r2, r2, #7
200053a8:	f102 0108 	add.w	r1, r2, #8
200053ac:	910b      	str	r1, [sp, #44]	; 0x2c
200053ae:	e9d2 ab00 	ldrd	sl, fp, [r2]
200053b2:	ea5a 020b 	orrs.w	r2, sl, fp
200053b6:	bf0c      	ite	eq
200053b8:	2200      	moveq	r2, #0
200053ba:	2201      	movne	r2, #1
200053bc:	e4d4      	b.n	20004d68 <_vfprintf_r+0x324>
200053be:	990a      	ldr	r1, [sp, #40]	; 0x28
200053c0:	462b      	mov	r3, r5
200053c2:	f041 0120 	orr.w	r1, r1, #32
200053c6:	910a      	str	r1, [sp, #40]	; 0x28
200053c8:	990b      	ldr	r1, [sp, #44]	; 0x2c
200053ca:	782a      	ldrb	r2, [r5, #0]
200053cc:	910b      	str	r1, [sp, #44]	; 0x2c
200053ce:	f7ff bbe4 	b.w	20004b9a <_vfprintf_r+0x156>
200053d2:	9b0a      	ldr	r3, [sp, #40]	; 0x28
200053d4:	9216      	str	r2, [sp, #88]	; 0x58
200053d6:	f043 0310 	orr.w	r3, r3, #16
200053da:	930a      	str	r3, [sp, #40]	; 0x28
200053dc:	f8dd c028 	ldr.w	ip, [sp, #40]	; 0x28
200053e0:	f01c 0f20 	tst.w	ip, #32
200053e4:	d1db      	bne.n	2000539e <_vfprintf_r+0x95a>
200053e6:	9b0a      	ldr	r3, [sp, #40]	; 0x28
200053e8:	f013 0f10 	tst.w	r3, #16
200053ec:	f000 83d5 	beq.w	20005b9a <_vfprintf_r+0x1156>
200053f0:	980b      	ldr	r0, [sp, #44]	; 0x2c
200053f2:	2301      	movs	r3, #1
200053f4:	1d02      	adds	r2, r0, #4
200053f6:	920b      	str	r2, [sp, #44]	; 0x2c
200053f8:	6801      	ldr	r1, [r0, #0]
200053fa:	1e0a      	subs	r2, r1, #0
200053fc:	bf18      	it	ne
200053fe:	2201      	movne	r2, #1
20005400:	468a      	mov	sl, r1
20005402:	f04f 0b00 	mov.w	fp, #0
20005406:	e4af      	b.n	20004d68 <_vfprintf_r+0x324>
20005408:	980a      	ldr	r0, [sp, #40]	; 0x28
2000540a:	9216      	str	r2, [sp, #88]	; 0x58
2000540c:	f64a 32c4 	movw	r2, #43972	; 0xabc4
20005410:	f010 0f20 	tst.w	r0, #32
20005414:	f2c2 0200 	movt	r2, #8192	; 0x2000
20005418:	9219      	str	r2, [sp, #100]	; 0x64
2000541a:	f47f ac92 	bne.w	20004d42 <_vfprintf_r+0x2fe>
2000541e:	9b0a      	ldr	r3, [sp, #40]	; 0x28
20005420:	f013 0f10 	tst.w	r3, #16
20005424:	f040 831a 	bne.w	20005a5c <_vfprintf_r+0x1018>
20005428:	9a0a      	ldr	r2, [sp, #40]	; 0x28
2000542a:	f012 0f40 	tst.w	r2, #64	; 0x40
2000542e:	f000 8315 	beq.w	20005a5c <_vfprintf_r+0x1018>
20005432:	9b0b      	ldr	r3, [sp, #44]	; 0x2c
20005434:	f103 0c04 	add.w	ip, r3, #4
20005438:	f8cd c02c 	str.w	ip, [sp, #44]	; 0x2c
2000543c:	f8b3 a000 	ldrh.w	sl, [r3]
20005440:	46d2      	mov	sl, sl
20005442:	f04f 0b00 	mov.w	fp, #0
20005446:	e485      	b.n	20004d54 <_vfprintf_r+0x310>
20005448:	9216      	str	r2, [sp, #88]	; 0x58
2000544a:	f50d 61a4 	add.w	r1, sp, #1312	; 0x520
2000544e:	9a0b      	ldr	r2, [sp, #44]	; 0x2c
20005450:	f04f 0c01 	mov.w	ip, #1
20005454:	f04f 0000 	mov.w	r0, #0
20005458:	3104      	adds	r1, #4
2000545a:	f8cd c030 	str.w	ip, [sp, #48]	; 0x30
2000545e:	6813      	ldr	r3, [r2, #0]
20005460:	3204      	adds	r2, #4
20005462:	f88d 0577 	strb.w	r0, [sp, #1399]	; 0x577
20005466:	920b      	str	r2, [sp, #44]	; 0x2c
20005468:	9113      	str	r1, [sp, #76]	; 0x4c
2000546a:	f8cd c040 	str.w	ip, [sp, #64]	; 0x40
2000546e:	f88d 3524 	strb.w	r3, [sp, #1316]	; 0x524
20005472:	e62f      	b.n	200050d4 <_vfprintf_r+0x690>
20005474:	f8dd c028 	ldr.w	ip, [sp, #40]	; 0x28
20005478:	9216      	str	r2, [sp, #88]	; 0x58
2000547a:	f01c 0f20 	tst.w	ip, #32
2000547e:	f47f aea3 	bne.w	200051c8 <_vfprintf_r+0x784>
20005482:	9a0a      	ldr	r2, [sp, #40]	; 0x28
20005484:	f012 0f10 	tst.w	r2, #16
20005488:	f040 82f1 	bne.w	20005a6e <_vfprintf_r+0x102a>
2000548c:	9a0a      	ldr	r2, [sp, #40]	; 0x28
2000548e:	f012 0f40 	tst.w	r2, #64	; 0x40
20005492:	f000 82ec 	beq.w	20005a6e <_vfprintf_r+0x102a>
20005496:	9b0b      	ldr	r3, [sp, #44]	; 0x2c
20005498:	f103 0c04 	add.w	ip, r3, #4
2000549c:	f8cd c02c 	str.w	ip, [sp, #44]	; 0x2c
200054a0:	f9b3 a000 	ldrsh.w	sl, [r3]
200054a4:	46d2      	mov	sl, sl
200054a6:	ea4f 7bea 	mov.w	fp, sl, asr #31
200054aa:	e696      	b.n	200051da <_vfprintf_r+0x796>
200054ac:	990a      	ldr	r1, [sp, #40]	; 0x28
200054ae:	9216      	str	r2, [sp, #88]	; 0x58
200054b0:	f041 0110 	orr.w	r1, r1, #16
200054b4:	910a      	str	r1, [sp, #40]	; 0x28
200054b6:	9a0a      	ldr	r2, [sp, #40]	; 0x28
200054b8:	f012 0320 	ands.w	r3, r2, #32
200054bc:	f47f af11 	bne.w	200052e2 <_vfprintf_r+0x89e>
200054c0:	990a      	ldr	r1, [sp, #40]	; 0x28
200054c2:	f011 0210 	ands.w	r2, r1, #16
200054c6:	f000 8354 	beq.w	20005b72 <_vfprintf_r+0x112e>
200054ca:	9a0b      	ldr	r2, [sp, #44]	; 0x2c
200054cc:	f102 0c04 	add.w	ip, r2, #4
200054d0:	f8cd c02c 	str.w	ip, [sp, #44]	; 0x2c
200054d4:	6811      	ldr	r1, [r2, #0]
200054d6:	1e0a      	subs	r2, r1, #0
200054d8:	bf18      	it	ne
200054da:	2201      	movne	r2, #1
200054dc:	468a      	mov	sl, r1
200054de:	f04f 0b00 	mov.w	fp, #0
200054e2:	e441      	b.n	20004d68 <_vfprintf_r+0x324>
200054e4:	9a16      	ldr	r2, [sp, #88]	; 0x58
200054e6:	2a65      	cmp	r2, #101	; 0x65
200054e8:	f340 8128 	ble.w	2000573c <_vfprintf_r+0xcf8>
200054ec:	9812      	ldr	r0, [sp, #72]	; 0x48
200054ee:	2200      	movs	r2, #0
200054f0:	2300      	movs	r3, #0
200054f2:	991b      	ldr	r1, [sp, #108]	; 0x6c
200054f4:	f004 fcc6 	bl	20009e84 <__aeabi_dcmpeq>
200054f8:	2800      	cmp	r0, #0
200054fa:	f000 81be 	beq.w	2000587a <_vfprintf_r+0xe36>
200054fe:	2301      	movs	r3, #1
20005500:	6063      	str	r3, [r4, #4]
20005502:	f8dd 2550 	ldr.w	r2, [sp, #1360]	; 0x550
20005506:	f64a 4304 	movw	r3, #44036	; 0xac04
2000550a:	f2c2 0300 	movt	r3, #8192	; 0x2000
2000550e:	6023      	str	r3, [r4, #0]
20005510:	f8dd 3554 	ldr.w	r3, [sp, #1364]	; 0x554
20005514:	3201      	adds	r2, #1
20005516:	f8cd 2550 	str.w	r2, [sp, #1360]	; 0x550
2000551a:	3301      	adds	r3, #1
2000551c:	2a07      	cmp	r2, #7
2000551e:	f8cd 3554 	str.w	r3, [sp, #1364]	; 0x554
20005522:	bfd8      	it	le
20005524:	f104 0308 	addle.w	r3, r4, #8
20005528:	f300 839b 	bgt.w	20005c62 <_vfprintf_r+0x121e>
2000552c:	f8dd 2570 	ldr.w	r2, [sp, #1392]	; 0x570
20005530:	981a      	ldr	r0, [sp, #104]	; 0x68
20005532:	4282      	cmp	r2, r0
20005534:	db04      	blt.n	20005540 <_vfprintf_r+0xafc>
20005536:	990a      	ldr	r1, [sp, #40]	; 0x28
20005538:	f011 0f01 	tst.w	r1, #1
2000553c:	f43f ad49 	beq.w	20004fd2 <_vfprintf_r+0x58e>
20005540:	2201      	movs	r2, #1
20005542:	605a      	str	r2, [r3, #4]
20005544:	f8dd 2550 	ldr.w	r2, [sp, #1360]	; 0x550
20005548:	f8dd 1554 	ldr.w	r1, [sp, #1364]	; 0x554
2000554c:	3201      	adds	r2, #1
2000554e:	981d      	ldr	r0, [sp, #116]	; 0x74
20005550:	3101      	adds	r1, #1
20005552:	2a07      	cmp	r2, #7
20005554:	f8cd 1554 	str.w	r1, [sp, #1364]	; 0x554
20005558:	6018      	str	r0, [r3, #0]
2000555a:	f8cd 2550 	str.w	r2, [sp, #1360]	; 0x550
2000555e:	f300 855f 	bgt.w	20006020 <_vfprintf_r+0x15dc>
20005562:	3308      	adds	r3, #8
20005564:	991a      	ldr	r1, [sp, #104]	; 0x68
20005566:	1e4f      	subs	r7, r1, #1
20005568:	2f00      	cmp	r7, #0
2000556a:	f77f ad32 	ble.w	20004fd2 <_vfprintf_r+0x58e>
2000556e:	2f10      	cmp	r7, #16
20005570:	f8df 8534 	ldr.w	r8, [pc, #1332]	; 20005aa8 <_vfprintf_r+0x1064>
20005574:	f340 82ea 	ble.w	20005b4c <_vfprintf_r+0x1108>
20005578:	4642      	mov	r2, r8
2000557a:	f50d 6aa8 	add.w	sl, sp, #1344	; 0x540
2000557e:	46a8      	mov	r8, r5
20005580:	2410      	movs	r4, #16
20005582:	f10a 0a0c 	add.w	sl, sl, #12
20005586:	4615      	mov	r5, r2
20005588:	e003      	b.n	20005592 <_vfprintf_r+0xb4e>
2000558a:	3f10      	subs	r7, #16
2000558c:	2f10      	cmp	r7, #16
2000558e:	f340 82da 	ble.w	20005b46 <_vfprintf_r+0x1102>
20005592:	605c      	str	r4, [r3, #4]
20005594:	f8dd 2550 	ldr.w	r2, [sp, #1360]	; 0x550
20005598:	f8dd 1554 	ldr.w	r1, [sp, #1364]	; 0x554
2000559c:	3201      	adds	r2, #1
2000559e:	601d      	str	r5, [r3, #0]
200055a0:	3110      	adds	r1, #16
200055a2:	2a07      	cmp	r2, #7
200055a4:	f8cd 1554 	str.w	r1, [sp, #1364]	; 0x554
200055a8:	f103 0308 	add.w	r3, r3, #8
200055ac:	f8cd 2550 	str.w	r2, [sp, #1360]	; 0x550
200055b0:	ddeb      	ble.n	2000558a <_vfprintf_r+0xb46>
200055b2:	4648      	mov	r0, r9
200055b4:	4631      	mov	r1, r6
200055b6:	4652      	mov	r2, sl
200055b8:	f7ff fa36 	bl	20004a28 <__sprint_r>
200055bc:	f50d 639c 	add.w	r3, sp, #1248	; 0x4e0
200055c0:	3304      	adds	r3, #4
200055c2:	2800      	cmp	r0, #0
200055c4:	d0e1      	beq.n	2000558a <_vfprintf_r+0xb46>
200055c6:	f7ff bb5d 	b.w	20004c84 <_vfprintf_r+0x240>
200055ca:	b97b      	cbnz	r3, 200055ec <_vfprintf_r+0xba8>
200055cc:	990a      	ldr	r1, [sp, #40]	; 0x28
200055ce:	f011 0f01 	tst.w	r1, #1
200055d2:	d00b      	beq.n	200055ec <_vfprintf_r+0xba8>
200055d4:	f50d 62a4 	add.w	r2, sp, #1312	; 0x520
200055d8:	2330      	movs	r3, #48	; 0x30
200055da:	3204      	adds	r2, #4
200055dc:	f88d 354b 	strb.w	r3, [sp, #1355]	; 0x54b
200055e0:	3227      	adds	r2, #39	; 0x27
200055e2:	2301      	movs	r3, #1
200055e4:	9213      	str	r2, [sp, #76]	; 0x4c
200055e6:	9310      	str	r3, [sp, #64]	; 0x40
200055e8:	f7ff bbf3 	b.w	20004dd2 <_vfprintf_r+0x38e>
200055ec:	9818      	ldr	r0, [sp, #96]	; 0x60
200055ee:	2100      	movs	r1, #0
200055f0:	9110      	str	r1, [sp, #64]	; 0x40
200055f2:	9013      	str	r0, [sp, #76]	; 0x4c
200055f4:	f7ff bbed 	b.w	20004dd2 <_vfprintf_r+0x38e>
200055f8:	980f      	ldr	r0, [sp, #60]	; 0x3c
200055fa:	990c      	ldr	r1, [sp, #48]	; 0x30
200055fc:	1a47      	subs	r7, r0, r1
200055fe:	2f00      	cmp	r7, #0
20005600:	f77f ac84 	ble.w	20004f0c <_vfprintf_r+0x4c8>
20005604:	2f10      	cmp	r7, #16
20005606:	f8df 84a0 	ldr.w	r8, [pc, #1184]	; 20005aa8 <_vfprintf_r+0x1064>
2000560a:	dd2e      	ble.n	2000566a <_vfprintf_r+0xc26>
2000560c:	4643      	mov	r3, r8
2000560e:	f50d 6ba8 	add.w	fp, sp, #1344	; 0x540
20005612:	46a8      	mov	r8, r5
20005614:	f04f 0a10 	mov.w	sl, #16
20005618:	f10b 0b0c 	add.w	fp, fp, #12
2000561c:	461d      	mov	r5, r3
2000561e:	e002      	b.n	20005626 <_vfprintf_r+0xbe2>
20005620:	3f10      	subs	r7, #16
20005622:	2f10      	cmp	r7, #16
20005624:	dd1e      	ble.n	20005664 <_vfprintf_r+0xc20>
20005626:	f8c4 a004 	str.w	sl, [r4, #4]
2000562a:	f8dd 3550 	ldr.w	r3, [sp, #1360]	; 0x550
2000562e:	f8dd 2554 	ldr.w	r2, [sp, #1364]	; 0x554
20005632:	3301      	adds	r3, #1
20005634:	6025      	str	r5, [r4, #0]
20005636:	3210      	adds	r2, #16
20005638:	2b07      	cmp	r3, #7
2000563a:	f8cd 2554 	str.w	r2, [sp, #1364]	; 0x554
2000563e:	f104 0408 	add.w	r4, r4, #8
20005642:	f8cd 3550 	str.w	r3, [sp, #1360]	; 0x550
20005646:	ddeb      	ble.n	20005620 <_vfprintf_r+0xbdc>
20005648:	f50d 649c 	add.w	r4, sp, #1248	; 0x4e0
2000564c:	4648      	mov	r0, r9
2000564e:	4631      	mov	r1, r6
20005650:	465a      	mov	r2, fp
20005652:	3404      	adds	r4, #4
20005654:	f7ff f9e8 	bl	20004a28 <__sprint_r>
20005658:	2800      	cmp	r0, #0
2000565a:	f47f ab13 	bne.w	20004c84 <_vfprintf_r+0x240>
2000565e:	3f10      	subs	r7, #16
20005660:	2f10      	cmp	r7, #16
20005662:	dce0      	bgt.n	20005626 <_vfprintf_r+0xbe2>
20005664:	462b      	mov	r3, r5
20005666:	4645      	mov	r5, r8
20005668:	4698      	mov	r8, r3
2000566a:	6067      	str	r7, [r4, #4]
2000566c:	f8dd 3550 	ldr.w	r3, [sp, #1360]	; 0x550
20005670:	f8c4 8000 	str.w	r8, [r4]
20005674:	1c5a      	adds	r2, r3, #1
20005676:	f8dd 3554 	ldr.w	r3, [sp, #1364]	; 0x554
2000567a:	f8cd 2550 	str.w	r2, [sp, #1360]	; 0x550
2000567e:	19db      	adds	r3, r3, r7
20005680:	2a07      	cmp	r2, #7
20005682:	f8cd 3554 	str.w	r3, [sp, #1364]	; 0x554
20005686:	f300 823a 	bgt.w	20005afe <_vfprintf_r+0x10ba>
2000568a:	3408      	adds	r4, #8
2000568c:	e43e      	b.n	20004f0c <_vfprintf_r+0x4c8>
2000568e:	9913      	ldr	r1, [sp, #76]	; 0x4c
20005690:	6063      	str	r3, [r4, #4]
20005692:	f8dd 2550 	ldr.w	r2, [sp, #1360]	; 0x550
20005696:	6021      	str	r1, [r4, #0]
20005698:	f8dd 1554 	ldr.w	r1, [sp, #1364]	; 0x554
2000569c:	3201      	adds	r2, #1
2000569e:	f8cd 2550 	str.w	r2, [sp, #1360]	; 0x550
200056a2:	18cb      	adds	r3, r1, r3
200056a4:	2a07      	cmp	r2, #7
200056a6:	f8cd 3554 	str.w	r3, [sp, #1364]	; 0x554
200056aa:	f300 8549 	bgt.w	20006140 <_vfprintf_r+0x16fc>
200056ae:	3408      	adds	r4, #8
200056b0:	9a1d      	ldr	r2, [sp, #116]	; 0x74
200056b2:	2301      	movs	r3, #1
200056b4:	f8dd 7570 	ldr.w	r7, [sp, #1392]	; 0x570
200056b8:	6063      	str	r3, [r4, #4]
200056ba:	f8dd 3550 	ldr.w	r3, [sp, #1360]	; 0x550
200056be:	6022      	str	r2, [r4, #0]
200056c0:	f8dd 2554 	ldr.w	r2, [sp, #1364]	; 0x554
200056c4:	3301      	adds	r3, #1
200056c6:	f8cd 3550 	str.w	r3, [sp, #1360]	; 0x550
200056ca:	3201      	adds	r2, #1
200056cc:	2b07      	cmp	r3, #7
200056ce:	f8cd 2554 	str.w	r2, [sp, #1364]	; 0x554
200056d2:	bfd8      	it	le
200056d4:	f104 0308 	addle.w	r3, r4, #8
200056d8:	f300 8523 	bgt.w	20006122 <_vfprintf_r+0x16de>
200056dc:	9813      	ldr	r0, [sp, #76]	; 0x4c
200056de:	f8dd 2570 	ldr.w	r2, [sp, #1392]	; 0x570
200056e2:	19c7      	adds	r7, r0, r7
200056e4:	981a      	ldr	r0, [sp, #104]	; 0x68
200056e6:	601f      	str	r7, [r3, #0]
200056e8:	1a81      	subs	r1, r0, r2
200056ea:	6059      	str	r1, [r3, #4]
200056ec:	f8dd 1554 	ldr.w	r1, [sp, #1364]	; 0x554
200056f0:	1a8a      	subs	r2, r1, r2
200056f2:	f8dd 1550 	ldr.w	r1, [sp, #1360]	; 0x550
200056f6:	1812      	adds	r2, r2, r0
200056f8:	f8cd 2554 	str.w	r2, [sp, #1364]	; 0x554
200056fc:	3101      	adds	r1, #1
200056fe:	f8cd 1550 	str.w	r1, [sp, #1360]	; 0x550
20005702:	2907      	cmp	r1, #7
20005704:	f340 8232 	ble.w	20005b6c <_vfprintf_r+0x1128>
20005708:	f50d 62a8 	add.w	r2, sp, #1344	; 0x540
2000570c:	4648      	mov	r0, r9
2000570e:	4631      	mov	r1, r6
20005710:	320c      	adds	r2, #12
20005712:	f7ff f989 	bl	20004a28 <__sprint_r>
20005716:	2800      	cmp	r0, #0
20005718:	f47f aab4 	bne.w	20004c84 <_vfprintf_r+0x240>
2000571c:	f50d 639c 	add.w	r3, sp, #1248	; 0x4e0
20005720:	3304      	adds	r3, #4
20005722:	e456      	b.n	20004fd2 <_vfprintf_r+0x58e>
20005724:	f50d 62a8 	add.w	r2, sp, #1344	; 0x540
20005728:	4648      	mov	r0, r9
2000572a:	4631      	mov	r1, r6
2000572c:	320c      	adds	r2, #12
2000572e:	f7ff f97b 	bl	20004a28 <__sprint_r>
20005732:	2800      	cmp	r0, #0
20005734:	f43f acb4 	beq.w	200050a0 <_vfprintf_r+0x65c>
20005738:	f7ff baa4 	b.w	20004c84 <_vfprintf_r+0x240>
2000573c:	991a      	ldr	r1, [sp, #104]	; 0x68
2000573e:	2901      	cmp	r1, #1
20005740:	dd4c      	ble.n	200057dc <_vfprintf_r+0xd98>
20005742:	2301      	movs	r3, #1
20005744:	6063      	str	r3, [r4, #4]
20005746:	f8dd 3550 	ldr.w	r3, [sp, #1360]	; 0x550
2000574a:	f8dd 2554 	ldr.w	r2, [sp, #1364]	; 0x554
2000574e:	3301      	adds	r3, #1
20005750:	9813      	ldr	r0, [sp, #76]	; 0x4c
20005752:	3201      	adds	r2, #1
20005754:	2b07      	cmp	r3, #7
20005756:	f8cd 2554 	str.w	r2, [sp, #1364]	; 0x554
2000575a:	6020      	str	r0, [r4, #0]
2000575c:	f8cd 3550 	str.w	r3, [sp, #1360]	; 0x550
20005760:	f300 81b2 	bgt.w	20005ac8 <_vfprintf_r+0x1084>
20005764:	3408      	adds	r4, #8
20005766:	2301      	movs	r3, #1
20005768:	6063      	str	r3, [r4, #4]
2000576a:	f8dd 3550 	ldr.w	r3, [sp, #1360]	; 0x550
2000576e:	f8dd 2554 	ldr.w	r2, [sp, #1364]	; 0x554
20005772:	3301      	adds	r3, #1
20005774:	991d      	ldr	r1, [sp, #116]	; 0x74
20005776:	3201      	adds	r2, #1
20005778:	2b07      	cmp	r3, #7
2000577a:	f8cd 2554 	str.w	r2, [sp, #1364]	; 0x554
2000577e:	6021      	str	r1, [r4, #0]
20005780:	f8cd 3550 	str.w	r3, [sp, #1360]	; 0x550
20005784:	f300 8192 	bgt.w	20005aac <_vfprintf_r+0x1068>
20005788:	3408      	adds	r4, #8
2000578a:	9812      	ldr	r0, [sp, #72]	; 0x48
2000578c:	2200      	movs	r2, #0
2000578e:	2300      	movs	r3, #0
20005790:	991b      	ldr	r1, [sp, #108]	; 0x6c
20005792:	f004 fb77 	bl	20009e84 <__aeabi_dcmpeq>
20005796:	2800      	cmp	r0, #0
20005798:	f040 811d 	bne.w	200059d6 <_vfprintf_r+0xf92>
2000579c:	9b1a      	ldr	r3, [sp, #104]	; 0x68
2000579e:	9813      	ldr	r0, [sp, #76]	; 0x4c
200057a0:	1e5a      	subs	r2, r3, #1
200057a2:	6062      	str	r2, [r4, #4]
200057a4:	f8dd 3550 	ldr.w	r3, [sp, #1360]	; 0x550
200057a8:	1c41      	adds	r1, r0, #1
200057aa:	6021      	str	r1, [r4, #0]
200057ac:	f8dd 1554 	ldr.w	r1, [sp, #1364]	; 0x554
200057b0:	3301      	adds	r3, #1
200057b2:	f8cd 3550 	str.w	r3, [sp, #1360]	; 0x550
200057b6:	188a      	adds	r2, r1, r2
200057b8:	2b07      	cmp	r3, #7
200057ba:	f8cd 2554 	str.w	r2, [sp, #1364]	; 0x554
200057be:	dc21      	bgt.n	20005804 <_vfprintf_r+0xdc0>
200057c0:	3408      	adds	r4, #8
200057c2:	9b1c      	ldr	r3, [sp, #112]	; 0x70
200057c4:	f50d 62ac 	add.w	r2, sp, #1376	; 0x560
200057c8:	981c      	ldr	r0, [sp, #112]	; 0x70
200057ca:	6022      	str	r2, [r4, #0]
200057cc:	6063      	str	r3, [r4, #4]
200057ce:	f8dd 3550 	ldr.w	r3, [sp, #1360]	; 0x550
200057d2:	f8dd 2554 	ldr.w	r2, [sp, #1364]	; 0x554
200057d6:	3301      	adds	r3, #1
200057d8:	f7ff bbf0 	b.w	20004fbc <_vfprintf_r+0x578>
200057dc:	9a0a      	ldr	r2, [sp, #40]	; 0x28
200057de:	f012 0f01 	tst.w	r2, #1
200057e2:	d1ae      	bne.n	20005742 <_vfprintf_r+0xcfe>
200057e4:	9a13      	ldr	r2, [sp, #76]	; 0x4c
200057e6:	2301      	movs	r3, #1
200057e8:	6063      	str	r3, [r4, #4]
200057ea:	f8dd 3550 	ldr.w	r3, [sp, #1360]	; 0x550
200057ee:	6022      	str	r2, [r4, #0]
200057f0:	f8dd 2554 	ldr.w	r2, [sp, #1364]	; 0x554
200057f4:	3301      	adds	r3, #1
200057f6:	f8cd 3550 	str.w	r3, [sp, #1360]	; 0x550
200057fa:	3201      	adds	r2, #1
200057fc:	2b07      	cmp	r3, #7
200057fe:	f8cd 2554 	str.w	r2, [sp, #1364]	; 0x554
20005802:	dddd      	ble.n	200057c0 <_vfprintf_r+0xd7c>
20005804:	f50d 62a8 	add.w	r2, sp, #1344	; 0x540
20005808:	4648      	mov	r0, r9
2000580a:	4631      	mov	r1, r6
2000580c:	320c      	adds	r2, #12
2000580e:	f7ff f90b 	bl	20004a28 <__sprint_r>
20005812:	2800      	cmp	r0, #0
20005814:	f47f aa36 	bne.w	20004c84 <_vfprintf_r+0x240>
20005818:	f50d 649c 	add.w	r4, sp, #1248	; 0x4e0
2000581c:	3404      	adds	r4, #4
2000581e:	e7d0      	b.n	200057c2 <_vfprintf_r+0xd7e>
20005820:	f50d 62a8 	add.w	r2, sp, #1344	; 0x540
20005824:	4648      	mov	r0, r9
20005826:	4631      	mov	r1, r6
20005828:	320c      	adds	r2, #12
2000582a:	f7ff f8fd 	bl	20004a28 <__sprint_r>
2000582e:	2800      	cmp	r0, #0
20005830:	f47f aa28 	bne.w	20004c84 <_vfprintf_r+0x240>
20005834:	f50d 649c 	add.w	r4, sp, #1248	; 0x4e0
20005838:	3404      	adds	r4, #4
2000583a:	f7ff bbb0 	b.w	20004f9e <_vfprintf_r+0x55a>
2000583e:	f50d 62a8 	add.w	r2, sp, #1344	; 0x540
20005842:	4648      	mov	r0, r9
20005844:	4631      	mov	r1, r6
20005846:	320c      	adds	r2, #12
20005848:	f7ff f8ee 	bl	20004a28 <__sprint_r>
2000584c:	2800      	cmp	r0, #0
2000584e:	f47f aa19 	bne.w	20004c84 <_vfprintf_r+0x240>
20005852:	f50d 649c 	add.w	r4, sp, #1248	; 0x4e0
20005856:	3404      	adds	r4, #4
20005858:	f7ff bb3c 	b.w	20004ed4 <_vfprintf_r+0x490>
2000585c:	f50d 62a8 	add.w	r2, sp, #1344	; 0x540
20005860:	4648      	mov	r0, r9
20005862:	4631      	mov	r1, r6
20005864:	320c      	adds	r2, #12
20005866:	f7ff f8df 	bl	20004a28 <__sprint_r>
2000586a:	2800      	cmp	r0, #0
2000586c:	f47f aa0a 	bne.w	20004c84 <_vfprintf_r+0x240>
20005870:	f50d 649c 	add.w	r4, sp, #1248	; 0x4e0
20005874:	3404      	adds	r4, #4
20005876:	f7ff bb43 	b.w	20004f00 <_vfprintf_r+0x4bc>
2000587a:	f8dd 3570 	ldr.w	r3, [sp, #1392]	; 0x570
2000587e:	2b00      	cmp	r3, #0
20005880:	f340 81fd 	ble.w	20005c7e <_vfprintf_r+0x123a>
20005884:	991a      	ldr	r1, [sp, #104]	; 0x68
20005886:	428b      	cmp	r3, r1
20005888:	f6ff af01 	blt.w	2000568e <_vfprintf_r+0xc4a>
2000588c:	9a13      	ldr	r2, [sp, #76]	; 0x4c
2000588e:	6061      	str	r1, [r4, #4]
20005890:	f8dd 3550 	ldr.w	r3, [sp, #1360]	; 0x550
20005894:	6022      	str	r2, [r4, #0]
20005896:	f8dd 2554 	ldr.w	r2, [sp, #1364]	; 0x554
2000589a:	3301      	adds	r3, #1
2000589c:	f8cd 3550 	str.w	r3, [sp, #1360]	; 0x550
200058a0:	1852      	adds	r2, r2, r1
200058a2:	2b07      	cmp	r3, #7
200058a4:	f8cd 2554 	str.w	r2, [sp, #1364]	; 0x554
200058a8:	bfd8      	it	le
200058aa:	f104 0308 	addle.w	r3, r4, #8
200058ae:	f300 8429 	bgt.w	20006104 <_vfprintf_r+0x16c0>
200058b2:	f8dd 4570 	ldr.w	r4, [sp, #1392]	; 0x570
200058b6:	981a      	ldr	r0, [sp, #104]	; 0x68
200058b8:	1a24      	subs	r4, r4, r0
200058ba:	2c00      	cmp	r4, #0
200058bc:	f340 81b3 	ble.w	20005c26 <_vfprintf_r+0x11e2>
200058c0:	2c10      	cmp	r4, #16
200058c2:	f8df 81e4 	ldr.w	r8, [pc, #484]	; 20005aa8 <_vfprintf_r+0x1064>
200058c6:	f340 819d 	ble.w	20005c04 <_vfprintf_r+0x11c0>
200058ca:	4642      	mov	r2, r8
200058cc:	f50d 6aa8 	add.w	sl, sp, #1344	; 0x540
200058d0:	46a8      	mov	r8, r5
200058d2:	2710      	movs	r7, #16
200058d4:	f10a 0a0c 	add.w	sl, sl, #12
200058d8:	4615      	mov	r5, r2
200058da:	e003      	b.n	200058e4 <_vfprintf_r+0xea0>
200058dc:	3c10      	subs	r4, #16
200058de:	2c10      	cmp	r4, #16
200058e0:	f340 818d 	ble.w	20005bfe <_vfprintf_r+0x11ba>
200058e4:	605f      	str	r7, [r3, #4]
200058e6:	f8dd 2550 	ldr.w	r2, [sp, #1360]	; 0x550
200058ea:	f8dd 1554 	ldr.w	r1, [sp, #1364]	; 0x554
200058ee:	3201      	adds	r2, #1
200058f0:	601d      	str	r5, [r3, #0]
200058f2:	3110      	adds	r1, #16
200058f4:	2a07      	cmp	r2, #7
200058f6:	f8cd 1554 	str.w	r1, [sp, #1364]	; 0x554
200058fa:	f103 0308 	add.w	r3, r3, #8
200058fe:	f8cd 2550 	str.w	r2, [sp, #1360]	; 0x550
20005902:	ddeb      	ble.n	200058dc <_vfprintf_r+0xe98>
20005904:	4648      	mov	r0, r9
20005906:	4631      	mov	r1, r6
20005908:	4652      	mov	r2, sl
2000590a:	f7ff f88d 	bl	20004a28 <__sprint_r>
2000590e:	f50d 639c 	add.w	r3, sp, #1248	; 0x4e0
20005912:	3304      	adds	r3, #4
20005914:	2800      	cmp	r0, #0
20005916:	d0e1      	beq.n	200058dc <_vfprintf_r+0xe98>
20005918:	f7ff b9b4 	b.w	20004c84 <_vfprintf_r+0x240>
2000591c:	9a18      	ldr	r2, [sp, #96]	; 0x60
2000591e:	9819      	ldr	r0, [sp, #100]	; 0x64
20005920:	4613      	mov	r3, r2
20005922:	9213      	str	r2, [sp, #76]	; 0x4c
20005924:	f00a 020f 	and.w	r2, sl, #15
20005928:	ea4f 111a 	mov.w	r1, sl, lsr #4
2000592c:	ea41 710b 	orr.w	r1, r1, fp, lsl #28
20005930:	ea4f 1c1b 	mov.w	ip, fp, lsr #4
20005934:	5c82      	ldrb	r2, [r0, r2]
20005936:	468a      	mov	sl, r1
20005938:	46e3      	mov	fp, ip
2000593a:	ea5a 0c0b 	orrs.w	ip, sl, fp
2000593e:	f803 2d01 	strb.w	r2, [r3, #-1]!
20005942:	d1ef      	bne.n	20005924 <_vfprintf_r+0xee0>
20005944:	9818      	ldr	r0, [sp, #96]	; 0x60
20005946:	9313      	str	r3, [sp, #76]	; 0x4c
20005948:	1ac0      	subs	r0, r0, r3
2000594a:	9010      	str	r0, [sp, #64]	; 0x40
2000594c:	f7ff ba41 	b.w	20004dd2 <_vfprintf_r+0x38e>
20005950:	2209      	movs	r2, #9
20005952:	2300      	movs	r3, #0
20005954:	4552      	cmp	r2, sl
20005956:	eb73 000b 	sbcs.w	r0, r3, fp
2000595a:	f8dd 8060 	ldr.w	r8, [sp, #96]	; 0x60
2000595e:	d21f      	bcs.n	200059a0 <_vfprintf_r+0xf5c>
20005960:	4623      	mov	r3, r4
20005962:	4644      	mov	r4, r8
20005964:	46b8      	mov	r8, r7
20005966:	461f      	mov	r7, r3
20005968:	4650      	mov	r0, sl
2000596a:	4659      	mov	r1, fp
2000596c:	220a      	movs	r2, #10
2000596e:	2300      	movs	r3, #0
20005970:	f004 fae2 	bl	20009f38 <__aeabi_uldivmod>
20005974:	2300      	movs	r3, #0
20005976:	4650      	mov	r0, sl
20005978:	4659      	mov	r1, fp
2000597a:	f102 0c30 	add.w	ip, r2, #48	; 0x30
2000597e:	220a      	movs	r2, #10
20005980:	f804 cd01 	strb.w	ip, [r4, #-1]!
20005984:	f004 fad8 	bl	20009f38 <__aeabi_uldivmod>
20005988:	2209      	movs	r2, #9
2000598a:	2300      	movs	r3, #0
2000598c:	4682      	mov	sl, r0
2000598e:	468b      	mov	fp, r1
20005990:	4552      	cmp	r2, sl
20005992:	eb73 030b 	sbcs.w	r3, r3, fp
20005996:	d3e7      	bcc.n	20005968 <_vfprintf_r+0xf24>
20005998:	463b      	mov	r3, r7
2000599a:	4647      	mov	r7, r8
2000599c:	46a0      	mov	r8, r4
2000599e:	461c      	mov	r4, r3
200059a0:	f108 30ff 	add.w	r0, r8, #4294967295
200059a4:	f10a 0a30 	add.w	sl, sl, #48	; 0x30
200059a8:	9013      	str	r0, [sp, #76]	; 0x4c
200059aa:	f808 ac01 	strb.w	sl, [r8, #-1]
200059ae:	9918      	ldr	r1, [sp, #96]	; 0x60
200059b0:	1a09      	subs	r1, r1, r0
200059b2:	9110      	str	r1, [sp, #64]	; 0x40
200059b4:	f7ff ba0d 	b.w	20004dd2 <_vfprintf_r+0x38e>
200059b8:	f50d 62a8 	add.w	r2, sp, #1344	; 0x540
200059bc:	4648      	mov	r0, r9
200059be:	4631      	mov	r1, r6
200059c0:	320c      	adds	r2, #12
200059c2:	f7ff f831 	bl	20004a28 <__sprint_r>
200059c6:	2800      	cmp	r0, #0
200059c8:	f47f a95c 	bne.w	20004c84 <_vfprintf_r+0x240>
200059cc:	f50d 649c 	add.w	r4, sp, #1248	; 0x4e0
200059d0:	3404      	adds	r4, #4
200059d2:	f7ff ba68 	b.w	20004ea6 <_vfprintf_r+0x462>
200059d6:	991a      	ldr	r1, [sp, #104]	; 0x68
200059d8:	1e4f      	subs	r7, r1, #1
200059da:	2f00      	cmp	r7, #0
200059dc:	f77f aef1 	ble.w	200057c2 <_vfprintf_r+0xd7e>
200059e0:	2f10      	cmp	r7, #16
200059e2:	f8df 80c4 	ldr.w	r8, [pc, #196]	; 20005aa8 <_vfprintf_r+0x1064>
200059e6:	dd4e      	ble.n	20005a86 <_vfprintf_r+0x1042>
200059e8:	4643      	mov	r3, r8
200059ea:	f50d 6ba8 	add.w	fp, sp, #1344	; 0x540
200059ee:	46a8      	mov	r8, r5
200059f0:	f04f 0a10 	mov.w	sl, #16
200059f4:	f10b 0b0c 	add.w	fp, fp, #12
200059f8:	461d      	mov	r5, r3
200059fa:	e002      	b.n	20005a02 <_vfprintf_r+0xfbe>
200059fc:	3f10      	subs	r7, #16
200059fe:	2f10      	cmp	r7, #16
20005a00:	dd3e      	ble.n	20005a80 <_vfprintf_r+0x103c>
20005a02:	f8c4 a004 	str.w	sl, [r4, #4]
20005a06:	f8dd 3550 	ldr.w	r3, [sp, #1360]	; 0x550
20005a0a:	f8dd 2554 	ldr.w	r2, [sp, #1364]	; 0x554
20005a0e:	3301      	adds	r3, #1
20005a10:	6025      	str	r5, [r4, #0]
20005a12:	3210      	adds	r2, #16
20005a14:	2b07      	cmp	r3, #7
20005a16:	f8cd 2554 	str.w	r2, [sp, #1364]	; 0x554
20005a1a:	f104 0408 	add.w	r4, r4, #8
20005a1e:	f8cd 3550 	str.w	r3, [sp, #1360]	; 0x550
20005a22:	ddeb      	ble.n	200059fc <_vfprintf_r+0xfb8>
20005a24:	f50d 649c 	add.w	r4, sp, #1248	; 0x4e0
20005a28:	4648      	mov	r0, r9
20005a2a:	4631      	mov	r1, r6
20005a2c:	465a      	mov	r2, fp
20005a2e:	3404      	adds	r4, #4
20005a30:	f7fe fffa 	bl	20004a28 <__sprint_r>
20005a34:	2800      	cmp	r0, #0
20005a36:	d0e1      	beq.n	200059fc <_vfprintf_r+0xfb8>
20005a38:	f7ff b924 	b.w	20004c84 <_vfprintf_r+0x240>
20005a3c:	9816      	ldr	r0, [sp, #88]	; 0x58
20005a3e:	2130      	movs	r1, #48	; 0x30
20005a40:	f8dd c028 	ldr.w	ip, [sp, #40]	; 0x28
20005a44:	2201      	movs	r2, #1
20005a46:	2302      	movs	r3, #2
20005a48:	f88d 1574 	strb.w	r1, [sp, #1396]	; 0x574
20005a4c:	f04c 0c02 	orr.w	ip, ip, #2
20005a50:	f88d 0575 	strb.w	r0, [sp, #1397]	; 0x575
20005a54:	f8cd c028 	str.w	ip, [sp, #40]	; 0x28
20005a58:	f7ff b986 	b.w	20004d68 <_vfprintf_r+0x324>
20005a5c:	980b      	ldr	r0, [sp, #44]	; 0x2c
20005a5e:	1d01      	adds	r1, r0, #4
20005a60:	6803      	ldr	r3, [r0, #0]
20005a62:	910b      	str	r1, [sp, #44]	; 0x2c
20005a64:	469a      	mov	sl, r3
20005a66:	f04f 0b00 	mov.w	fp, #0
20005a6a:	f7ff b973 	b.w	20004d54 <_vfprintf_r+0x310>
20005a6e:	980b      	ldr	r0, [sp, #44]	; 0x2c
20005a70:	1d01      	adds	r1, r0, #4
20005a72:	6803      	ldr	r3, [r0, #0]
20005a74:	910b      	str	r1, [sp, #44]	; 0x2c
20005a76:	469a      	mov	sl, r3
20005a78:	ea4f 7bea 	mov.w	fp, sl, asr #31
20005a7c:	f7ff bbad 	b.w	200051da <_vfprintf_r+0x796>
20005a80:	462b      	mov	r3, r5
20005a82:	4645      	mov	r5, r8
20005a84:	4698      	mov	r8, r3
20005a86:	6067      	str	r7, [r4, #4]
20005a88:	f8dd 3550 	ldr.w	r3, [sp, #1360]	; 0x550
20005a8c:	f8dd 2554 	ldr.w	r2, [sp, #1364]	; 0x554
20005a90:	3301      	adds	r3, #1
20005a92:	f8c4 8000 	str.w	r8, [r4]
20005a96:	19d2      	adds	r2, r2, r7
20005a98:	2b07      	cmp	r3, #7
20005a9a:	f8cd 2554 	str.w	r2, [sp, #1364]	; 0x554
20005a9e:	f8cd 3550 	str.w	r3, [sp, #1360]	; 0x550
20005aa2:	f77f ae8d 	ble.w	200057c0 <_vfprintf_r+0xd7c>
20005aa6:	e6ad      	b.n	20005804 <_vfprintf_r+0xdc0>
20005aa8:	2000abb4 	.word	0x2000abb4
20005aac:	f50d 62a8 	add.w	r2, sp, #1344	; 0x540
20005ab0:	4648      	mov	r0, r9
20005ab2:	4631      	mov	r1, r6
20005ab4:	320c      	adds	r2, #12
20005ab6:	f7fe ffb7 	bl	20004a28 <__sprint_r>
20005aba:	2800      	cmp	r0, #0
20005abc:	f47f a8e2 	bne.w	20004c84 <_vfprintf_r+0x240>
20005ac0:	f50d 649c 	add.w	r4, sp, #1248	; 0x4e0
20005ac4:	3404      	adds	r4, #4
20005ac6:	e660      	b.n	2000578a <_vfprintf_r+0xd46>
20005ac8:	f50d 62a8 	add.w	r2, sp, #1344	; 0x540
20005acc:	4648      	mov	r0, r9
20005ace:	4631      	mov	r1, r6
20005ad0:	320c      	adds	r2, #12
20005ad2:	f7fe ffa9 	bl	20004a28 <__sprint_r>
20005ad6:	2800      	cmp	r0, #0
20005ad8:	f47f a8d4 	bne.w	20004c84 <_vfprintf_r+0x240>
20005adc:	f50d 649c 	add.w	r4, sp, #1248	; 0x4e0
20005ae0:	3404      	adds	r4, #4
20005ae2:	e640      	b.n	20005766 <_vfprintf_r+0xd22>
20005ae4:	2830      	cmp	r0, #48	; 0x30
20005ae6:	f000 82ec 	beq.w	200060c2 <_vfprintf_r+0x167e>
20005aea:	9813      	ldr	r0, [sp, #76]	; 0x4c
20005aec:	2330      	movs	r3, #48	; 0x30
20005aee:	f800 3d01 	strb.w	r3, [r0, #-1]!
20005af2:	9918      	ldr	r1, [sp, #96]	; 0x60
20005af4:	9013      	str	r0, [sp, #76]	; 0x4c
20005af6:	1a09      	subs	r1, r1, r0
20005af8:	9110      	str	r1, [sp, #64]	; 0x40
20005afa:	f7ff b96a 	b.w	20004dd2 <_vfprintf_r+0x38e>
20005afe:	f50d 62a8 	add.w	r2, sp, #1344	; 0x540
20005b02:	4648      	mov	r0, r9
20005b04:	4631      	mov	r1, r6
20005b06:	320c      	adds	r2, #12
20005b08:	f7fe ff8e 	bl	20004a28 <__sprint_r>
20005b0c:	2800      	cmp	r0, #0
20005b0e:	f47f a8b9 	bne.w	20004c84 <_vfprintf_r+0x240>
20005b12:	f50d 649c 	add.w	r4, sp, #1248	; 0x4e0
20005b16:	3404      	adds	r4, #4
20005b18:	f7ff b9f8 	b.w	20004f0c <_vfprintf_r+0x4c8>
20005b1c:	f1da 0a00 	rsbs	sl, sl, #0
20005b20:	eb6b 0b4b 	sbc.w	fp, fp, fp, lsl #1
20005b24:	232d      	movs	r3, #45	; 0x2d
20005b26:	ea5a 0c0b 	orrs.w	ip, sl, fp
20005b2a:	f88d 3577 	strb.w	r3, [sp, #1399]	; 0x577
20005b2e:	bf0c      	ite	eq
20005b30:	2200      	moveq	r2, #0
20005b32:	2201      	movne	r2, #1
20005b34:	2301      	movs	r3, #1
20005b36:	f7ff b91b 	b.w	20004d70 <_vfprintf_r+0x32c>
20005b3a:	990b      	ldr	r1, [sp, #44]	; 0x2c
20005b3c:	462b      	mov	r3, r5
20005b3e:	782a      	ldrb	r2, [r5, #0]
20005b40:	910b      	str	r1, [sp, #44]	; 0x2c
20005b42:	f7ff b82a 	b.w	20004b9a <_vfprintf_r+0x156>
20005b46:	462a      	mov	r2, r5
20005b48:	4645      	mov	r5, r8
20005b4a:	4690      	mov	r8, r2
20005b4c:	605f      	str	r7, [r3, #4]
20005b4e:	f8dd 2550 	ldr.w	r2, [sp, #1360]	; 0x550
20005b52:	f8dd 1554 	ldr.w	r1, [sp, #1364]	; 0x554
20005b56:	3201      	adds	r2, #1
20005b58:	f8c3 8000 	str.w	r8, [r3]
20005b5c:	19c9      	adds	r1, r1, r7
20005b5e:	2a07      	cmp	r2, #7
20005b60:	f8cd 1554 	str.w	r1, [sp, #1364]	; 0x554
20005b64:	f8cd 2550 	str.w	r2, [sp, #1360]	; 0x550
20005b68:	f73f adce 	bgt.w	20005708 <_vfprintf_r+0xcc4>
20005b6c:	3308      	adds	r3, #8
20005b6e:	f7ff ba30 	b.w	20004fd2 <_vfprintf_r+0x58e>
20005b72:	980a      	ldr	r0, [sp, #40]	; 0x28
20005b74:	f010 0340 	ands.w	r3, r0, #64	; 0x40
20005b78:	f000 81ed 	beq.w	20005f56 <_vfprintf_r+0x1512>
20005b7c:	990b      	ldr	r1, [sp, #44]	; 0x2c
20005b7e:	4613      	mov	r3, r2
20005b80:	1d0a      	adds	r2, r1, #4
20005b82:	920b      	str	r2, [sp, #44]	; 0x2c
20005b84:	f8b1 a000 	ldrh.w	sl, [r1]
20005b88:	f1ba 0200 	subs.w	r2, sl, #0
20005b8c:	bf18      	it	ne
20005b8e:	2201      	movne	r2, #1
20005b90:	46d2      	mov	sl, sl
20005b92:	f04f 0b00 	mov.w	fp, #0
20005b96:	f7ff b8e7 	b.w	20004d68 <_vfprintf_r+0x324>
20005b9a:	9b0a      	ldr	r3, [sp, #40]	; 0x28
20005b9c:	f013 0f40 	tst.w	r3, #64	; 0x40
20005ba0:	f000 81cc 	beq.w	20005f3c <_vfprintf_r+0x14f8>
20005ba4:	980b      	ldr	r0, [sp, #44]	; 0x2c
20005ba6:	2301      	movs	r3, #1
20005ba8:	1d01      	adds	r1, r0, #4
20005baa:	910b      	str	r1, [sp, #44]	; 0x2c
20005bac:	f8b0 a000 	ldrh.w	sl, [r0]
20005bb0:	f1ba 0200 	subs.w	r2, sl, #0
20005bb4:	bf18      	it	ne
20005bb6:	2201      	movne	r2, #1
20005bb8:	46d2      	mov	sl, sl
20005bba:	f04f 0b00 	mov.w	fp, #0
20005bbe:	f7ff b8d3 	b.w	20004d68 <_vfprintf_r+0x324>
20005bc2:	9b0a      	ldr	r3, [sp, #40]	; 0x28
20005bc4:	f013 0f10 	tst.w	r3, #16
20005bc8:	f000 81a4 	beq.w	20005f14 <_vfprintf_r+0x14d0>
20005bcc:	980b      	ldr	r0, [sp, #44]	; 0x2c
20005bce:	9911      	ldr	r1, [sp, #68]	; 0x44
20005bd0:	f100 0a04 	add.w	sl, r0, #4
20005bd4:	6803      	ldr	r3, [r0, #0]
20005bd6:	6019      	str	r1, [r3, #0]
20005bd8:	f7fe bf9c 	b.w	20004b14 <_vfprintf_r+0xd0>
20005bdc:	980b      	ldr	r0, [sp, #44]	; 0x2c
20005bde:	1dc3      	adds	r3, r0, #7
20005be0:	f023 0307 	bic.w	r3, r3, #7
20005be4:	f103 0108 	add.w	r1, r3, #8
20005be8:	910b      	str	r1, [sp, #44]	; 0x2c
20005bea:	f8d3 8004 	ldr.w	r8, [r3, #4]
20005bee:	f8d3 a000 	ldr.w	sl, [r3]
20005bf2:	f8cd 806c 	str.w	r8, [sp, #108]	; 0x6c
20005bf6:	f8cd a048 	str.w	sl, [sp, #72]	; 0x48
20005bfa:	f7ff bb11 	b.w	20005220 <_vfprintf_r+0x7dc>
20005bfe:	462a      	mov	r2, r5
20005c00:	4645      	mov	r5, r8
20005c02:	4690      	mov	r8, r2
20005c04:	605c      	str	r4, [r3, #4]
20005c06:	f8dd 2550 	ldr.w	r2, [sp, #1360]	; 0x550
20005c0a:	f8dd 1554 	ldr.w	r1, [sp, #1364]	; 0x554
20005c0e:	3201      	adds	r2, #1
20005c10:	f8c3 8000 	str.w	r8, [r3]
20005c14:	1909      	adds	r1, r1, r4
20005c16:	2a07      	cmp	r2, #7
20005c18:	f8cd 1554 	str.w	r1, [sp, #1364]	; 0x554
20005c1c:	f8cd 2550 	str.w	r2, [sp, #1360]	; 0x550
20005c20:	f300 82ea 	bgt.w	200061f8 <_vfprintf_r+0x17b4>
20005c24:	3308      	adds	r3, #8
20005c26:	990a      	ldr	r1, [sp, #40]	; 0x28
20005c28:	f011 0f01 	tst.w	r1, #1
20005c2c:	f43f a9d1 	beq.w	20004fd2 <_vfprintf_r+0x58e>
20005c30:	2201      	movs	r2, #1
20005c32:	605a      	str	r2, [r3, #4]
20005c34:	f8dd 2550 	ldr.w	r2, [sp, #1360]	; 0x550
20005c38:	f8dd 1554 	ldr.w	r1, [sp, #1364]	; 0x554
20005c3c:	3201      	adds	r2, #1
20005c3e:	981d      	ldr	r0, [sp, #116]	; 0x74
20005c40:	3101      	adds	r1, #1
20005c42:	2a07      	cmp	r2, #7
20005c44:	f8cd 1554 	str.w	r1, [sp, #1364]	; 0x554
20005c48:	6018      	str	r0, [r3, #0]
20005c4a:	f8cd 2550 	str.w	r2, [sp, #1360]	; 0x550
20005c4e:	f73f ad5b 	bgt.w	20005708 <_vfprintf_r+0xcc4>
20005c52:	3308      	adds	r3, #8
20005c54:	f7ff b9bd 	b.w	20004fd2 <_vfprintf_r+0x58e>
20005c58:	232d      	movs	r3, #45	; 0x2d
20005c5a:	f88d 3577 	strb.w	r3, [sp, #1399]	; 0x577
20005c5e:	f7ff baf2 	b.w	20005246 <_vfprintf_r+0x802>
20005c62:	f50d 62a8 	add.w	r2, sp, #1344	; 0x540
20005c66:	4648      	mov	r0, r9
20005c68:	4631      	mov	r1, r6
20005c6a:	320c      	adds	r2, #12
20005c6c:	f7fe fedc 	bl	20004a28 <__sprint_r>
20005c70:	2800      	cmp	r0, #0
20005c72:	f47f a807 	bne.w	20004c84 <_vfprintf_r+0x240>
20005c76:	f50d 639c 	add.w	r3, sp, #1248	; 0x4e0
20005c7a:	3304      	adds	r3, #4
20005c7c:	e456      	b.n	2000552c <_vfprintf_r+0xae8>
20005c7e:	2301      	movs	r3, #1
20005c80:	6063      	str	r3, [r4, #4]
20005c82:	f8dd 2550 	ldr.w	r2, [sp, #1360]	; 0x550
20005c86:	f64a 4304 	movw	r3, #44036	; 0xac04
20005c8a:	f2c2 0300 	movt	r3, #8192	; 0x2000
20005c8e:	6023      	str	r3, [r4, #0]
20005c90:	f8dd 3554 	ldr.w	r3, [sp, #1364]	; 0x554
20005c94:	3201      	adds	r2, #1
20005c96:	f8cd 2550 	str.w	r2, [sp, #1360]	; 0x550
20005c9a:	3301      	adds	r3, #1
20005c9c:	2a07      	cmp	r2, #7
20005c9e:	f8cd 3554 	str.w	r3, [sp, #1364]	; 0x554
20005ca2:	bfd8      	it	le
20005ca4:	f104 0308 	addle.w	r3, r4, #8
20005ca8:	f300 8187 	bgt.w	20005fba <_vfprintf_r+0x1576>
20005cac:	f8dd 2570 	ldr.w	r2, [sp, #1392]	; 0x570
20005cb0:	b93a      	cbnz	r2, 20005cc2 <_vfprintf_r+0x127e>
20005cb2:	9a1a      	ldr	r2, [sp, #104]	; 0x68
20005cb4:	b92a      	cbnz	r2, 20005cc2 <_vfprintf_r+0x127e>
20005cb6:	f8dd c028 	ldr.w	ip, [sp, #40]	; 0x28
20005cba:	f01c 0f01 	tst.w	ip, #1
20005cbe:	f43f a988 	beq.w	20004fd2 <_vfprintf_r+0x58e>
20005cc2:	2201      	movs	r2, #1
20005cc4:	605a      	str	r2, [r3, #4]
20005cc6:	f8dd 2550 	ldr.w	r2, [sp, #1360]	; 0x550
20005cca:	f8dd 1554 	ldr.w	r1, [sp, #1364]	; 0x554
20005cce:	3201      	adds	r2, #1
20005cd0:	981d      	ldr	r0, [sp, #116]	; 0x74
20005cd2:	3101      	adds	r1, #1
20005cd4:	2a07      	cmp	r2, #7
20005cd6:	f8cd 1554 	str.w	r1, [sp, #1364]	; 0x554
20005cda:	6018      	str	r0, [r3, #0]
20005cdc:	f8cd 2550 	str.w	r2, [sp, #1360]	; 0x550
20005ce0:	f300 8179 	bgt.w	20005fd6 <_vfprintf_r+0x1592>
20005ce4:	3308      	adds	r3, #8
20005ce6:	f8dd 7570 	ldr.w	r7, [sp, #1392]	; 0x570
20005cea:	427f      	negs	r7, r7
20005cec:	2f00      	cmp	r7, #0
20005cee:	f340 81b3 	ble.w	20006058 <_vfprintf_r+0x1614>
20005cf2:	2f10      	cmp	r7, #16
20005cf4:	f8df 8650 	ldr.w	r8, [pc, #1616]	; 20006348 <_vfprintf_r+0x1904>
20005cf8:	f340 81d2 	ble.w	200060a0 <_vfprintf_r+0x165c>
20005cfc:	4642      	mov	r2, r8
20005cfe:	f50d 6aa8 	add.w	sl, sp, #1344	; 0x540
20005d02:	46a8      	mov	r8, r5
20005d04:	2410      	movs	r4, #16
20005d06:	f10a 0a0c 	add.w	sl, sl, #12
20005d0a:	4615      	mov	r5, r2
20005d0c:	e003      	b.n	20005d16 <_vfprintf_r+0x12d2>
20005d0e:	3f10      	subs	r7, #16
20005d10:	2f10      	cmp	r7, #16
20005d12:	f340 81c2 	ble.w	2000609a <_vfprintf_r+0x1656>
20005d16:	605c      	str	r4, [r3, #4]
20005d18:	f8dd 2550 	ldr.w	r2, [sp, #1360]	; 0x550
20005d1c:	f8dd 1554 	ldr.w	r1, [sp, #1364]	; 0x554
20005d20:	3201      	adds	r2, #1
20005d22:	601d      	str	r5, [r3, #0]
20005d24:	3110      	adds	r1, #16
20005d26:	2a07      	cmp	r2, #7
20005d28:	f8cd 1554 	str.w	r1, [sp, #1364]	; 0x554
20005d2c:	f103 0308 	add.w	r3, r3, #8
20005d30:	f8cd 2550 	str.w	r2, [sp, #1360]	; 0x550
20005d34:	ddeb      	ble.n	20005d0e <_vfprintf_r+0x12ca>
20005d36:	4648      	mov	r0, r9
20005d38:	4631      	mov	r1, r6
20005d3a:	4652      	mov	r2, sl
20005d3c:	f7fe fe74 	bl	20004a28 <__sprint_r>
20005d40:	f50d 639c 	add.w	r3, sp, #1248	; 0x4e0
20005d44:	3304      	adds	r3, #4
20005d46:	2800      	cmp	r0, #0
20005d48:	d0e1      	beq.n	20005d0e <_vfprintf_r+0x12ca>
20005d4a:	f7fe bf9b 	b.w	20004c84 <_vfprintf_r+0x240>
20005d4e:	990b      	ldr	r1, [sp, #44]	; 0x2c
20005d50:	1c6b      	adds	r3, r5, #1
20005d52:	9a0a      	ldr	r2, [sp, #40]	; 0x28
20005d54:	f042 0220 	orr.w	r2, r2, #32
20005d58:	920a      	str	r2, [sp, #40]	; 0x28
20005d5a:	786a      	ldrb	r2, [r5, #1]
20005d5c:	910b      	str	r1, [sp, #44]	; 0x2c
20005d5e:	f7fe bf1c 	b.w	20004b9a <_vfprintf_r+0x156>
20005d62:	4650      	mov	r0, sl
20005d64:	4641      	mov	r1, r8
20005d66:	f003 f8bb 	bl	20008ee0 <__isnand>
20005d6a:	2800      	cmp	r0, #0
20005d6c:	f040 80ff 	bne.w	20005f6e <_vfprintf_r+0x152a>
20005d70:	f1b7 3fff 	cmp.w	r7, #4294967295
20005d74:	f000 8251 	beq.w	2000621a <_vfprintf_r+0x17d6>
20005d78:	9816      	ldr	r0, [sp, #88]	; 0x58
20005d7a:	2867      	cmp	r0, #103	; 0x67
20005d7c:	bf14      	ite	ne
20005d7e:	2300      	movne	r3, #0
20005d80:	2301      	moveq	r3, #1
20005d82:	2847      	cmp	r0, #71	; 0x47
20005d84:	bf08      	it	eq
20005d86:	f043 0301 	orreq.w	r3, r3, #1
20005d8a:	b113      	cbz	r3, 20005d92 <_vfprintf_r+0x134e>
20005d8c:	2f00      	cmp	r7, #0
20005d8e:	bf08      	it	eq
20005d90:	2701      	moveq	r7, #1
20005d92:	f50d 60ab 	add.w	r0, sp, #1368	; 0x558
20005d96:	4643      	mov	r3, r8
20005d98:	4652      	mov	r2, sl
20005d9a:	990a      	ldr	r1, [sp, #40]	; 0x28
20005d9c:	e9c0 2300 	strd	r2, r3, [r0]
20005da0:	f8dd 355c 	ldr.w	r3, [sp, #1372]	; 0x55c
20005da4:	f441 7180 	orr.w	r1, r1, #256	; 0x100
20005da8:	910a      	str	r1, [sp, #40]	; 0x28
20005daa:	2b00      	cmp	r3, #0
20005dac:	f2c0 8264 	blt.w	20006278 <_vfprintf_r+0x1834>
20005db0:	2100      	movs	r1, #0
20005db2:	9117      	str	r1, [sp, #92]	; 0x5c
20005db4:	9816      	ldr	r0, [sp, #88]	; 0x58
20005db6:	2866      	cmp	r0, #102	; 0x66
20005db8:	bf14      	ite	ne
20005dba:	2300      	movne	r3, #0
20005dbc:	2301      	moveq	r3, #1
20005dbe:	2846      	cmp	r0, #70	; 0x46
20005dc0:	bf08      	it	eq
20005dc2:	f043 0301 	orreq.w	r3, r3, #1
20005dc6:	9310      	str	r3, [sp, #64]	; 0x40
20005dc8:	2b00      	cmp	r3, #0
20005dca:	f000 81d1 	beq.w	20006170 <_vfprintf_r+0x172c>
20005dce:	46bc      	mov	ip, r7
20005dd0:	2303      	movs	r3, #3
20005dd2:	f8cd a030 	str.w	sl, [sp, #48]	; 0x30
20005dd6:	f50d 61ae 	add.w	r1, sp, #1392	; 0x570
20005dda:	f8cd 8034 	str.w	r8, [sp, #52]	; 0x34
20005dde:	4648      	mov	r0, r9
20005de0:	9300      	str	r3, [sp, #0]
20005de2:	9102      	str	r1, [sp, #8]
20005de4:	f50d 61ac 	add.w	r1, sp, #1376	; 0x560
20005de8:	e9dd 230c 	ldrd	r2, r3, [sp, #48]	; 0x30
20005dec:	310c      	adds	r1, #12
20005dee:	f8cd c004 	str.w	ip, [sp, #4]
20005df2:	9103      	str	r1, [sp, #12]
20005df4:	f50d 61ad 	add.w	r1, sp, #1384	; 0x568
20005df8:	f8cd c024 	str.w	ip, [sp, #36]	; 0x24
20005dfc:	9104      	str	r1, [sp, #16]
20005dfe:	f000 fbc7 	bl	20006590 <_dtoa_r>
20005e02:	9a16      	ldr	r2, [sp, #88]	; 0x58
20005e04:	f8dd c024 	ldr.w	ip, [sp, #36]	; 0x24
20005e08:	f1b2 0367 	subs.w	r3, r2, #103	; 0x67
20005e0c:	bf18      	it	ne
20005e0e:	2301      	movne	r3, #1
20005e10:	2a47      	cmp	r2, #71	; 0x47
20005e12:	bf0c      	ite	eq
20005e14:	2300      	moveq	r3, #0
20005e16:	f003 0301 	andne.w	r3, r3, #1
20005e1a:	9013      	str	r0, [sp, #76]	; 0x4c
20005e1c:	b933      	cbnz	r3, 20005e2c <_vfprintf_r+0x13e8>
20005e1e:	9b0a      	ldr	r3, [sp, #40]	; 0x28
20005e20:	f013 0f01 	tst.w	r3, #1
20005e24:	bf08      	it	eq
20005e26:	f8dd b568 	ldreq.w	fp, [sp, #1384]	; 0x568
20005e2a:	d016      	beq.n	20005e5a <_vfprintf_r+0x1416>
20005e2c:	9813      	ldr	r0, [sp, #76]	; 0x4c
20005e2e:	9910      	ldr	r1, [sp, #64]	; 0x40
20005e30:	eb00 0b0c 	add.w	fp, r0, ip
20005e34:	b131      	cbz	r1, 20005e44 <_vfprintf_r+0x1400>
20005e36:	7803      	ldrb	r3, [r0, #0]
20005e38:	2b30      	cmp	r3, #48	; 0x30
20005e3a:	f000 80da 	beq.w	20005ff2 <_vfprintf_r+0x15ae>
20005e3e:	f8dd 3570 	ldr.w	r3, [sp, #1392]	; 0x570
20005e42:	449b      	add	fp, r3
20005e44:	4650      	mov	r0, sl
20005e46:	2200      	movs	r2, #0
20005e48:	2300      	movs	r3, #0
20005e4a:	4641      	mov	r1, r8
20005e4c:	f004 f81a 	bl	20009e84 <__aeabi_dcmpeq>
20005e50:	2800      	cmp	r0, #0
20005e52:	f000 81c2 	beq.w	200061da <_vfprintf_r+0x1796>
20005e56:	f8cd b568 	str.w	fp, [sp, #1384]	; 0x568
20005e5a:	9a16      	ldr	r2, [sp, #88]	; 0x58
20005e5c:	9813      	ldr	r0, [sp, #76]	; 0x4c
20005e5e:	2a67      	cmp	r2, #103	; 0x67
20005e60:	bf14      	ite	ne
20005e62:	2300      	movne	r3, #0
20005e64:	2301      	moveq	r3, #1
20005e66:	2a47      	cmp	r2, #71	; 0x47
20005e68:	bf08      	it	eq
20005e6a:	f043 0301 	orreq.w	r3, r3, #1
20005e6e:	ebc0 000b 	rsb	r0, r0, fp
20005e72:	901a      	str	r0, [sp, #104]	; 0x68
20005e74:	2b00      	cmp	r3, #0
20005e76:	f000 818a 	beq.w	2000618e <_vfprintf_r+0x174a>
20005e7a:	f8dd 1570 	ldr.w	r1, [sp, #1392]	; 0x570
20005e7e:	f111 0f03 	cmn.w	r1, #3
20005e82:	9110      	str	r1, [sp, #64]	; 0x40
20005e84:	db02      	blt.n	20005e8c <_vfprintf_r+0x1448>
20005e86:	428f      	cmp	r7, r1
20005e88:	f280 818c 	bge.w	200061a4 <_vfprintf_r+0x1760>
20005e8c:	9a16      	ldr	r2, [sp, #88]	; 0x58
20005e8e:	3a02      	subs	r2, #2
20005e90:	9216      	str	r2, [sp, #88]	; 0x58
20005e92:	9910      	ldr	r1, [sp, #64]	; 0x40
20005e94:	9a16      	ldr	r2, [sp, #88]	; 0x58
20005e96:	1e4b      	subs	r3, r1, #1
20005e98:	f8cd 3570 	str.w	r3, [sp, #1392]	; 0x570
20005e9c:	2b00      	cmp	r3, #0
20005e9e:	f88d 2560 	strb.w	r2, [sp, #1376]	; 0x560
20005ea2:	f2c0 8234 	blt.w	2000630e <_vfprintf_r+0x18ca>
20005ea6:	222b      	movs	r2, #43	; 0x2b
20005ea8:	f88d 2561 	strb.w	r2, [sp, #1377]	; 0x561
20005eac:	2b09      	cmp	r3, #9
20005eae:	f300 81b6 	bgt.w	2000621e <_vfprintf_r+0x17da>
20005eb2:	f50d 62ac 	add.w	r2, sp, #1376	; 0x560
20005eb6:	3330      	adds	r3, #48	; 0x30
20005eb8:	3204      	adds	r2, #4
20005eba:	f88d 3563 	strb.w	r3, [sp, #1379]	; 0x563
20005ebe:	2330      	movs	r3, #48	; 0x30
20005ec0:	f88d 3562 	strb.w	r3, [sp, #1378]	; 0x562
20005ec4:	f50d 63ac 	add.w	r3, sp, #1376	; 0x560
20005ec8:	981a      	ldr	r0, [sp, #104]	; 0x68
20005eca:	991a      	ldr	r1, [sp, #104]	; 0x68
20005ecc:	1ad3      	subs	r3, r2, r3
20005ece:	1818      	adds	r0, r3, r0
20005ed0:	931c      	str	r3, [sp, #112]	; 0x70
20005ed2:	2901      	cmp	r1, #1
20005ed4:	9010      	str	r0, [sp, #64]	; 0x40
20005ed6:	f340 8210 	ble.w	200062fa <_vfprintf_r+0x18b6>
20005eda:	9810      	ldr	r0, [sp, #64]	; 0x40
20005edc:	3001      	adds	r0, #1
20005ede:	9010      	str	r0, [sp, #64]	; 0x40
20005ee0:	ea20 71e0 	bic.w	r1, r0, r0, asr #31
20005ee4:	910c      	str	r1, [sp, #48]	; 0x30
20005ee6:	9817      	ldr	r0, [sp, #92]	; 0x5c
20005ee8:	2800      	cmp	r0, #0
20005eea:	f000 816e 	beq.w	200061ca <_vfprintf_r+0x1786>
20005eee:	232d      	movs	r3, #45	; 0x2d
20005ef0:	2100      	movs	r1, #0
20005ef2:	f88d 3577 	strb.w	r3, [sp, #1399]	; 0x577
20005ef6:	9117      	str	r1, [sp, #92]	; 0x5c
20005ef8:	f7fe bf74 	b.w	20004de4 <_vfprintf_r+0x3a0>
20005efc:	9a10      	ldr	r2, [sp, #64]	; 0x40
20005efe:	f04f 0c00 	mov.w	ip, #0
20005f02:	f89d 3577 	ldrb.w	r3, [sp, #1399]	; 0x577
20005f06:	ea22 72e2 	bic.w	r2, r2, r2, asr #31
20005f0a:	f8cd c05c 	str.w	ip, [sp, #92]	; 0x5c
20005f0e:	920c      	str	r2, [sp, #48]	; 0x30
20005f10:	f7fe bf67 	b.w	20004de2 <_vfprintf_r+0x39e>
20005f14:	9a0a      	ldr	r2, [sp, #40]	; 0x28
20005f16:	f012 0f40 	tst.w	r2, #64	; 0x40
20005f1a:	bf17      	itett	ne
20005f1c:	980b      	ldrne	r0, [sp, #44]	; 0x2c
20005f1e:	9a0b      	ldreq	r2, [sp, #44]	; 0x2c
20005f20:	9911      	ldrne	r1, [sp, #68]	; 0x44
20005f22:	f100 0a04 	addne.w	sl, r0, #4
20005f26:	bf11      	iteee	ne
20005f28:	6803      	ldrne	r3, [r0, #0]
20005f2a:	f102 0a04 	addeq.w	sl, r2, #4
20005f2e:	6813      	ldreq	r3, [r2, #0]
20005f30:	9811      	ldreq	r0, [sp, #68]	; 0x44
20005f32:	bf14      	ite	ne
20005f34:	8019      	strhne	r1, [r3, #0]
20005f36:	6018      	streq	r0, [r3, #0]
20005f38:	f7fe bdec 	b.w	20004b14 <_vfprintf_r+0xd0>
20005f3c:	9a0b      	ldr	r2, [sp, #44]	; 0x2c
20005f3e:	1d13      	adds	r3, r2, #4
20005f40:	930b      	str	r3, [sp, #44]	; 0x2c
20005f42:	6811      	ldr	r1, [r2, #0]
20005f44:	2301      	movs	r3, #1
20005f46:	1e0a      	subs	r2, r1, #0
20005f48:	bf18      	it	ne
20005f4a:	2201      	movne	r2, #1
20005f4c:	468a      	mov	sl, r1
20005f4e:	f04f 0b00 	mov.w	fp, #0
20005f52:	f7fe bf09 	b.w	20004d68 <_vfprintf_r+0x324>
20005f56:	980b      	ldr	r0, [sp, #44]	; 0x2c
20005f58:	1d02      	adds	r2, r0, #4
20005f5a:	920b      	str	r2, [sp, #44]	; 0x2c
20005f5c:	6801      	ldr	r1, [r0, #0]
20005f5e:	1e0a      	subs	r2, r1, #0
20005f60:	bf18      	it	ne
20005f62:	2201      	movne	r2, #1
20005f64:	468a      	mov	sl, r1
20005f66:	f04f 0b00 	mov.w	fp, #0
20005f6a:	f7fe befd 	b.w	20004d68 <_vfprintf_r+0x324>
20005f6e:	f64a 32e4 	movw	r2, #44004	; 0xabe4
20005f72:	f64a 33e0 	movw	r3, #44000	; 0xabe0
20005f76:	9916      	ldr	r1, [sp, #88]	; 0x58
20005f78:	f2c2 0300 	movt	r3, #8192	; 0x2000
20005f7c:	f2c2 0200 	movt	r2, #8192	; 0x2000
20005f80:	2003      	movs	r0, #3
20005f82:	2947      	cmp	r1, #71	; 0x47
20005f84:	bfd8      	it	le
20005f86:	461a      	movle	r2, r3
20005f88:	9213      	str	r2, [sp, #76]	; 0x4c
20005f8a:	9a0a      	ldr	r2, [sp, #40]	; 0x28
20005f8c:	900c      	str	r0, [sp, #48]	; 0x30
20005f8e:	f022 0280 	bic.w	r2, r2, #128	; 0x80
20005f92:	f8cd b05c 	str.w	fp, [sp, #92]	; 0x5c
20005f96:	920a      	str	r2, [sp, #40]	; 0x28
20005f98:	f89d 3577 	ldrb.w	r3, [sp, #1399]	; 0x577
20005f9c:	9010      	str	r0, [sp, #64]	; 0x40
20005f9e:	f7fe bf20 	b.w	20004de2 <_vfprintf_r+0x39e>
20005fa2:	f50d 62a8 	add.w	r2, sp, #1344	; 0x540
20005fa6:	4648      	mov	r0, r9
20005fa8:	4631      	mov	r1, r6
20005faa:	320c      	adds	r2, #12
20005fac:	f7fe fd3c 	bl	20004a28 <__sprint_r>
20005fb0:	2800      	cmp	r0, #0
20005fb2:	f47e ae67 	bne.w	20004c84 <_vfprintf_r+0x240>
20005fb6:	f7fe be62 	b.w	20004c7e <_vfprintf_r+0x23a>
20005fba:	f50d 62a8 	add.w	r2, sp, #1344	; 0x540
20005fbe:	4648      	mov	r0, r9
20005fc0:	4631      	mov	r1, r6
20005fc2:	320c      	adds	r2, #12
20005fc4:	f7fe fd30 	bl	20004a28 <__sprint_r>
20005fc8:	2800      	cmp	r0, #0
20005fca:	f47e ae5b 	bne.w	20004c84 <_vfprintf_r+0x240>
20005fce:	f50d 639c 	add.w	r3, sp, #1248	; 0x4e0
20005fd2:	3304      	adds	r3, #4
20005fd4:	e66a      	b.n	20005cac <_vfprintf_r+0x1268>
20005fd6:	f50d 62a8 	add.w	r2, sp, #1344	; 0x540
20005fda:	4648      	mov	r0, r9
20005fdc:	4631      	mov	r1, r6
20005fde:	320c      	adds	r2, #12
20005fe0:	f7fe fd22 	bl	20004a28 <__sprint_r>
20005fe4:	2800      	cmp	r0, #0
20005fe6:	f47e ae4d 	bne.w	20004c84 <_vfprintf_r+0x240>
20005fea:	f50d 639c 	add.w	r3, sp, #1248	; 0x4e0
20005fee:	3304      	adds	r3, #4
20005ff0:	e679      	b.n	20005ce6 <_vfprintf_r+0x12a2>
20005ff2:	4650      	mov	r0, sl
20005ff4:	2200      	movs	r2, #0
20005ff6:	2300      	movs	r3, #0
20005ff8:	4641      	mov	r1, r8
20005ffa:	f8cd c024 	str.w	ip, [sp, #36]	; 0x24
20005ffe:	f003 ff41 	bl	20009e84 <__aeabi_dcmpeq>
20006002:	f8dd c024 	ldr.w	ip, [sp, #36]	; 0x24
20006006:	2800      	cmp	r0, #0
20006008:	f47f af19 	bne.w	20005e3e <_vfprintf_r+0x13fa>
2000600c:	f1cc 0301 	rsb	r3, ip, #1
20006010:	f8cd 3570 	str.w	r3, [sp, #1392]	; 0x570
20006014:	e715      	b.n	20005e42 <_vfprintf_r+0x13fe>
20006016:	9a0f      	ldr	r2, [sp, #60]	; 0x3c
20006018:	4252      	negs	r2, r2
2000601a:	920f      	str	r2, [sp, #60]	; 0x3c
2000601c:	f7ff b887 	b.w	2000512e <_vfprintf_r+0x6ea>
20006020:	f50d 62a8 	add.w	r2, sp, #1344	; 0x540
20006024:	4648      	mov	r0, r9
20006026:	4631      	mov	r1, r6
20006028:	320c      	adds	r2, #12
2000602a:	f7fe fcfd 	bl	20004a28 <__sprint_r>
2000602e:	2800      	cmp	r0, #0
20006030:	f47e ae28 	bne.w	20004c84 <_vfprintf_r+0x240>
20006034:	f50d 639c 	add.w	r3, sp, #1248	; 0x4e0
20006038:	3304      	adds	r3, #4
2000603a:	f7ff ba93 	b.w	20005564 <_vfprintf_r+0xb20>
2000603e:	f50d 62a8 	add.w	r2, sp, #1344	; 0x540
20006042:	4648      	mov	r0, r9
20006044:	4631      	mov	r1, r6
20006046:	320c      	adds	r2, #12
20006048:	f7fe fcee 	bl	20004a28 <__sprint_r>
2000604c:	2800      	cmp	r0, #0
2000604e:	f47e ae19 	bne.w	20004c84 <_vfprintf_r+0x240>
20006052:	f50d 639c 	add.w	r3, sp, #1248	; 0x4e0
20006056:	3304      	adds	r3, #4
20006058:	991a      	ldr	r1, [sp, #104]	; 0x68
2000605a:	9813      	ldr	r0, [sp, #76]	; 0x4c
2000605c:	6059      	str	r1, [r3, #4]
2000605e:	f8dd 2550 	ldr.w	r2, [sp, #1360]	; 0x550
20006062:	f8dd 1554 	ldr.w	r1, [sp, #1364]	; 0x554
20006066:	6018      	str	r0, [r3, #0]
20006068:	3201      	adds	r2, #1
2000606a:	981a      	ldr	r0, [sp, #104]	; 0x68
2000606c:	f8cd 2550 	str.w	r2, [sp, #1360]	; 0x550
20006070:	1809      	adds	r1, r1, r0
20006072:	2a07      	cmp	r2, #7
20006074:	f8cd 1554 	str.w	r1, [sp, #1364]	; 0x554
20006078:	f73f ab46 	bgt.w	20005708 <_vfprintf_r+0xcc4>
2000607c:	3308      	adds	r3, #8
2000607e:	f7fe bfa8 	b.w	20004fd2 <_vfprintf_r+0x58e>
20006082:	2100      	movs	r1, #0
20006084:	9117      	str	r1, [sp, #92]	; 0x5c
20006086:	f003 f86f 	bl	20009168 <strlen>
2000608a:	f89d 3577 	ldrb.w	r3, [sp, #1399]	; 0x577
2000608e:	ea20 72e0 	bic.w	r2, r0, r0, asr #31
20006092:	9010      	str	r0, [sp, #64]	; 0x40
20006094:	920c      	str	r2, [sp, #48]	; 0x30
20006096:	f7fe bea4 	b.w	20004de2 <_vfprintf_r+0x39e>
2000609a:	462a      	mov	r2, r5
2000609c:	4645      	mov	r5, r8
2000609e:	4690      	mov	r8, r2
200060a0:	605f      	str	r7, [r3, #4]
200060a2:	f8dd 2550 	ldr.w	r2, [sp, #1360]	; 0x550
200060a6:	f8dd 1554 	ldr.w	r1, [sp, #1364]	; 0x554
200060aa:	3201      	adds	r2, #1
200060ac:	f8c3 8000 	str.w	r8, [r3]
200060b0:	19c9      	adds	r1, r1, r7
200060b2:	2a07      	cmp	r2, #7
200060b4:	f8cd 1554 	str.w	r1, [sp, #1364]	; 0x554
200060b8:	f8cd 2550 	str.w	r2, [sp, #1360]	; 0x550
200060bc:	dcbf      	bgt.n	2000603e <_vfprintf_r+0x15fa>
200060be:	3308      	adds	r3, #8
200060c0:	e7ca      	b.n	20006058 <_vfprintf_r+0x1614>
200060c2:	9a18      	ldr	r2, [sp, #96]	; 0x60
200060c4:	9913      	ldr	r1, [sp, #76]	; 0x4c
200060c6:	1a51      	subs	r1, r2, r1
200060c8:	9110      	str	r1, [sp, #64]	; 0x40
200060ca:	f7fe be82 	b.w	20004dd2 <_vfprintf_r+0x38e>
200060ce:	4648      	mov	r0, r9
200060d0:	4631      	mov	r1, r6
200060d2:	f000 f949 	bl	20006368 <__swsetup_r>
200060d6:	2800      	cmp	r0, #0
200060d8:	f47e add8 	bne.w	20004c8c <_vfprintf_r+0x248>
200060dc:	f8b6 c00c 	ldrh.w	ip, [r6, #12]
200060e0:	fa1f f38c 	uxth.w	r3, ip
200060e4:	f7fe bcf6 	b.w	20004ad4 <_vfprintf_r+0x90>
200060e8:	2f06      	cmp	r7, #6
200060ea:	bf28      	it	cs
200060ec:	2706      	movcs	r7, #6
200060ee:	f64a 31fc 	movw	r1, #44028	; 0xabfc
200060f2:	f2c2 0100 	movt	r1, #8192	; 0x2000
200060f6:	ea27 72e7 	bic.w	r2, r7, r7, asr #31
200060fa:	9710      	str	r7, [sp, #64]	; 0x40
200060fc:	9113      	str	r1, [sp, #76]	; 0x4c
200060fe:	920c      	str	r2, [sp, #48]	; 0x30
20006100:	f7fe bfe8 	b.w	200050d4 <_vfprintf_r+0x690>
20006104:	f50d 62a8 	add.w	r2, sp, #1344	; 0x540
20006108:	4648      	mov	r0, r9
2000610a:	4631      	mov	r1, r6
2000610c:	320c      	adds	r2, #12
2000610e:	f7fe fc8b 	bl	20004a28 <__sprint_r>
20006112:	2800      	cmp	r0, #0
20006114:	f47e adb6 	bne.w	20004c84 <_vfprintf_r+0x240>
20006118:	f50d 639c 	add.w	r3, sp, #1248	; 0x4e0
2000611c:	3304      	adds	r3, #4
2000611e:	f7ff bbc8 	b.w	200058b2 <_vfprintf_r+0xe6e>
20006122:	f50d 62a8 	add.w	r2, sp, #1344	; 0x540
20006126:	4648      	mov	r0, r9
20006128:	4631      	mov	r1, r6
2000612a:	320c      	adds	r2, #12
2000612c:	f7fe fc7c 	bl	20004a28 <__sprint_r>
20006130:	2800      	cmp	r0, #0
20006132:	f47e ada7 	bne.w	20004c84 <_vfprintf_r+0x240>
20006136:	f50d 639c 	add.w	r3, sp, #1248	; 0x4e0
2000613a:	3304      	adds	r3, #4
2000613c:	f7ff bace 	b.w	200056dc <_vfprintf_r+0xc98>
20006140:	f50d 62a8 	add.w	r2, sp, #1344	; 0x540
20006144:	4648      	mov	r0, r9
20006146:	4631      	mov	r1, r6
20006148:	320c      	adds	r2, #12
2000614a:	f7fe fc6d 	bl	20004a28 <__sprint_r>
2000614e:	2800      	cmp	r0, #0
20006150:	f47e ad98 	bne.w	20004c84 <_vfprintf_r+0x240>
20006154:	f50d 649c 	add.w	r4, sp, #1248	; 0x4e0
20006158:	3404      	adds	r4, #4
2000615a:	f7ff baa9 	b.w	200056b0 <_vfprintf_r+0xc6c>
2000615e:	9710      	str	r7, [sp, #64]	; 0x40
20006160:	ea27 77e7 	bic.w	r7, r7, r7, asr #31
20006164:	9017      	str	r0, [sp, #92]	; 0x5c
20006166:	970c      	str	r7, [sp, #48]	; 0x30
20006168:	f89d 3577 	ldrb.w	r3, [sp, #1399]	; 0x577
2000616c:	f7fe be39 	b.w	20004de2 <_vfprintf_r+0x39e>
20006170:	9916      	ldr	r1, [sp, #88]	; 0x58
20006172:	2965      	cmp	r1, #101	; 0x65
20006174:	bf14      	ite	ne
20006176:	2300      	movne	r3, #0
20006178:	2301      	moveq	r3, #1
2000617a:	2945      	cmp	r1, #69	; 0x45
2000617c:	bf08      	it	eq
2000617e:	f043 0301 	orreq.w	r3, r3, #1
20006182:	2b00      	cmp	r3, #0
20006184:	d046      	beq.n	20006214 <_vfprintf_r+0x17d0>
20006186:	f107 0c01 	add.w	ip, r7, #1
2000618a:	2302      	movs	r3, #2
2000618c:	e621      	b.n	20005dd2 <_vfprintf_r+0x138e>
2000618e:	9b16      	ldr	r3, [sp, #88]	; 0x58
20006190:	2b65      	cmp	r3, #101	; 0x65
20006192:	dd76      	ble.n	20006282 <_vfprintf_r+0x183e>
20006194:	9a16      	ldr	r2, [sp, #88]	; 0x58
20006196:	2a66      	cmp	r2, #102	; 0x66
20006198:	bf1c      	itt	ne
2000619a:	f8dd 3570 	ldrne.w	r3, [sp, #1392]	; 0x570
2000619e:	9310      	strne	r3, [sp, #64]	; 0x40
200061a0:	f000 8083 	beq.w	200062aa <_vfprintf_r+0x1866>
200061a4:	9b1a      	ldr	r3, [sp, #104]	; 0x68
200061a6:	9810      	ldr	r0, [sp, #64]	; 0x40
200061a8:	4283      	cmp	r3, r0
200061aa:	dc6e      	bgt.n	2000628a <_vfprintf_r+0x1846>
200061ac:	990a      	ldr	r1, [sp, #40]	; 0x28
200061ae:	f011 0f01 	tst.w	r1, #1
200061b2:	f040 808e 	bne.w	200062d2 <_vfprintf_r+0x188e>
200061b6:	ea20 72e0 	bic.w	r2, r0, r0, asr #31
200061ba:	2367      	movs	r3, #103	; 0x67
200061bc:	920c      	str	r2, [sp, #48]	; 0x30
200061be:	9316      	str	r3, [sp, #88]	; 0x58
200061c0:	e691      	b.n	20005ee6 <_vfprintf_r+0x14a2>
200061c2:	2700      	movs	r7, #0
200061c4:	461d      	mov	r5, r3
200061c6:	f7fe bce9 	b.w	20004b9c <_vfprintf_r+0x158>
200061ca:	9910      	ldr	r1, [sp, #64]	; 0x40
200061cc:	f89d 3577 	ldrb.w	r3, [sp, #1399]	; 0x577
200061d0:	ea21 71e1 	bic.w	r1, r1, r1, asr #31
200061d4:	910c      	str	r1, [sp, #48]	; 0x30
200061d6:	f7fe be04 	b.w	20004de2 <_vfprintf_r+0x39e>
200061da:	f8dd 3568 	ldr.w	r3, [sp, #1384]	; 0x568
200061de:	459b      	cmp	fp, r3
200061e0:	bf98      	it	ls
200061e2:	469b      	movls	fp, r3
200061e4:	f67f ae39 	bls.w	20005e5a <_vfprintf_r+0x1416>
200061e8:	2230      	movs	r2, #48	; 0x30
200061ea:	f803 2b01 	strb.w	r2, [r3], #1
200061ee:	459b      	cmp	fp, r3
200061f0:	f8cd 3568 	str.w	r3, [sp, #1384]	; 0x568
200061f4:	d8f9      	bhi.n	200061ea <_vfprintf_r+0x17a6>
200061f6:	e630      	b.n	20005e5a <_vfprintf_r+0x1416>
200061f8:	f50d 62a8 	add.w	r2, sp, #1344	; 0x540
200061fc:	4648      	mov	r0, r9
200061fe:	4631      	mov	r1, r6
20006200:	320c      	adds	r2, #12
20006202:	f7fe fc11 	bl	20004a28 <__sprint_r>
20006206:	2800      	cmp	r0, #0
20006208:	f47e ad3c 	bne.w	20004c84 <_vfprintf_r+0x240>
2000620c:	f50d 639c 	add.w	r3, sp, #1248	; 0x4e0
20006210:	3304      	adds	r3, #4
20006212:	e508      	b.n	20005c26 <_vfprintf_r+0x11e2>
20006214:	46bc      	mov	ip, r7
20006216:	3302      	adds	r3, #2
20006218:	e5db      	b.n	20005dd2 <_vfprintf_r+0x138e>
2000621a:	3707      	adds	r7, #7
2000621c:	e5b9      	b.n	20005d92 <_vfprintf_r+0x134e>
2000621e:	f246 6c67 	movw	ip, #26215	; 0x6667
20006222:	f50d 6190 	add.w	r1, sp, #1152	; 0x480
20006226:	3103      	adds	r1, #3
20006228:	f2c6 6c66 	movt	ip, #26214	; 0x6666
2000622c:	fb8c 2003 	smull	r2, r0, ip, r3
20006230:	17da      	asrs	r2, r3, #31
20006232:	ebc2 02a0 	rsb	r2, r2, r0, asr #2
20006236:	eb02 0082 	add.w	r0, r2, r2, lsl #2
2000623a:	eba3 0040 	sub.w	r0, r3, r0, lsl #1
2000623e:	4613      	mov	r3, r2
20006240:	3030      	adds	r0, #48	; 0x30
20006242:	2a09      	cmp	r2, #9
20006244:	f801 0d01 	strb.w	r0, [r1, #-1]!
20006248:	dcf0      	bgt.n	2000622c <_vfprintf_r+0x17e8>
2000624a:	3330      	adds	r3, #48	; 0x30
2000624c:	1e48      	subs	r0, r1, #1
2000624e:	b2da      	uxtb	r2, r3
20006250:	f801 2c01 	strb.w	r2, [r1, #-1]
20006254:	9b07      	ldr	r3, [sp, #28]
20006256:	4283      	cmp	r3, r0
20006258:	d96a      	bls.n	20006330 <_vfprintf_r+0x18ec>
2000625a:	f50d 63ac 	add.w	r3, sp, #1376	; 0x560
2000625e:	3303      	adds	r3, #3
20006260:	e001      	b.n	20006266 <_vfprintf_r+0x1822>
20006262:	f811 2b01 	ldrb.w	r2, [r1], #1
20006266:	f803 2c01 	strb.w	r2, [r3, #-1]
2000626a:	461a      	mov	r2, r3
2000626c:	f8dd c01c 	ldr.w	ip, [sp, #28]
20006270:	3301      	adds	r3, #1
20006272:	458c      	cmp	ip, r1
20006274:	d8f5      	bhi.n	20006262 <_vfprintf_r+0x181e>
20006276:	e625      	b.n	20005ec4 <_vfprintf_r+0x1480>
20006278:	222d      	movs	r2, #45	; 0x2d
2000627a:	f108 4800 	add.w	r8, r8, #2147483648	; 0x80000000
2000627e:	9217      	str	r2, [sp, #92]	; 0x5c
20006280:	e598      	b.n	20005db4 <_vfprintf_r+0x1370>
20006282:	f8dd 0570 	ldr.w	r0, [sp, #1392]	; 0x570
20006286:	9010      	str	r0, [sp, #64]	; 0x40
20006288:	e603      	b.n	20005e92 <_vfprintf_r+0x144e>
2000628a:	9b10      	ldr	r3, [sp, #64]	; 0x40
2000628c:	991a      	ldr	r1, [sp, #104]	; 0x68
2000628e:	2b00      	cmp	r3, #0
20006290:	bfda      	itte	le
20006292:	9810      	ldrle	r0, [sp, #64]	; 0x40
20006294:	f1c0 0302 	rsble	r3, r0, #2
20006298:	2301      	movgt	r3, #1
2000629a:	185b      	adds	r3, r3, r1
2000629c:	2267      	movs	r2, #103	; 0x67
2000629e:	9310      	str	r3, [sp, #64]	; 0x40
200062a0:	ea23 73e3 	bic.w	r3, r3, r3, asr #31
200062a4:	9216      	str	r2, [sp, #88]	; 0x58
200062a6:	930c      	str	r3, [sp, #48]	; 0x30
200062a8:	e61d      	b.n	20005ee6 <_vfprintf_r+0x14a2>
200062aa:	f8dd 0570 	ldr.w	r0, [sp, #1392]	; 0x570
200062ae:	2800      	cmp	r0, #0
200062b0:	9010      	str	r0, [sp, #64]	; 0x40
200062b2:	dd31      	ble.n	20006318 <_vfprintf_r+0x18d4>
200062b4:	b91f      	cbnz	r7, 200062be <_vfprintf_r+0x187a>
200062b6:	990a      	ldr	r1, [sp, #40]	; 0x28
200062b8:	f011 0f01 	tst.w	r1, #1
200062bc:	d00e      	beq.n	200062dc <_vfprintf_r+0x1898>
200062be:	9810      	ldr	r0, [sp, #64]	; 0x40
200062c0:	2166      	movs	r1, #102	; 0x66
200062c2:	9116      	str	r1, [sp, #88]	; 0x58
200062c4:	1c43      	adds	r3, r0, #1
200062c6:	19db      	adds	r3, r3, r7
200062c8:	9310      	str	r3, [sp, #64]	; 0x40
200062ca:	ea23 72e3 	bic.w	r2, r3, r3, asr #31
200062ce:	920c      	str	r2, [sp, #48]	; 0x30
200062d0:	e609      	b.n	20005ee6 <_vfprintf_r+0x14a2>
200062d2:	9810      	ldr	r0, [sp, #64]	; 0x40
200062d4:	2167      	movs	r1, #103	; 0x67
200062d6:	9116      	str	r1, [sp, #88]	; 0x58
200062d8:	3001      	adds	r0, #1
200062da:	9010      	str	r0, [sp, #64]	; 0x40
200062dc:	ea20 72e0 	bic.w	r2, r0, r0, asr #31
200062e0:	920c      	str	r2, [sp, #48]	; 0x30
200062e2:	e600      	b.n	20005ee6 <_vfprintf_r+0x14a2>
200062e4:	990b      	ldr	r1, [sp, #44]	; 0x2c
200062e6:	781a      	ldrb	r2, [r3, #0]
200062e8:	680f      	ldr	r7, [r1, #0]
200062ea:	3104      	adds	r1, #4
200062ec:	910b      	str	r1, [sp, #44]	; 0x2c
200062ee:	2f00      	cmp	r7, #0
200062f0:	bfb8      	it	lt
200062f2:	f04f 37ff 	movlt.w	r7, #4294967295
200062f6:	f7fe bc50 	b.w	20004b9a <_vfprintf_r+0x156>
200062fa:	9a0a      	ldr	r2, [sp, #40]	; 0x28
200062fc:	f012 0f01 	tst.w	r2, #1
20006300:	bf04      	itt	eq
20006302:	ea20 73e0 	biceq.w	r3, r0, r0, asr #31
20006306:	930c      	streq	r3, [sp, #48]	; 0x30
20006308:	f43f aded 	beq.w	20005ee6 <_vfprintf_r+0x14a2>
2000630c:	e5e5      	b.n	20005eda <_vfprintf_r+0x1496>
2000630e:	222d      	movs	r2, #45	; 0x2d
20006310:	425b      	negs	r3, r3
20006312:	f88d 2561 	strb.w	r2, [sp, #1377]	; 0x561
20006316:	e5c9      	b.n	20005eac <_vfprintf_r+0x1468>
20006318:	b977      	cbnz	r7, 20006338 <_vfprintf_r+0x18f4>
2000631a:	9b0a      	ldr	r3, [sp, #40]	; 0x28
2000631c:	f013 0f01 	tst.w	r3, #1
20006320:	d10a      	bne.n	20006338 <_vfprintf_r+0x18f4>
20006322:	f04f 0c01 	mov.w	ip, #1
20006326:	f8cd c030 	str.w	ip, [sp, #48]	; 0x30
2000632a:	f8cd c040 	str.w	ip, [sp, #64]	; 0x40
2000632e:	e5da      	b.n	20005ee6 <_vfprintf_r+0x14a2>
20006330:	f50d 62ac 	add.w	r2, sp, #1376	; 0x560
20006334:	3202      	adds	r2, #2
20006336:	e5c5      	b.n	20005ec4 <_vfprintf_r+0x1480>
20006338:	3702      	adds	r7, #2
2000633a:	2166      	movs	r1, #102	; 0x66
2000633c:	ea27 72e7 	bic.w	r2, r7, r7, asr #31
20006340:	9710      	str	r7, [sp, #64]	; 0x40
20006342:	9116      	str	r1, [sp, #88]	; 0x58
20006344:	920c      	str	r2, [sp, #48]	; 0x30
20006346:	e5ce      	b.n	20005ee6 <_vfprintf_r+0x14a2>
20006348:	2000abb4 	.word	0x2000abb4

2000634c <vfprintf>:
2000634c:	b410      	push	{r4}
2000634e:	f64a 642c 	movw	r4, #44588	; 0xae2c
20006352:	f2c2 0400 	movt	r4, #8192	; 0x2000
20006356:	468c      	mov	ip, r1
20006358:	4613      	mov	r3, r2
2000635a:	4601      	mov	r1, r0
2000635c:	4662      	mov	r2, ip
2000635e:	6820      	ldr	r0, [r4, #0]
20006360:	bc10      	pop	{r4}
20006362:	f7fe bb6f 	b.w	20004a44 <_vfprintf_r>
20006366:	bf00      	nop

20006368 <__swsetup_r>:
20006368:	b570      	push	{r4, r5, r6, lr}
2000636a:	f64a 652c 	movw	r5, #44588	; 0xae2c
2000636e:	f2c2 0500 	movt	r5, #8192	; 0x2000
20006372:	4606      	mov	r6, r0
20006374:	460c      	mov	r4, r1
20006376:	6828      	ldr	r0, [r5, #0]
20006378:	b110      	cbz	r0, 20006380 <__swsetup_r+0x18>
2000637a:	6983      	ldr	r3, [r0, #24]
2000637c:	2b00      	cmp	r3, #0
2000637e:	d036      	beq.n	200063ee <__swsetup_r+0x86>
20006380:	f64a 4318 	movw	r3, #44056	; 0xac18
20006384:	f2c2 0300 	movt	r3, #8192	; 0x2000
20006388:	429c      	cmp	r4, r3
2000638a:	d038      	beq.n	200063fe <__swsetup_r+0x96>
2000638c:	f64a 4338 	movw	r3, #44088	; 0xac38
20006390:	f2c2 0300 	movt	r3, #8192	; 0x2000
20006394:	429c      	cmp	r4, r3
20006396:	d041      	beq.n	2000641c <__swsetup_r+0xb4>
20006398:	f64a 4358 	movw	r3, #44120	; 0xac58
2000639c:	f2c2 0300 	movt	r3, #8192	; 0x2000
200063a0:	429c      	cmp	r4, r3
200063a2:	bf04      	itt	eq
200063a4:	682b      	ldreq	r3, [r5, #0]
200063a6:	68dc      	ldreq	r4, [r3, #12]
200063a8:	89a2      	ldrh	r2, [r4, #12]
200063aa:	4611      	mov	r1, r2
200063ac:	b293      	uxth	r3, r2
200063ae:	f013 0f08 	tst.w	r3, #8
200063b2:	4618      	mov	r0, r3
200063b4:	bf18      	it	ne
200063b6:	6922      	ldrne	r2, [r4, #16]
200063b8:	d033      	beq.n	20006422 <__swsetup_r+0xba>
200063ba:	b31a      	cbz	r2, 20006404 <__swsetup_r+0x9c>
200063bc:	f013 0101 	ands.w	r1, r3, #1
200063c0:	d007      	beq.n	200063d2 <__swsetup_r+0x6a>
200063c2:	6963      	ldr	r3, [r4, #20]
200063c4:	2100      	movs	r1, #0
200063c6:	60a1      	str	r1, [r4, #8]
200063c8:	425b      	negs	r3, r3
200063ca:	61a3      	str	r3, [r4, #24]
200063cc:	b142      	cbz	r2, 200063e0 <__swsetup_r+0x78>
200063ce:	2000      	movs	r0, #0
200063d0:	bd70      	pop	{r4, r5, r6, pc}
200063d2:	f013 0f02 	tst.w	r3, #2
200063d6:	bf08      	it	eq
200063d8:	6961      	ldreq	r1, [r4, #20]
200063da:	60a1      	str	r1, [r4, #8]
200063dc:	2a00      	cmp	r2, #0
200063de:	d1f6      	bne.n	200063ce <__swsetup_r+0x66>
200063e0:	89a3      	ldrh	r3, [r4, #12]
200063e2:	f013 0f80 	tst.w	r3, #128	; 0x80
200063e6:	d0f2      	beq.n	200063ce <__swsetup_r+0x66>
200063e8:	f04f 30ff 	mov.w	r0, #4294967295
200063ec:	bd70      	pop	{r4, r5, r6, pc}
200063ee:	f001 f98b 	bl	20007708 <__sinit>
200063f2:	f64a 4318 	movw	r3, #44056	; 0xac18
200063f6:	f2c2 0300 	movt	r3, #8192	; 0x2000
200063fa:	429c      	cmp	r4, r3
200063fc:	d1c6      	bne.n	2000638c <__swsetup_r+0x24>
200063fe:	682b      	ldr	r3, [r5, #0]
20006400:	685c      	ldr	r4, [r3, #4]
20006402:	e7d1      	b.n	200063a8 <__swsetup_r+0x40>
20006404:	f403 7120 	and.w	r1, r3, #640	; 0x280
20006408:	f5b1 7f00 	cmp.w	r1, #512	; 0x200
2000640c:	d0d6      	beq.n	200063bc <__swsetup_r+0x54>
2000640e:	4630      	mov	r0, r6
20006410:	4621      	mov	r1, r4
20006412:	f001 fd01 	bl	20007e18 <__smakebuf_r>
20006416:	89a3      	ldrh	r3, [r4, #12]
20006418:	6922      	ldr	r2, [r4, #16]
2000641a:	e7cf      	b.n	200063bc <__swsetup_r+0x54>
2000641c:	682b      	ldr	r3, [r5, #0]
2000641e:	689c      	ldr	r4, [r3, #8]
20006420:	e7c2      	b.n	200063a8 <__swsetup_r+0x40>
20006422:	f013 0f10 	tst.w	r3, #16
20006426:	d0df      	beq.n	200063e8 <__swsetup_r+0x80>
20006428:	f013 0f04 	tst.w	r3, #4
2000642c:	bf08      	it	eq
2000642e:	6922      	ldreq	r2, [r4, #16]
20006430:	d017      	beq.n	20006462 <__swsetup_r+0xfa>
20006432:	6b61      	ldr	r1, [r4, #52]	; 0x34
20006434:	b151      	cbz	r1, 2000644c <__swsetup_r+0xe4>
20006436:	f104 0344 	add.w	r3, r4, #68	; 0x44
2000643a:	4299      	cmp	r1, r3
2000643c:	d003      	beq.n	20006446 <__swsetup_r+0xde>
2000643e:	4630      	mov	r0, r6
20006440:	f001 f9e6 	bl	20007810 <_free_r>
20006444:	89a2      	ldrh	r2, [r4, #12]
20006446:	b290      	uxth	r0, r2
20006448:	2300      	movs	r3, #0
2000644a:	6363      	str	r3, [r4, #52]	; 0x34
2000644c:	6922      	ldr	r2, [r4, #16]
2000644e:	f64f 71db 	movw	r1, #65499	; 0xffdb
20006452:	f2c0 0100 	movt	r1, #0
20006456:	2300      	movs	r3, #0
20006458:	ea00 0101 	and.w	r1, r0, r1
2000645c:	6063      	str	r3, [r4, #4]
2000645e:	81a1      	strh	r1, [r4, #12]
20006460:	6022      	str	r2, [r4, #0]
20006462:	f041 0308 	orr.w	r3, r1, #8
20006466:	81a3      	strh	r3, [r4, #12]
20006468:	b29b      	uxth	r3, r3
2000646a:	e7a6      	b.n	200063ba <__swsetup_r+0x52>
2000646c:	0000      	lsls	r0, r0, #0
	...

20006470 <quorem>:
20006470:	e92d 4ff8 	stmdb	sp!, {r3, r4, r5, r6, r7, r8, r9, sl, fp, lr}
20006474:	6903      	ldr	r3, [r0, #16]
20006476:	690e      	ldr	r6, [r1, #16]
20006478:	4682      	mov	sl, r0
2000647a:	4689      	mov	r9, r1
2000647c:	429e      	cmp	r6, r3
2000647e:	f300 8083 	bgt.w	20006588 <quorem+0x118>
20006482:	1cf2      	adds	r2, r6, #3
20006484:	f101 0514 	add.w	r5, r1, #20
20006488:	f100 0414 	add.w	r4, r0, #20
2000648c:	3e01      	subs	r6, #1
2000648e:	0092      	lsls	r2, r2, #2
20006490:	188b      	adds	r3, r1, r2
20006492:	1812      	adds	r2, r2, r0
20006494:	f103 0804 	add.w	r8, r3, #4
20006498:	6859      	ldr	r1, [r3, #4]
2000649a:	6850      	ldr	r0, [r2, #4]
2000649c:	3101      	adds	r1, #1
2000649e:	f002 ff93 	bl	200093c8 <__aeabi_uidiv>
200064a2:	4607      	mov	r7, r0
200064a4:	2800      	cmp	r0, #0
200064a6:	d039      	beq.n	2000651c <quorem+0xac>
200064a8:	2300      	movs	r3, #0
200064aa:	469c      	mov	ip, r3
200064ac:	461a      	mov	r2, r3
200064ae:	58e9      	ldr	r1, [r5, r3]
200064b0:	58e0      	ldr	r0, [r4, r3]
200064b2:	fa1f fe81 	uxth.w	lr, r1
200064b6:	ea4f 4b11 	mov.w	fp, r1, lsr #16
200064ba:	b281      	uxth	r1, r0
200064bc:	fb0e ce07 	mla	lr, lr, r7, ip
200064c0:	1851      	adds	r1, r2, r1
200064c2:	fb0b fc07 	mul.w	ip, fp, r7
200064c6:	eb0c 4c1e 	add.w	ip, ip, lr, lsr #16
200064ca:	fa1f fe8e 	uxth.w	lr, lr
200064ce:	ebce 0101 	rsb	r1, lr, r1
200064d2:	fa1f f28c 	uxth.w	r2, ip
200064d6:	ea4f 4c1c 	mov.w	ip, ip, lsr #16
200064da:	ebc2 4210 	rsb	r2, r2, r0, lsr #16
200064de:	fa1f fe81 	uxth.w	lr, r1
200064e2:	eb02 4221 	add.w	r2, r2, r1, asr #16
200064e6:	ea4e 4102 	orr.w	r1, lr, r2, lsl #16
200064ea:	50e1      	str	r1, [r4, r3]
200064ec:	3304      	adds	r3, #4
200064ee:	1412      	asrs	r2, r2, #16
200064f0:	1959      	adds	r1, r3, r5
200064f2:	4588      	cmp	r8, r1
200064f4:	d2db      	bcs.n	200064ae <quorem+0x3e>
200064f6:	1d32      	adds	r2, r6, #4
200064f8:	eb0a 0382 	add.w	r3, sl, r2, lsl #2
200064fc:	6859      	ldr	r1, [r3, #4]
200064fe:	b969      	cbnz	r1, 2000651c <quorem+0xac>
20006500:	429c      	cmp	r4, r3
20006502:	d209      	bcs.n	20006518 <quorem+0xa8>
20006504:	f85a 2022 	ldr.w	r2, [sl, r2, lsl #2]
20006508:	b112      	cbz	r2, 20006510 <quorem+0xa0>
2000650a:	e005      	b.n	20006518 <quorem+0xa8>
2000650c:	681a      	ldr	r2, [r3, #0]
2000650e:	b91a      	cbnz	r2, 20006518 <quorem+0xa8>
20006510:	3b04      	subs	r3, #4
20006512:	3e01      	subs	r6, #1
20006514:	429c      	cmp	r4, r3
20006516:	d3f9      	bcc.n	2000650c <quorem+0x9c>
20006518:	f8ca 6010 	str.w	r6, [sl, #16]
2000651c:	4649      	mov	r1, r9
2000651e:	4650      	mov	r0, sl
20006520:	f001 fe98 	bl	20008254 <__mcmp>
20006524:	2800      	cmp	r0, #0
20006526:	db2c      	blt.n	20006582 <quorem+0x112>
20006528:	2300      	movs	r3, #0
2000652a:	3701      	adds	r7, #1
2000652c:	469c      	mov	ip, r3
2000652e:	58ea      	ldr	r2, [r5, r3]
20006530:	58e0      	ldr	r0, [r4, r3]
20006532:	b291      	uxth	r1, r2
20006534:	0c12      	lsrs	r2, r2, #16
20006536:	fa1f f980 	uxth.w	r9, r0
2000653a:	ebc2 4210 	rsb	r2, r2, r0, lsr #16
2000653e:	ebc1 0109 	rsb	r1, r1, r9
20006542:	4461      	add	r1, ip
20006544:	eb02 4221 	add.w	r2, r2, r1, asr #16
20006548:	b289      	uxth	r1, r1
2000654a:	ea41 4102 	orr.w	r1, r1, r2, lsl #16
2000654e:	50e1      	str	r1, [r4, r3]
20006550:	3304      	adds	r3, #4
20006552:	ea4f 4c22 	mov.w	ip, r2, asr #16
20006556:	195a      	adds	r2, r3, r5
20006558:	4590      	cmp	r8, r2
2000655a:	d2e8      	bcs.n	2000652e <quorem+0xbe>
2000655c:	1d32      	adds	r2, r6, #4
2000655e:	eb0a 0382 	add.w	r3, sl, r2, lsl #2
20006562:	6859      	ldr	r1, [r3, #4]
20006564:	b969      	cbnz	r1, 20006582 <quorem+0x112>
20006566:	429c      	cmp	r4, r3
20006568:	d209      	bcs.n	2000657e <quorem+0x10e>
2000656a:	f85a 2022 	ldr.w	r2, [sl, r2, lsl #2]
2000656e:	b112      	cbz	r2, 20006576 <quorem+0x106>
20006570:	e005      	b.n	2000657e <quorem+0x10e>
20006572:	681a      	ldr	r2, [r3, #0]
20006574:	b91a      	cbnz	r2, 2000657e <quorem+0x10e>
20006576:	3b04      	subs	r3, #4
20006578:	3e01      	subs	r6, #1
2000657a:	429c      	cmp	r4, r3
2000657c:	d3f9      	bcc.n	20006572 <quorem+0x102>
2000657e:	f8ca 6010 	str.w	r6, [sl, #16]
20006582:	4638      	mov	r0, r7
20006584:	e8bd 8ff8 	ldmia.w	sp!, {r3, r4, r5, r6, r7, r8, r9, sl, fp, pc}
20006588:	2000      	movs	r0, #0
2000658a:	e8bd 8ff8 	ldmia.w	sp!, {r3, r4, r5, r6, r7, r8, r9, sl, fp, pc}
2000658e:	bf00      	nop

20006590 <_dtoa_r>:
20006590:	e92d 4ff0 	stmdb	sp!, {r4, r5, r6, r7, r8, r9, sl, fp, lr}
20006594:	6a46      	ldr	r6, [r0, #36]	; 0x24
20006596:	b0a1      	sub	sp, #132	; 0x84
20006598:	4604      	mov	r4, r0
2000659a:	4690      	mov	r8, r2
2000659c:	4699      	mov	r9, r3
2000659e:	9d2d      	ldr	r5, [sp, #180]	; 0xb4
200065a0:	2e00      	cmp	r6, #0
200065a2:	f000 8423 	beq.w	20006dec <_dtoa_r+0x85c>
200065a6:	6832      	ldr	r2, [r6, #0]
200065a8:	b182      	cbz	r2, 200065cc <_dtoa_r+0x3c>
200065aa:	6a61      	ldr	r1, [r4, #36]	; 0x24
200065ac:	f04f 0c01 	mov.w	ip, #1
200065b0:	6876      	ldr	r6, [r6, #4]
200065b2:	4620      	mov	r0, r4
200065b4:	680b      	ldr	r3, [r1, #0]
200065b6:	6056      	str	r6, [r2, #4]
200065b8:	684a      	ldr	r2, [r1, #4]
200065ba:	4619      	mov	r1, r3
200065bc:	fa0c f202 	lsl.w	r2, ip, r2
200065c0:	609a      	str	r2, [r3, #8]
200065c2:	f001 ff81 	bl	200084c8 <_Bfree>
200065c6:	6a63      	ldr	r3, [r4, #36]	; 0x24
200065c8:	2200      	movs	r2, #0
200065ca:	601a      	str	r2, [r3, #0]
200065cc:	f1b9 0600 	subs.w	r6, r9, #0
200065d0:	db38      	blt.n	20006644 <_dtoa_r+0xb4>
200065d2:	2300      	movs	r3, #0
200065d4:	602b      	str	r3, [r5, #0]
200065d6:	f240 0300 	movw	r3, #0
200065da:	f6c7 73f0 	movt	r3, #32752	; 0x7ff0
200065de:	461a      	mov	r2, r3
200065e0:	ea06 0303 	and.w	r3, r6, r3
200065e4:	4293      	cmp	r3, r2
200065e6:	d017      	beq.n	20006618 <_dtoa_r+0x88>
200065e8:	2200      	movs	r2, #0
200065ea:	2300      	movs	r3, #0
200065ec:	4640      	mov	r0, r8
200065ee:	4649      	mov	r1, r9
200065f0:	e9cd 8906 	strd	r8, r9, [sp, #24]
200065f4:	f003 fc46 	bl	20009e84 <__aeabi_dcmpeq>
200065f8:	2800      	cmp	r0, #0
200065fa:	d029      	beq.n	20006650 <_dtoa_r+0xc0>
200065fc:	982c      	ldr	r0, [sp, #176]	; 0xb0
200065fe:	2301      	movs	r3, #1
20006600:	992e      	ldr	r1, [sp, #184]	; 0xb8
20006602:	6003      	str	r3, [r0, #0]
20006604:	2900      	cmp	r1, #0
20006606:	f000 80d0 	beq.w	200067aa <_dtoa_r+0x21a>
2000660a:	4b79      	ldr	r3, [pc, #484]	; (200067f0 <_dtoa_r+0x260>)
2000660c:	1e58      	subs	r0, r3, #1
2000660e:	9a2e      	ldr	r2, [sp, #184]	; 0xb8
20006610:	6013      	str	r3, [r2, #0]
20006612:	b021      	add	sp, #132	; 0x84
20006614:	e8bd 8ff0 	ldmia.w	sp!, {r4, r5, r6, r7, r8, r9, sl, fp, pc}
20006618:	982c      	ldr	r0, [sp, #176]	; 0xb0
2000661a:	f242 730f 	movw	r3, #9999	; 0x270f
2000661e:	6003      	str	r3, [r0, #0]
20006620:	f1b8 0f00 	cmp.w	r8, #0
20006624:	f000 8095 	beq.w	20006752 <_dtoa_r+0x1c2>
20006628:	f64a 4014 	movw	r0, #44052	; 0xac14
2000662c:	f2c2 0000 	movt	r0, #8192	; 0x2000
20006630:	992e      	ldr	r1, [sp, #184]	; 0xb8
20006632:	2900      	cmp	r1, #0
20006634:	d0ed      	beq.n	20006612 <_dtoa_r+0x82>
20006636:	78c2      	ldrb	r2, [r0, #3]
20006638:	1cc3      	adds	r3, r0, #3
2000663a:	2a00      	cmp	r2, #0
2000663c:	d0e7      	beq.n	2000660e <_dtoa_r+0x7e>
2000663e:	f100 0308 	add.w	r3, r0, #8
20006642:	e7e4      	b.n	2000660e <_dtoa_r+0x7e>
20006644:	f026 4600 	bic.w	r6, r6, #2147483648	; 0x80000000
20006648:	2301      	movs	r3, #1
2000664a:	46b1      	mov	r9, r6
2000664c:	602b      	str	r3, [r5, #0]
2000664e:	e7c2      	b.n	200065d6 <_dtoa_r+0x46>
20006650:	4620      	mov	r0, r4
20006652:	e9dd 2306 	ldrd	r2, r3, [sp, #24]
20006656:	a91e      	add	r1, sp, #120	; 0x78
20006658:	9100      	str	r1, [sp, #0]
2000665a:	a91f      	add	r1, sp, #124	; 0x7c
2000665c:	9101      	str	r1, [sp, #4]
2000665e:	f001 ff85 	bl	2000856c <__d2b>
20006662:	f3c6 550a 	ubfx	r5, r6, #20, #11
20006666:	4683      	mov	fp, r0
20006668:	2d00      	cmp	r5, #0
2000666a:	d07e      	beq.n	2000676a <_dtoa_r+0x1da>
2000666c:	e9dd 0106 	ldrd	r0, r1, [sp, #24]
20006670:	f5a5 757e 	sub.w	r5, r5, #1016	; 0x3f8
20006674:	9f1f      	ldr	r7, [sp, #124]	; 0x7c
20006676:	3d07      	subs	r5, #7
20006678:	f021 437f 	bic.w	r3, r1, #4278190080	; 0xff000000
2000667c:	f423 0370 	bic.w	r3, r3, #15728640	; 0xf00000
20006680:	f043 517e 	orr.w	r1, r3, #1065353216	; 0x3f800000
20006684:	2300      	movs	r3, #0
20006686:	f441 01e0 	orr.w	r1, r1, #7340032	; 0x700000
2000668a:	9319      	str	r3, [sp, #100]	; 0x64
2000668c:	f240 0300 	movw	r3, #0
20006690:	2200      	movs	r2, #0
20006692:	f6c3 73f8 	movt	r3, #16376	; 0x3ff8
20006696:	f002 ffd9 	bl	2000964c <__aeabi_dsub>
2000669a:	a34f      	add	r3, pc, #316	; (adr r3, 200067d8 <_dtoa_r+0x248>)
2000669c:	e9d3 2300 	ldrd	r2, r3, [r3]
200066a0:	f003 f988 	bl	200099b4 <__aeabi_dmul>
200066a4:	a34e      	add	r3, pc, #312	; (adr r3, 200067e0 <_dtoa_r+0x250>)
200066a6:	e9d3 2300 	ldrd	r2, r3, [r3]
200066aa:	f002 ffd1 	bl	20009650 <__adddf3>
200066ae:	e9cd 0108 	strd	r0, r1, [sp, #32]
200066b2:	4628      	mov	r0, r5
200066b4:	f003 f918 	bl	200098e8 <__aeabi_i2d>
200066b8:	a34b      	add	r3, pc, #300	; (adr r3, 200067e8 <_dtoa_r+0x258>)
200066ba:	e9d3 2300 	ldrd	r2, r3, [r3]
200066be:	f003 f979 	bl	200099b4 <__aeabi_dmul>
200066c2:	4602      	mov	r2, r0
200066c4:	460b      	mov	r3, r1
200066c6:	e9dd 0108 	ldrd	r0, r1, [sp, #32]
200066ca:	f002 ffc1 	bl	20009650 <__adddf3>
200066ce:	e9cd 0108 	strd	r0, r1, [sp, #32]
200066d2:	f003 fc09 	bl	20009ee8 <__aeabi_d2iz>
200066d6:	2200      	movs	r2, #0
200066d8:	2300      	movs	r3, #0
200066da:	4606      	mov	r6, r0
200066dc:	e9dd 0108 	ldrd	r0, r1, [sp, #32]
200066e0:	f003 fbda 	bl	20009e98 <__aeabi_dcmplt>
200066e4:	b140      	cbz	r0, 200066f8 <_dtoa_r+0x168>
200066e6:	4630      	mov	r0, r6
200066e8:	f003 f8fe 	bl	200098e8 <__aeabi_i2d>
200066ec:	e9dd 2308 	ldrd	r2, r3, [sp, #32]
200066f0:	f003 fbc8 	bl	20009e84 <__aeabi_dcmpeq>
200066f4:	b900      	cbnz	r0, 200066f8 <_dtoa_r+0x168>
200066f6:	3e01      	subs	r6, #1
200066f8:	2e16      	cmp	r6, #22
200066fa:	d95b      	bls.n	200067b4 <_dtoa_r+0x224>
200066fc:	2301      	movs	r3, #1
200066fe:	9318      	str	r3, [sp, #96]	; 0x60
20006700:	3f01      	subs	r7, #1
20006702:	ebb7 0a05 	subs.w	sl, r7, r5
20006706:	bf42      	ittt	mi
20006708:	f1ca 0a00 	rsbmi	sl, sl, #0
2000670c:	f8cd a03c 	strmi.w	sl, [sp, #60]	; 0x3c
20006710:	f04f 0a00 	movmi.w	sl, #0
20006714:	d401      	bmi.n	2000671a <_dtoa_r+0x18a>
20006716:	2200      	movs	r2, #0
20006718:	920f      	str	r2, [sp, #60]	; 0x3c
2000671a:	2e00      	cmp	r6, #0
2000671c:	f2c0 8371 	blt.w	20006e02 <_dtoa_r+0x872>
20006720:	44b2      	add	sl, r6
20006722:	2300      	movs	r3, #0
20006724:	9617      	str	r6, [sp, #92]	; 0x5c
20006726:	9315      	str	r3, [sp, #84]	; 0x54
20006728:	9b2a      	ldr	r3, [sp, #168]	; 0xa8
2000672a:	2b09      	cmp	r3, #9
2000672c:	d862      	bhi.n	200067f4 <_dtoa_r+0x264>
2000672e:	2b05      	cmp	r3, #5
20006730:	f340 8677 	ble.w	20007422 <_dtoa_r+0xe92>
20006734:	982a      	ldr	r0, [sp, #168]	; 0xa8
20006736:	2700      	movs	r7, #0
20006738:	3804      	subs	r0, #4
2000673a:	902a      	str	r0, [sp, #168]	; 0xa8
2000673c:	992a      	ldr	r1, [sp, #168]	; 0xa8
2000673e:	1e8b      	subs	r3, r1, #2
20006740:	2b03      	cmp	r3, #3
20006742:	f200 83dd 	bhi.w	20006f00 <_dtoa_r+0x970>
20006746:	e8df f013 	tbh	[pc, r3, lsl #1]
2000674a:	03a5      	.short	0x03a5
2000674c:	03d503d8 	.word	0x03d503d8
20006750:	03c4      	.short	0x03c4
20006752:	f026 467f 	bic.w	r6, r6, #4278190080	; 0xff000000
20006756:	f426 0670 	bic.w	r6, r6, #15728640	; 0xf00000
2000675a:	2e00      	cmp	r6, #0
2000675c:	f47f af64 	bne.w	20006628 <_dtoa_r+0x98>
20006760:	f64a 4008 	movw	r0, #44040	; 0xac08
20006764:	f2c2 0000 	movt	r0, #8192	; 0x2000
20006768:	e762      	b.n	20006630 <_dtoa_r+0xa0>
2000676a:	9f1f      	ldr	r7, [sp, #124]	; 0x7c
2000676c:	9b1e      	ldr	r3, [sp, #120]	; 0x78
2000676e:	18fb      	adds	r3, r7, r3
20006770:	f503 6386 	add.w	r3, r3, #1072	; 0x430
20006774:	1c9d      	adds	r5, r3, #2
20006776:	2d20      	cmp	r5, #32
20006778:	bfdc      	itt	le
2000677a:	f1c5 0020 	rsble	r0, r5, #32
2000677e:	fa08 f000 	lslle.w	r0, r8, r0
20006782:	dd08      	ble.n	20006796 <_dtoa_r+0x206>
20006784:	3b1e      	subs	r3, #30
20006786:	f1c5 0240 	rsb	r2, r5, #64	; 0x40
2000678a:	fa16 f202 	lsls.w	r2, r6, r2
2000678e:	fa28 f303 	lsr.w	r3, r8, r3
20006792:	ea42 0003 	orr.w	r0, r2, r3
20006796:	f003 f897 	bl	200098c8 <__aeabi_ui2d>
2000679a:	f5a5 6586 	sub.w	r5, r5, #1072	; 0x430
2000679e:	2201      	movs	r2, #1
200067a0:	3d03      	subs	r5, #3
200067a2:	9219      	str	r2, [sp, #100]	; 0x64
200067a4:	f1a1 71f8 	sub.w	r1, r1, #32505856	; 0x1f00000
200067a8:	e770      	b.n	2000668c <_dtoa_r+0xfc>
200067aa:	f64a 4004 	movw	r0, #44036	; 0xac04
200067ae:	f2c2 0000 	movt	r0, #8192	; 0x2000
200067b2:	e72e      	b.n	20006612 <_dtoa_r+0x82>
200067b4:	f64a 43c0 	movw	r3, #44224	; 0xacc0
200067b8:	e9dd 0106 	ldrd	r0, r1, [sp, #24]
200067bc:	f2c2 0300 	movt	r3, #8192	; 0x2000
200067c0:	eb03 03c6 	add.w	r3, r3, r6, lsl #3
200067c4:	e9d3 2300 	ldrd	r2, r3, [r3]
200067c8:	f003 fb66 	bl	20009e98 <__aeabi_dcmplt>
200067cc:	2800      	cmp	r0, #0
200067ce:	f040 8320 	bne.w	20006e12 <_dtoa_r+0x882>
200067d2:	9018      	str	r0, [sp, #96]	; 0x60
200067d4:	e794      	b.n	20006700 <_dtoa_r+0x170>
200067d6:	bf00      	nop
200067d8:	636f4361 	.word	0x636f4361
200067dc:	3fd287a7 	.word	0x3fd287a7
200067e0:	8b60c8b3 	.word	0x8b60c8b3
200067e4:	3fc68a28 	.word	0x3fc68a28
200067e8:	509f79fb 	.word	0x509f79fb
200067ec:	3fd34413 	.word	0x3fd34413
200067f0:	2000ac05 	.word	0x2000ac05
200067f4:	2300      	movs	r3, #0
200067f6:	f04f 30ff 	mov.w	r0, #4294967295
200067fa:	461f      	mov	r7, r3
200067fc:	2101      	movs	r1, #1
200067fe:	932a      	str	r3, [sp, #168]	; 0xa8
20006800:	9011      	str	r0, [sp, #68]	; 0x44
20006802:	9116      	str	r1, [sp, #88]	; 0x58
20006804:	9008      	str	r0, [sp, #32]
20006806:	932b      	str	r3, [sp, #172]	; 0xac
20006808:	6a65      	ldr	r5, [r4, #36]	; 0x24
2000680a:	2300      	movs	r3, #0
2000680c:	606b      	str	r3, [r5, #4]
2000680e:	4620      	mov	r0, r4
20006810:	6869      	ldr	r1, [r5, #4]
20006812:	f001 fe75 	bl	20008500 <_Balloc>
20006816:	6a63      	ldr	r3, [r4, #36]	; 0x24
20006818:	6028      	str	r0, [r5, #0]
2000681a:	681b      	ldr	r3, [r3, #0]
2000681c:	9310      	str	r3, [sp, #64]	; 0x40
2000681e:	2f00      	cmp	r7, #0
20006820:	f000 815b 	beq.w	20006ada <_dtoa_r+0x54a>
20006824:	2e00      	cmp	r6, #0
20006826:	f340 842a 	ble.w	2000707e <_dtoa_r+0xaee>
2000682a:	f64a 43c0 	movw	r3, #44224	; 0xacc0
2000682e:	f006 020f 	and.w	r2, r6, #15
20006832:	f2c2 0300 	movt	r3, #8192	; 0x2000
20006836:	1135      	asrs	r5, r6, #4
20006838:	eb03 03c2 	add.w	r3, r3, r2, lsl #3
2000683c:	f015 0f10 	tst.w	r5, #16
20006840:	e9d3 0100 	ldrd	r0, r1, [r3]
20006844:	e9cd 010c 	strd	r0, r1, [sp, #48]	; 0x30
20006848:	f000 82e7 	beq.w	20006e1a <_dtoa_r+0x88a>
2000684c:	f64a 5398 	movw	r3, #44440	; 0xad98
20006850:	e9dd 0106 	ldrd	r0, r1, [sp, #24]
20006854:	f2c2 0300 	movt	r3, #8192	; 0x2000
20006858:	f005 050f 	and.w	r5, r5, #15
2000685c:	f04f 0803 	mov.w	r8, #3
20006860:	e9d3 2308 	ldrd	r2, r3, [r3, #32]
20006864:	f003 f9d0 	bl	20009c08 <__aeabi_ddiv>
20006868:	e9cd 0112 	strd	r0, r1, [sp, #72]	; 0x48
2000686c:	b1bd      	cbz	r5, 2000689e <_dtoa_r+0x30e>
2000686e:	f64a 5798 	movw	r7, #44440	; 0xad98
20006872:	e9dd 230c 	ldrd	r2, r3, [sp, #48]	; 0x30
20006876:	f2c2 0700 	movt	r7, #8192	; 0x2000
2000687a:	f015 0f01 	tst.w	r5, #1
2000687e:	4610      	mov	r0, r2
20006880:	4619      	mov	r1, r3
20006882:	d007      	beq.n	20006894 <_dtoa_r+0x304>
20006884:	e9d7 2300 	ldrd	r2, r3, [r7]
20006888:	f108 0801 	add.w	r8, r8, #1
2000688c:	f003 f892 	bl	200099b4 <__aeabi_dmul>
20006890:	4602      	mov	r2, r0
20006892:	460b      	mov	r3, r1
20006894:	3708      	adds	r7, #8
20006896:	106d      	asrs	r5, r5, #1
20006898:	d1ef      	bne.n	2000687a <_dtoa_r+0x2ea>
2000689a:	e9cd 230c 	strd	r2, r3, [sp, #48]	; 0x30
2000689e:	e9dd 230c 	ldrd	r2, r3, [sp, #48]	; 0x30
200068a2:	e9dd 0112 	ldrd	r0, r1, [sp, #72]	; 0x48
200068a6:	f003 f9af 	bl	20009c08 <__aeabi_ddiv>
200068aa:	e9cd 010c 	strd	r0, r1, [sp, #48]	; 0x30
200068ae:	9918      	ldr	r1, [sp, #96]	; 0x60
200068b0:	2900      	cmp	r1, #0
200068b2:	f000 80de 	beq.w	20006a72 <_dtoa_r+0x4e2>
200068b6:	f240 0300 	movw	r3, #0
200068ba:	e9dd 010c 	ldrd	r0, r1, [sp, #48]	; 0x30
200068be:	2200      	movs	r2, #0
200068c0:	f6c3 73f0 	movt	r3, #16368	; 0x3ff0
200068c4:	f04f 0500 	mov.w	r5, #0
200068c8:	f003 fae6 	bl	20009e98 <__aeabi_dcmplt>
200068cc:	b108      	cbz	r0, 200068d2 <_dtoa_r+0x342>
200068ce:	f04f 0501 	mov.w	r5, #1
200068d2:	9a08      	ldr	r2, [sp, #32]
200068d4:	2a00      	cmp	r2, #0
200068d6:	bfd4      	ite	le
200068d8:	2500      	movle	r5, #0
200068da:	f005 0501 	andgt.w	r5, r5, #1
200068de:	2d00      	cmp	r5, #0
200068e0:	f000 80c7 	beq.w	20006a72 <_dtoa_r+0x4e2>
200068e4:	9b11      	ldr	r3, [sp, #68]	; 0x44
200068e6:	2b00      	cmp	r3, #0
200068e8:	f340 80f5 	ble.w	20006ad6 <_dtoa_r+0x546>
200068ec:	f240 0300 	movw	r3, #0
200068f0:	2200      	movs	r2, #0
200068f2:	f2c4 0324 	movt	r3, #16420	; 0x4024
200068f6:	e9dd 010c 	ldrd	r0, r1, [sp, #48]	; 0x30
200068fa:	f003 f85b 	bl	200099b4 <__aeabi_dmul>
200068fe:	e9cd 010c 	strd	r0, r1, [sp, #48]	; 0x30
20006902:	f108 0001 	add.w	r0, r8, #1
20006906:	1e71      	subs	r1, r6, #1
20006908:	9112      	str	r1, [sp, #72]	; 0x48
2000690a:	f002 ffed 	bl	200098e8 <__aeabi_i2d>
2000690e:	4602      	mov	r2, r0
20006910:	460b      	mov	r3, r1
20006912:	e9dd 010c 	ldrd	r0, r1, [sp, #48]	; 0x30
20006916:	f003 f84d 	bl	200099b4 <__aeabi_dmul>
2000691a:	f240 0300 	movw	r3, #0
2000691e:	2200      	movs	r2, #0
20006920:	f2c4 031c 	movt	r3, #16412	; 0x401c
20006924:	f002 fe94 	bl	20009650 <__adddf3>
20006928:	f8dd c044 	ldr.w	ip, [sp, #68]	; 0x44
2000692c:	4680      	mov	r8, r0
2000692e:	f1a1 7950 	sub.w	r9, r1, #54525952	; 0x3400000
20006932:	9b16      	ldr	r3, [sp, #88]	; 0x58
20006934:	2b00      	cmp	r3, #0
20006936:	f000 83ad 	beq.w	20007094 <_dtoa_r+0xb04>
2000693a:	f64a 43c0 	movw	r3, #44224	; 0xacc0
2000693e:	f240 0100 	movw	r1, #0
20006942:	f2c2 0300 	movt	r3, #8192	; 0x2000
20006946:	2000      	movs	r0, #0
20006948:	eb03 03cc 	add.w	r3, r3, ip, lsl #3
2000694c:	f6c3 71e0 	movt	r1, #16352	; 0x3fe0
20006950:	f8cd c00c 	str.w	ip, [sp, #12]
20006954:	e953 2302 	ldrd	r2, r3, [r3, #-8]
20006958:	f003 f956 	bl	20009c08 <__aeabi_ddiv>
2000695c:	4642      	mov	r2, r8
2000695e:	464b      	mov	r3, r9
20006960:	9d10      	ldr	r5, [sp, #64]	; 0x40
20006962:	f002 fe73 	bl	2000964c <__aeabi_dsub>
20006966:	4680      	mov	r8, r0
20006968:	4689      	mov	r9, r1
2000696a:	e9dd 010c 	ldrd	r0, r1, [sp, #48]	; 0x30
2000696e:	f003 fabb 	bl	20009ee8 <__aeabi_d2iz>
20006972:	4607      	mov	r7, r0
20006974:	f002 ffb8 	bl	200098e8 <__aeabi_i2d>
20006978:	4602      	mov	r2, r0
2000697a:	460b      	mov	r3, r1
2000697c:	e9dd 010c 	ldrd	r0, r1, [sp, #48]	; 0x30
20006980:	f002 fe64 	bl	2000964c <__aeabi_dsub>
20006984:	f107 0330 	add.w	r3, r7, #48	; 0x30
20006988:	e9cd 010c 	strd	r0, r1, [sp, #48]	; 0x30
2000698c:	4640      	mov	r0, r8
2000698e:	f805 3b01 	strb.w	r3, [r5], #1
20006992:	4649      	mov	r1, r9
20006994:	e9dd 230c 	ldrd	r2, r3, [sp, #48]	; 0x30
20006998:	f003 fa9c 	bl	20009ed4 <__aeabi_dcmpgt>
2000699c:	2800      	cmp	r0, #0
2000699e:	f040 8213 	bne.w	20006dc8 <_dtoa_r+0x838>
200069a2:	f240 0100 	movw	r1, #0
200069a6:	e9dd 230c 	ldrd	r2, r3, [sp, #48]	; 0x30
200069aa:	2000      	movs	r0, #0
200069ac:	f6c3 71f0 	movt	r1, #16368	; 0x3ff0
200069b0:	f002 fe4c 	bl	2000964c <__aeabi_dsub>
200069b4:	4602      	mov	r2, r0
200069b6:	460b      	mov	r3, r1
200069b8:	4640      	mov	r0, r8
200069ba:	4649      	mov	r1, r9
200069bc:	f003 fa8a 	bl	20009ed4 <__aeabi_dcmpgt>
200069c0:	f8dd c00c 	ldr.w	ip, [sp, #12]
200069c4:	2800      	cmp	r0, #0
200069c6:	f040 83e7 	bne.w	20007198 <_dtoa_r+0xc08>
200069ca:	f1bc 0f01 	cmp.w	ip, #1
200069ce:	f340 8082 	ble.w	20006ad6 <_dtoa_r+0x546>
200069d2:	f8cd b068 	str.w	fp, [sp, #104]	; 0x68
200069d6:	2701      	movs	r7, #1
200069d8:	f8cd a070 	str.w	sl, [sp, #112]	; 0x70
200069dc:	961d      	str	r6, [sp, #116]	; 0x74
200069de:	4666      	mov	r6, ip
200069e0:	e9dd ab0c 	ldrd	sl, fp, [sp, #48]	; 0x30
200069e4:	940c      	str	r4, [sp, #48]	; 0x30
200069e6:	e010      	b.n	20006a0a <_dtoa_r+0x47a>
200069e8:	f240 0100 	movw	r1, #0
200069ec:	2000      	movs	r0, #0
200069ee:	f6c3 71f0 	movt	r1, #16368	; 0x3ff0
200069f2:	f002 fe2b 	bl	2000964c <__aeabi_dsub>
200069f6:	4642      	mov	r2, r8
200069f8:	464b      	mov	r3, r9
200069fa:	f003 fa4d 	bl	20009e98 <__aeabi_dcmplt>
200069fe:	2800      	cmp	r0, #0
20006a00:	f040 83c7 	bne.w	20007192 <_dtoa_r+0xc02>
20006a04:	42b7      	cmp	r7, r6
20006a06:	f280 848b 	bge.w	20007320 <_dtoa_r+0xd90>
20006a0a:	f240 0300 	movw	r3, #0
20006a0e:	4640      	mov	r0, r8
20006a10:	4649      	mov	r1, r9
20006a12:	2200      	movs	r2, #0
20006a14:	f2c4 0324 	movt	r3, #16420	; 0x4024
20006a18:	3501      	adds	r5, #1
20006a1a:	f002 ffcb 	bl	200099b4 <__aeabi_dmul>
20006a1e:	f240 0300 	movw	r3, #0
20006a22:	2200      	movs	r2, #0
20006a24:	f2c4 0324 	movt	r3, #16420	; 0x4024
20006a28:	4680      	mov	r8, r0
20006a2a:	4689      	mov	r9, r1
20006a2c:	4650      	mov	r0, sl
20006a2e:	4659      	mov	r1, fp
20006a30:	f002 ffc0 	bl	200099b4 <__aeabi_dmul>
20006a34:	468b      	mov	fp, r1
20006a36:	4682      	mov	sl, r0
20006a38:	f003 fa56 	bl	20009ee8 <__aeabi_d2iz>
20006a3c:	4604      	mov	r4, r0
20006a3e:	f002 ff53 	bl	200098e8 <__aeabi_i2d>
20006a42:	3430      	adds	r4, #48	; 0x30
20006a44:	4602      	mov	r2, r0
20006a46:	460b      	mov	r3, r1
20006a48:	4650      	mov	r0, sl
20006a4a:	4659      	mov	r1, fp
20006a4c:	f002 fdfe 	bl	2000964c <__aeabi_dsub>
20006a50:	9a10      	ldr	r2, [sp, #64]	; 0x40
20006a52:	464b      	mov	r3, r9
20006a54:	55d4      	strb	r4, [r2, r7]
20006a56:	4642      	mov	r2, r8
20006a58:	3701      	adds	r7, #1
20006a5a:	4682      	mov	sl, r0
20006a5c:	468b      	mov	fp, r1
20006a5e:	f003 fa1b 	bl	20009e98 <__aeabi_dcmplt>
20006a62:	4652      	mov	r2, sl
20006a64:	465b      	mov	r3, fp
20006a66:	2800      	cmp	r0, #0
20006a68:	d0be      	beq.n	200069e8 <_dtoa_r+0x458>
20006a6a:	f8dd b068 	ldr.w	fp, [sp, #104]	; 0x68
20006a6e:	9c0c      	ldr	r4, [sp, #48]	; 0x30
20006a70:	e1aa      	b.n	20006dc8 <_dtoa_r+0x838>
20006a72:	4640      	mov	r0, r8
20006a74:	f002 ff38 	bl	200098e8 <__aeabi_i2d>
20006a78:	e9dd 230c 	ldrd	r2, r3, [sp, #48]	; 0x30
20006a7c:	f002 ff9a 	bl	200099b4 <__aeabi_dmul>
20006a80:	f240 0300 	movw	r3, #0
20006a84:	2200      	movs	r2, #0
20006a86:	f2c4 031c 	movt	r3, #16412	; 0x401c
20006a8a:	f002 fde1 	bl	20009650 <__adddf3>
20006a8e:	9a08      	ldr	r2, [sp, #32]
20006a90:	f1a1 7550 	sub.w	r5, r1, #54525952	; 0x3400000
20006a94:	4680      	mov	r8, r0
20006a96:	46a9      	mov	r9, r5
20006a98:	2a00      	cmp	r2, #0
20006a9a:	f040 82ec 	bne.w	20007076 <_dtoa_r+0xae6>
20006a9e:	f240 0300 	movw	r3, #0
20006aa2:	e9dd 010c 	ldrd	r0, r1, [sp, #48]	; 0x30
20006aa6:	2200      	movs	r2, #0
20006aa8:	f2c4 0314 	movt	r3, #16404	; 0x4014
20006aac:	f002 fdce 	bl	2000964c <__aeabi_dsub>
20006ab0:	4642      	mov	r2, r8
20006ab2:	462b      	mov	r3, r5
20006ab4:	e9cd 010c 	strd	r0, r1, [sp, #48]	; 0x30
20006ab8:	f003 fa0c 	bl	20009ed4 <__aeabi_dcmpgt>
20006abc:	2800      	cmp	r0, #0
20006abe:	f040 824a 	bne.w	20006f56 <_dtoa_r+0x9c6>
20006ac2:	4642      	mov	r2, r8
20006ac4:	e9dd 010c 	ldrd	r0, r1, [sp, #48]	; 0x30
20006ac8:	f105 4300 	add.w	r3, r5, #2147483648	; 0x80000000
20006acc:	f003 f9e4 	bl	20009e98 <__aeabi_dcmplt>
20006ad0:	2800      	cmp	r0, #0
20006ad2:	f040 81d5 	bne.w	20006e80 <_dtoa_r+0x8f0>
20006ad6:	e9dd 8906 	ldrd	r8, r9, [sp, #24]
20006ada:	9b1e      	ldr	r3, [sp, #120]	; 0x78
20006adc:	ea6f 0703 	mvn.w	r7, r3
20006ae0:	ea4f 77d7 	mov.w	r7, r7, lsr #31
20006ae4:	2e0e      	cmp	r6, #14
20006ae6:	bfcc      	ite	gt
20006ae8:	2700      	movgt	r7, #0
20006aea:	f007 0701 	andle.w	r7, r7, #1
20006aee:	2f00      	cmp	r7, #0
20006af0:	f000 80b7 	beq.w	20006c62 <_dtoa_r+0x6d2>
20006af4:	982b      	ldr	r0, [sp, #172]	; 0xac
20006af6:	f64a 43c0 	movw	r3, #44224	; 0xacc0
20006afa:	f2c2 0300 	movt	r3, #8192	; 0x2000
20006afe:	9908      	ldr	r1, [sp, #32]
20006b00:	eb03 03c6 	add.w	r3, r3, r6, lsl #3
20006b04:	0fc2      	lsrs	r2, r0, #31
20006b06:	2900      	cmp	r1, #0
20006b08:	bfcc      	ite	gt
20006b0a:	2200      	movgt	r2, #0
20006b0c:	f002 0201 	andle.w	r2, r2, #1
20006b10:	e9d3 0100 	ldrd	r0, r1, [r3]
20006b14:	e9cd 0104 	strd	r0, r1, [sp, #16]
20006b18:	2a00      	cmp	r2, #0
20006b1a:	f040 81a0 	bne.w	20006e5e <_dtoa_r+0x8ce>
20006b1e:	4602      	mov	r2, r0
20006b20:	460b      	mov	r3, r1
20006b22:	4640      	mov	r0, r8
20006b24:	4649      	mov	r1, r9
20006b26:	f003 f86f 	bl	20009c08 <__aeabi_ddiv>
20006b2a:	9d10      	ldr	r5, [sp, #64]	; 0x40
20006b2c:	f003 f9dc 	bl	20009ee8 <__aeabi_d2iz>
20006b30:	4682      	mov	sl, r0
20006b32:	f002 fed9 	bl	200098e8 <__aeabi_i2d>
20006b36:	e9dd 2304 	ldrd	r2, r3, [sp, #16]
20006b3a:	f002 ff3b 	bl	200099b4 <__aeabi_dmul>
20006b3e:	4602      	mov	r2, r0
20006b40:	460b      	mov	r3, r1
20006b42:	4640      	mov	r0, r8
20006b44:	4649      	mov	r1, r9
20006b46:	f002 fd81 	bl	2000964c <__aeabi_dsub>
20006b4a:	f10a 0330 	add.w	r3, sl, #48	; 0x30
20006b4e:	f805 3b01 	strb.w	r3, [r5], #1
20006b52:	9a08      	ldr	r2, [sp, #32]
20006b54:	2a01      	cmp	r2, #1
20006b56:	4680      	mov	r8, r0
20006b58:	4689      	mov	r9, r1
20006b5a:	d052      	beq.n	20006c02 <_dtoa_r+0x672>
20006b5c:	f240 0300 	movw	r3, #0
20006b60:	2200      	movs	r2, #0
20006b62:	f2c4 0324 	movt	r3, #16420	; 0x4024
20006b66:	f002 ff25 	bl	200099b4 <__aeabi_dmul>
20006b6a:	2200      	movs	r2, #0
20006b6c:	2300      	movs	r3, #0
20006b6e:	e9cd 0106 	strd	r0, r1, [sp, #24]
20006b72:	f003 f987 	bl	20009e84 <__aeabi_dcmpeq>
20006b76:	2800      	cmp	r0, #0
20006b78:	f040 81eb 	bne.w	20006f52 <_dtoa_r+0x9c2>
20006b7c:	9810      	ldr	r0, [sp, #64]	; 0x40
20006b7e:	f04f 0801 	mov.w	r8, #1
20006b82:	f8cd b02c 	str.w	fp, [sp, #44]	; 0x2c
20006b86:	46a3      	mov	fp, r4
20006b88:	1c87      	adds	r7, r0, #2
20006b8a:	960f      	str	r6, [sp, #60]	; 0x3c
20006b8c:	f8dd 9020 	ldr.w	r9, [sp, #32]
20006b90:	e9dd 4506 	ldrd	r4, r5, [sp, #24]
20006b94:	e00a      	b.n	20006bac <_dtoa_r+0x61c>
20006b96:	f002 ff0d 	bl	200099b4 <__aeabi_dmul>
20006b9a:	2200      	movs	r2, #0
20006b9c:	2300      	movs	r3, #0
20006b9e:	4604      	mov	r4, r0
20006ba0:	460d      	mov	r5, r1
20006ba2:	f003 f96f 	bl	20009e84 <__aeabi_dcmpeq>
20006ba6:	2800      	cmp	r0, #0
20006ba8:	f040 81ce 	bne.w	20006f48 <_dtoa_r+0x9b8>
20006bac:	e9dd 2304 	ldrd	r2, r3, [sp, #16]
20006bb0:	4620      	mov	r0, r4
20006bb2:	4629      	mov	r1, r5
20006bb4:	f108 0801 	add.w	r8, r8, #1
20006bb8:	f003 f826 	bl	20009c08 <__aeabi_ddiv>
20006bbc:	463e      	mov	r6, r7
20006bbe:	f003 f993 	bl	20009ee8 <__aeabi_d2iz>
20006bc2:	4682      	mov	sl, r0
20006bc4:	f002 fe90 	bl	200098e8 <__aeabi_i2d>
20006bc8:	e9dd 2304 	ldrd	r2, r3, [sp, #16]
20006bcc:	f002 fef2 	bl	200099b4 <__aeabi_dmul>
20006bd0:	4602      	mov	r2, r0
20006bd2:	460b      	mov	r3, r1
20006bd4:	4620      	mov	r0, r4
20006bd6:	4629      	mov	r1, r5
20006bd8:	f002 fd38 	bl	2000964c <__aeabi_dsub>
20006bdc:	2200      	movs	r2, #0
20006bde:	f10a 0c30 	add.w	ip, sl, #48	; 0x30
20006be2:	f807 cc01 	strb.w	ip, [r7, #-1]
20006be6:	3701      	adds	r7, #1
20006be8:	45c1      	cmp	r9, r8
20006bea:	f240 0300 	movw	r3, #0
20006bee:	f2c4 0324 	movt	r3, #16420	; 0x4024
20006bf2:	d1d0      	bne.n	20006b96 <_dtoa_r+0x606>
20006bf4:	4635      	mov	r5, r6
20006bf6:	465c      	mov	r4, fp
20006bf8:	9e0f      	ldr	r6, [sp, #60]	; 0x3c
20006bfa:	4680      	mov	r8, r0
20006bfc:	f8dd b02c 	ldr.w	fp, [sp, #44]	; 0x2c
20006c00:	4689      	mov	r9, r1
20006c02:	4642      	mov	r2, r8
20006c04:	464b      	mov	r3, r9
20006c06:	4640      	mov	r0, r8
20006c08:	4649      	mov	r1, r9
20006c0a:	f002 fd21 	bl	20009650 <__adddf3>
20006c0e:	4680      	mov	r8, r0
20006c10:	4689      	mov	r9, r1
20006c12:	4642      	mov	r2, r8
20006c14:	e9dd 0104 	ldrd	r0, r1, [sp, #16]
20006c18:	464b      	mov	r3, r9
20006c1a:	f003 f93d 	bl	20009e98 <__aeabi_dcmplt>
20006c1e:	b960      	cbnz	r0, 20006c3a <_dtoa_r+0x6aa>
20006c20:	e9dd 0104 	ldrd	r0, r1, [sp, #16]
20006c24:	4642      	mov	r2, r8
20006c26:	464b      	mov	r3, r9
20006c28:	f003 f92c 	bl	20009e84 <__aeabi_dcmpeq>
20006c2c:	2800      	cmp	r0, #0
20006c2e:	f000 8190 	beq.w	20006f52 <_dtoa_r+0x9c2>
20006c32:	f01a 0f01 	tst.w	sl, #1
20006c36:	f000 818c 	beq.w	20006f52 <_dtoa_r+0x9c2>
20006c3a:	9910      	ldr	r1, [sp, #64]	; 0x40
20006c3c:	e000      	b.n	20006c40 <_dtoa_r+0x6b0>
20006c3e:	461d      	mov	r5, r3
20006c40:	f815 2c01 	ldrb.w	r2, [r5, #-1]
20006c44:	1e6b      	subs	r3, r5, #1
20006c46:	2a39      	cmp	r2, #57	; 0x39
20006c48:	f040 8367 	bne.w	2000731a <_dtoa_r+0xd8a>
20006c4c:	428b      	cmp	r3, r1
20006c4e:	d1f6      	bne.n	20006c3e <_dtoa_r+0x6ae>
20006c50:	9910      	ldr	r1, [sp, #64]	; 0x40
20006c52:	2330      	movs	r3, #48	; 0x30
20006c54:	3601      	adds	r6, #1
20006c56:	2231      	movs	r2, #49	; 0x31
20006c58:	700b      	strb	r3, [r1, #0]
20006c5a:	9b10      	ldr	r3, [sp, #64]	; 0x40
20006c5c:	701a      	strb	r2, [r3, #0]
20006c5e:	9612      	str	r6, [sp, #72]	; 0x48
20006c60:	e0b2      	b.n	20006dc8 <_dtoa_r+0x838>
20006c62:	9a16      	ldr	r2, [sp, #88]	; 0x58
20006c64:	2a00      	cmp	r2, #0
20006c66:	f040 80df 	bne.w	20006e28 <_dtoa_r+0x898>
20006c6a:	9f15      	ldr	r7, [sp, #84]	; 0x54
20006c6c:	9d0f      	ldr	r5, [sp, #60]	; 0x3c
20006c6e:	920c      	str	r2, [sp, #48]	; 0x30
20006c70:	2d00      	cmp	r5, #0
20006c72:	bfd4      	ite	le
20006c74:	2300      	movle	r3, #0
20006c76:	2301      	movgt	r3, #1
20006c78:	f1ba 0f00 	cmp.w	sl, #0
20006c7c:	bfd4      	ite	le
20006c7e:	2300      	movle	r3, #0
20006c80:	f003 0301 	andgt.w	r3, r3, #1
20006c84:	b14b      	cbz	r3, 20006c9a <_dtoa_r+0x70a>
20006c86:	45aa      	cmp	sl, r5
20006c88:	bfb4      	ite	lt
20006c8a:	4653      	movlt	r3, sl
20006c8c:	462b      	movge	r3, r5
20006c8e:	980f      	ldr	r0, [sp, #60]	; 0x3c
20006c90:	ebc3 0a0a 	rsb	sl, r3, sl
20006c94:	1aed      	subs	r5, r5, r3
20006c96:	1ac0      	subs	r0, r0, r3
20006c98:	900f      	str	r0, [sp, #60]	; 0x3c
20006c9a:	9915      	ldr	r1, [sp, #84]	; 0x54
20006c9c:	2900      	cmp	r1, #0
20006c9e:	dd1c      	ble.n	20006cda <_dtoa_r+0x74a>
20006ca0:	9a16      	ldr	r2, [sp, #88]	; 0x58
20006ca2:	2a00      	cmp	r2, #0
20006ca4:	f000 82e9 	beq.w	2000727a <_dtoa_r+0xcea>
20006ca8:	2f00      	cmp	r7, #0
20006caa:	dd12      	ble.n	20006cd2 <_dtoa_r+0x742>
20006cac:	990c      	ldr	r1, [sp, #48]	; 0x30
20006cae:	463a      	mov	r2, r7
20006cb0:	4620      	mov	r0, r4
20006cb2:	f001 fe85 	bl	200089c0 <__pow5mult>
20006cb6:	465a      	mov	r2, fp
20006cb8:	900c      	str	r0, [sp, #48]	; 0x30
20006cba:	4620      	mov	r0, r4
20006cbc:	990c      	ldr	r1, [sp, #48]	; 0x30
20006cbe:	f001 fd97 	bl	200087f0 <__multiply>
20006cc2:	4659      	mov	r1, fp
20006cc4:	4603      	mov	r3, r0
20006cc6:	4620      	mov	r0, r4
20006cc8:	9303      	str	r3, [sp, #12]
20006cca:	f001 fbfd 	bl	200084c8 <_Bfree>
20006cce:	9b03      	ldr	r3, [sp, #12]
20006cd0:	469b      	mov	fp, r3
20006cd2:	9b15      	ldr	r3, [sp, #84]	; 0x54
20006cd4:	1bda      	subs	r2, r3, r7
20006cd6:	f040 8311 	bne.w	200072fc <_dtoa_r+0xd6c>
20006cda:	2101      	movs	r1, #1
20006cdc:	4620      	mov	r0, r4
20006cde:	f001 fe21 	bl	20008924 <__i2b>
20006ce2:	9006      	str	r0, [sp, #24]
20006ce4:	9817      	ldr	r0, [sp, #92]	; 0x5c
20006ce6:	2800      	cmp	r0, #0
20006ce8:	dd05      	ble.n	20006cf6 <_dtoa_r+0x766>
20006cea:	9906      	ldr	r1, [sp, #24]
20006cec:	4620      	mov	r0, r4
20006cee:	9a17      	ldr	r2, [sp, #92]	; 0x5c
20006cf0:	f001 fe66 	bl	200089c0 <__pow5mult>
20006cf4:	9006      	str	r0, [sp, #24]
20006cf6:	992a      	ldr	r1, [sp, #168]	; 0xa8
20006cf8:	2901      	cmp	r1, #1
20006cfa:	f340 810a 	ble.w	20006f12 <_dtoa_r+0x982>
20006cfe:	2700      	movs	r7, #0
20006d00:	9b17      	ldr	r3, [sp, #92]	; 0x5c
20006d02:	2b00      	cmp	r3, #0
20006d04:	f040 8261 	bne.w	200071ca <_dtoa_r+0xc3a>
20006d08:	2301      	movs	r3, #1
20006d0a:	4453      	add	r3, sl
20006d0c:	f013 031f 	ands.w	r3, r3, #31
20006d10:	f040 812a 	bne.w	20006f68 <_dtoa_r+0x9d8>
20006d14:	231c      	movs	r3, #28
20006d16:	9a0f      	ldr	r2, [sp, #60]	; 0x3c
20006d18:	449a      	add	sl, r3
20006d1a:	18ed      	adds	r5, r5, r3
20006d1c:	18d2      	adds	r2, r2, r3
20006d1e:	920f      	str	r2, [sp, #60]	; 0x3c
20006d20:	9b0f      	ldr	r3, [sp, #60]	; 0x3c
20006d22:	2b00      	cmp	r3, #0
20006d24:	dd05      	ble.n	20006d32 <_dtoa_r+0x7a2>
20006d26:	4659      	mov	r1, fp
20006d28:	461a      	mov	r2, r3
20006d2a:	4620      	mov	r0, r4
20006d2c:	f001 fd02 	bl	20008734 <__lshift>
20006d30:	4683      	mov	fp, r0
20006d32:	f1ba 0f00 	cmp.w	sl, #0
20006d36:	dd05      	ble.n	20006d44 <_dtoa_r+0x7b4>
20006d38:	9906      	ldr	r1, [sp, #24]
20006d3a:	4652      	mov	r2, sl
20006d3c:	4620      	mov	r0, r4
20006d3e:	f001 fcf9 	bl	20008734 <__lshift>
20006d42:	9006      	str	r0, [sp, #24]
20006d44:	9818      	ldr	r0, [sp, #96]	; 0x60
20006d46:	2800      	cmp	r0, #0
20006d48:	f040 8229 	bne.w	2000719e <_dtoa_r+0xc0e>
20006d4c:	982a      	ldr	r0, [sp, #168]	; 0xa8
20006d4e:	9908      	ldr	r1, [sp, #32]
20006d50:	2802      	cmp	r0, #2
20006d52:	bfd4      	ite	le
20006d54:	2300      	movle	r3, #0
20006d56:	2301      	movgt	r3, #1
20006d58:	2900      	cmp	r1, #0
20006d5a:	bfcc      	ite	gt
20006d5c:	2300      	movgt	r3, #0
20006d5e:	f003 0301 	andle.w	r3, r3, #1
20006d62:	2b00      	cmp	r3, #0
20006d64:	f000 810c 	beq.w	20006f80 <_dtoa_r+0x9f0>
20006d68:	2900      	cmp	r1, #0
20006d6a:	f040 808c 	bne.w	20006e86 <_dtoa_r+0x8f6>
20006d6e:	2205      	movs	r2, #5
20006d70:	9906      	ldr	r1, [sp, #24]
20006d72:	9b08      	ldr	r3, [sp, #32]
20006d74:	4620      	mov	r0, r4
20006d76:	f001 fddf 	bl	20008938 <__multadd>
20006d7a:	9006      	str	r0, [sp, #24]
20006d7c:	4658      	mov	r0, fp
20006d7e:	9906      	ldr	r1, [sp, #24]
20006d80:	f001 fa68 	bl	20008254 <__mcmp>
20006d84:	2800      	cmp	r0, #0
20006d86:	dd7e      	ble.n	20006e86 <_dtoa_r+0x8f6>
20006d88:	9d10      	ldr	r5, [sp, #64]	; 0x40
20006d8a:	3601      	adds	r6, #1
20006d8c:	2700      	movs	r7, #0
20006d8e:	f8dd a030 	ldr.w	sl, [sp, #48]	; 0x30
20006d92:	2331      	movs	r3, #49	; 0x31
20006d94:	f805 3b01 	strb.w	r3, [r5], #1
20006d98:	9906      	ldr	r1, [sp, #24]
20006d9a:	4620      	mov	r0, r4
20006d9c:	f001 fb94 	bl	200084c8 <_Bfree>
20006da0:	f1ba 0f00 	cmp.w	sl, #0
20006da4:	f000 80d5 	beq.w	20006f52 <_dtoa_r+0x9c2>
20006da8:	1e3b      	subs	r3, r7, #0
20006daa:	bf18      	it	ne
20006dac:	2301      	movne	r3, #1
20006dae:	4557      	cmp	r7, sl
20006db0:	bf0c      	ite	eq
20006db2:	2300      	moveq	r3, #0
20006db4:	f003 0301 	andne.w	r3, r3, #1
20006db8:	2b00      	cmp	r3, #0
20006dba:	f040 80d0 	bne.w	20006f5e <_dtoa_r+0x9ce>
20006dbe:	4651      	mov	r1, sl
20006dc0:	4620      	mov	r0, r4
20006dc2:	f001 fb81 	bl	200084c8 <_Bfree>
20006dc6:	9612      	str	r6, [sp, #72]	; 0x48
20006dc8:	4620      	mov	r0, r4
20006dca:	4659      	mov	r1, fp
20006dcc:	f001 fb7c 	bl	200084c8 <_Bfree>
20006dd0:	9a12      	ldr	r2, [sp, #72]	; 0x48
20006dd2:	1c53      	adds	r3, r2, #1
20006dd4:	2200      	movs	r2, #0
20006dd6:	702a      	strb	r2, [r5, #0]
20006dd8:	982c      	ldr	r0, [sp, #176]	; 0xb0
20006dda:	992e      	ldr	r1, [sp, #184]	; 0xb8
20006ddc:	6003      	str	r3, [r0, #0]
20006dde:	2900      	cmp	r1, #0
20006de0:	f000 81d4 	beq.w	2000718c <_dtoa_r+0xbfc>
20006de4:	9a2e      	ldr	r2, [sp, #184]	; 0xb8
20006de6:	9810      	ldr	r0, [sp, #64]	; 0x40
20006de8:	6015      	str	r5, [r2, #0]
20006dea:	e412      	b.n	20006612 <_dtoa_r+0x82>
20006dec:	2010      	movs	r0, #16
20006dee:	f7fd fa89 	bl	20004304 <malloc>
20006df2:	60c6      	str	r6, [r0, #12]
20006df4:	6046      	str	r6, [r0, #4]
20006df6:	6086      	str	r6, [r0, #8]
20006df8:	6006      	str	r6, [r0, #0]
20006dfa:	4606      	mov	r6, r0
20006dfc:	6260      	str	r0, [r4, #36]	; 0x24
20006dfe:	f7ff bbd2 	b.w	200065a6 <_dtoa_r+0x16>
20006e02:	980f      	ldr	r0, [sp, #60]	; 0x3c
20006e04:	4271      	negs	r1, r6
20006e06:	2200      	movs	r2, #0
20006e08:	9115      	str	r1, [sp, #84]	; 0x54
20006e0a:	1b80      	subs	r0, r0, r6
20006e0c:	9217      	str	r2, [sp, #92]	; 0x5c
20006e0e:	900f      	str	r0, [sp, #60]	; 0x3c
20006e10:	e48a      	b.n	20006728 <_dtoa_r+0x198>
20006e12:	2100      	movs	r1, #0
20006e14:	3e01      	subs	r6, #1
20006e16:	9118      	str	r1, [sp, #96]	; 0x60
20006e18:	e472      	b.n	20006700 <_dtoa_r+0x170>
20006e1a:	e9dd 2306 	ldrd	r2, r3, [sp, #24]
20006e1e:	f04f 0802 	mov.w	r8, #2
20006e22:	e9cd 2312 	strd	r2, r3, [sp, #72]	; 0x48
20006e26:	e521      	b.n	2000686c <_dtoa_r+0x2dc>
20006e28:	982a      	ldr	r0, [sp, #168]	; 0xa8
20006e2a:	2801      	cmp	r0, #1
20006e2c:	f340 826c 	ble.w	20007308 <_dtoa_r+0xd78>
20006e30:	9a08      	ldr	r2, [sp, #32]
20006e32:	9815      	ldr	r0, [sp, #84]	; 0x54
20006e34:	1e53      	subs	r3, r2, #1
20006e36:	4298      	cmp	r0, r3
20006e38:	f2c0 8258 	blt.w	200072ec <_dtoa_r+0xd5c>
20006e3c:	1ac7      	subs	r7, r0, r3
20006e3e:	9b08      	ldr	r3, [sp, #32]
20006e40:	2b00      	cmp	r3, #0
20006e42:	bfa8      	it	ge
20006e44:	9d0f      	ldrge	r5, [sp, #60]	; 0x3c
20006e46:	f2c0 8273 	blt.w	20007330 <_dtoa_r+0xda0>
20006e4a:	9a0f      	ldr	r2, [sp, #60]	; 0x3c
20006e4c:	4620      	mov	r0, r4
20006e4e:	2101      	movs	r1, #1
20006e50:	449a      	add	sl, r3
20006e52:	18d2      	adds	r2, r2, r3
20006e54:	920f      	str	r2, [sp, #60]	; 0x3c
20006e56:	f001 fd65 	bl	20008924 <__i2b>
20006e5a:	900c      	str	r0, [sp, #48]	; 0x30
20006e5c:	e708      	b.n	20006c70 <_dtoa_r+0x6e0>
20006e5e:	9b08      	ldr	r3, [sp, #32]
20006e60:	b973      	cbnz	r3, 20006e80 <_dtoa_r+0x8f0>
20006e62:	f240 0300 	movw	r3, #0
20006e66:	2200      	movs	r2, #0
20006e68:	f2c4 0314 	movt	r3, #16404	; 0x4014
20006e6c:	e9dd 0104 	ldrd	r0, r1, [sp, #16]
20006e70:	f002 fda0 	bl	200099b4 <__aeabi_dmul>
20006e74:	4642      	mov	r2, r8
20006e76:	464b      	mov	r3, r9
20006e78:	f003 f822 	bl	20009ec0 <__aeabi_dcmpge>
20006e7c:	2800      	cmp	r0, #0
20006e7e:	d06a      	beq.n	20006f56 <_dtoa_r+0x9c6>
20006e80:	2200      	movs	r2, #0
20006e82:	9206      	str	r2, [sp, #24]
20006e84:	920c      	str	r2, [sp, #48]	; 0x30
20006e86:	9b2b      	ldr	r3, [sp, #172]	; 0xac
20006e88:	2700      	movs	r7, #0
20006e8a:	f8dd a030 	ldr.w	sl, [sp, #48]	; 0x30
20006e8e:	43de      	mvns	r6, r3
20006e90:	9d10      	ldr	r5, [sp, #64]	; 0x40
20006e92:	e781      	b.n	20006d98 <_dtoa_r+0x808>
20006e94:	2100      	movs	r1, #0
20006e96:	9116      	str	r1, [sp, #88]	; 0x58
20006e98:	982b      	ldr	r0, [sp, #172]	; 0xac
20006e9a:	2800      	cmp	r0, #0
20006e9c:	f340 819f 	ble.w	200071de <_dtoa_r+0xc4e>
20006ea0:	982b      	ldr	r0, [sp, #172]	; 0xac
20006ea2:	4601      	mov	r1, r0
20006ea4:	9011      	str	r0, [sp, #68]	; 0x44
20006ea6:	9008      	str	r0, [sp, #32]
20006ea8:	6a65      	ldr	r5, [r4, #36]	; 0x24
20006eaa:	2200      	movs	r2, #0
20006eac:	2917      	cmp	r1, #23
20006eae:	606a      	str	r2, [r5, #4]
20006eb0:	f240 82ab 	bls.w	2000740a <_dtoa_r+0xe7a>
20006eb4:	2304      	movs	r3, #4
20006eb6:	005b      	lsls	r3, r3, #1
20006eb8:	3201      	adds	r2, #1
20006eba:	f103 0014 	add.w	r0, r3, #20
20006ebe:	4288      	cmp	r0, r1
20006ec0:	d9f9      	bls.n	20006eb6 <_dtoa_r+0x926>
20006ec2:	9b08      	ldr	r3, [sp, #32]
20006ec4:	606a      	str	r2, [r5, #4]
20006ec6:	2b0e      	cmp	r3, #14
20006ec8:	bf8c      	ite	hi
20006eca:	2700      	movhi	r7, #0
20006ecc:	f007 0701 	andls.w	r7, r7, #1
20006ed0:	e49d      	b.n	2000680e <_dtoa_r+0x27e>
20006ed2:	2201      	movs	r2, #1
20006ed4:	9216      	str	r2, [sp, #88]	; 0x58
20006ed6:	9b2b      	ldr	r3, [sp, #172]	; 0xac
20006ed8:	18f3      	adds	r3, r6, r3
20006eda:	9311      	str	r3, [sp, #68]	; 0x44
20006edc:	1c59      	adds	r1, r3, #1
20006ede:	2900      	cmp	r1, #0
20006ee0:	bfc8      	it	gt
20006ee2:	9108      	strgt	r1, [sp, #32]
20006ee4:	dce0      	bgt.n	20006ea8 <_dtoa_r+0x918>
20006ee6:	290e      	cmp	r1, #14
20006ee8:	bf8c      	ite	hi
20006eea:	2700      	movhi	r7, #0
20006eec:	f007 0701 	andls.w	r7, r7, #1
20006ef0:	9108      	str	r1, [sp, #32]
20006ef2:	e489      	b.n	20006808 <_dtoa_r+0x278>
20006ef4:	2301      	movs	r3, #1
20006ef6:	9316      	str	r3, [sp, #88]	; 0x58
20006ef8:	e7ce      	b.n	20006e98 <_dtoa_r+0x908>
20006efa:	2200      	movs	r2, #0
20006efc:	9216      	str	r2, [sp, #88]	; 0x58
20006efe:	e7ea      	b.n	20006ed6 <_dtoa_r+0x946>
20006f00:	f04f 33ff 	mov.w	r3, #4294967295
20006f04:	2700      	movs	r7, #0
20006f06:	2001      	movs	r0, #1
20006f08:	9311      	str	r3, [sp, #68]	; 0x44
20006f0a:	9016      	str	r0, [sp, #88]	; 0x58
20006f0c:	9308      	str	r3, [sp, #32]
20006f0e:	972b      	str	r7, [sp, #172]	; 0xac
20006f10:	e47a      	b.n	20006808 <_dtoa_r+0x278>
20006f12:	f1b8 0f00 	cmp.w	r8, #0
20006f16:	f47f aef2 	bne.w	20006cfe <_dtoa_r+0x76e>
20006f1a:	f029 437f 	bic.w	r3, r9, #4278190080	; 0xff000000
20006f1e:	f423 0370 	bic.w	r3, r3, #15728640	; 0xf00000
20006f22:	2b00      	cmp	r3, #0
20006f24:	f47f aeeb 	bne.w	20006cfe <_dtoa_r+0x76e>
20006f28:	f240 0300 	movw	r3, #0
20006f2c:	f6c7 73f0 	movt	r3, #32752	; 0x7ff0
20006f30:	ea09 0303 	and.w	r3, r9, r3
20006f34:	2b00      	cmp	r3, #0
20006f36:	f43f aee2 	beq.w	20006cfe <_dtoa_r+0x76e>
20006f3a:	9a0f      	ldr	r2, [sp, #60]	; 0x3c
20006f3c:	f10a 0a01 	add.w	sl, sl, #1
20006f40:	2701      	movs	r7, #1
20006f42:	3201      	adds	r2, #1
20006f44:	920f      	str	r2, [sp, #60]	; 0x3c
20006f46:	e6db      	b.n	20006d00 <_dtoa_r+0x770>
20006f48:	4635      	mov	r5, r6
20006f4a:	465c      	mov	r4, fp
20006f4c:	9e0f      	ldr	r6, [sp, #60]	; 0x3c
20006f4e:	f8dd b02c 	ldr.w	fp, [sp, #44]	; 0x2c
20006f52:	9612      	str	r6, [sp, #72]	; 0x48
20006f54:	e738      	b.n	20006dc8 <_dtoa_r+0x838>
20006f56:	2000      	movs	r0, #0
20006f58:	9006      	str	r0, [sp, #24]
20006f5a:	900c      	str	r0, [sp, #48]	; 0x30
20006f5c:	e714      	b.n	20006d88 <_dtoa_r+0x7f8>
20006f5e:	4639      	mov	r1, r7
20006f60:	4620      	mov	r0, r4
20006f62:	f001 fab1 	bl	200084c8 <_Bfree>
20006f66:	e72a      	b.n	20006dbe <_dtoa_r+0x82e>
20006f68:	f1c3 0320 	rsb	r3, r3, #32
20006f6c:	2b04      	cmp	r3, #4
20006f6e:	f340 8254 	ble.w	2000741a <_dtoa_r+0xe8a>
20006f72:	990f      	ldr	r1, [sp, #60]	; 0x3c
20006f74:	3b04      	subs	r3, #4
20006f76:	449a      	add	sl, r3
20006f78:	18ed      	adds	r5, r5, r3
20006f7a:	18c9      	adds	r1, r1, r3
20006f7c:	910f      	str	r1, [sp, #60]	; 0x3c
20006f7e:	e6cf      	b.n	20006d20 <_dtoa_r+0x790>
20006f80:	9916      	ldr	r1, [sp, #88]	; 0x58
20006f82:	2900      	cmp	r1, #0
20006f84:	f000 8131 	beq.w	200071ea <_dtoa_r+0xc5a>
20006f88:	2d00      	cmp	r5, #0
20006f8a:	dd05      	ble.n	20006f98 <_dtoa_r+0xa08>
20006f8c:	990c      	ldr	r1, [sp, #48]	; 0x30
20006f8e:	462a      	mov	r2, r5
20006f90:	4620      	mov	r0, r4
20006f92:	f001 fbcf 	bl	20008734 <__lshift>
20006f96:	900c      	str	r0, [sp, #48]	; 0x30
20006f98:	2f00      	cmp	r7, #0
20006f9a:	f040 81ea 	bne.w	20007372 <_dtoa_r+0xde2>
20006f9e:	f8dd a030 	ldr.w	sl, [sp, #48]	; 0x30
20006fa2:	9d10      	ldr	r5, [sp, #64]	; 0x40
20006fa4:	2301      	movs	r3, #1
20006fa6:	f008 0001 	and.w	r0, r8, #1
20006faa:	9f0c      	ldr	r7, [sp, #48]	; 0x30
20006fac:	9011      	str	r0, [sp, #68]	; 0x44
20006fae:	950f      	str	r5, [sp, #60]	; 0x3c
20006fb0:	461d      	mov	r5, r3
20006fb2:	960c      	str	r6, [sp, #48]	; 0x30
20006fb4:	9906      	ldr	r1, [sp, #24]
20006fb6:	4658      	mov	r0, fp
20006fb8:	f7ff fa5a 	bl	20006470 <quorem>
20006fbc:	4639      	mov	r1, r7
20006fbe:	3030      	adds	r0, #48	; 0x30
20006fc0:	900b      	str	r0, [sp, #44]	; 0x2c
20006fc2:	4658      	mov	r0, fp
20006fc4:	f001 f946 	bl	20008254 <__mcmp>
20006fc8:	9906      	ldr	r1, [sp, #24]
20006fca:	4652      	mov	r2, sl
20006fcc:	4606      	mov	r6, r0
20006fce:	4620      	mov	r0, r4
20006fd0:	f001 fb34 	bl	2000863c <__mdiff>
20006fd4:	68c3      	ldr	r3, [r0, #12]
20006fd6:	4680      	mov	r8, r0
20006fd8:	2b00      	cmp	r3, #0
20006fda:	d03d      	beq.n	20007058 <_dtoa_r+0xac8>
20006fdc:	f04f 0901 	mov.w	r9, #1
20006fe0:	4641      	mov	r1, r8
20006fe2:	4620      	mov	r0, r4
20006fe4:	f001 fa70 	bl	200084c8 <_Bfree>
20006fe8:	992a      	ldr	r1, [sp, #168]	; 0xa8
20006fea:	ea59 0101 	orrs.w	r1, r9, r1
20006fee:	d103      	bne.n	20006ff8 <_dtoa_r+0xa68>
20006ff0:	9a11      	ldr	r2, [sp, #68]	; 0x44
20006ff2:	2a00      	cmp	r2, #0
20006ff4:	f000 81eb 	beq.w	200073ce <_dtoa_r+0xe3e>
20006ff8:	2e00      	cmp	r6, #0
20006ffa:	f2c0 819e 	blt.w	2000733a <_dtoa_r+0xdaa>
20006ffe:	9a2a      	ldr	r2, [sp, #168]	; 0xa8
20007000:	4332      	orrs	r2, r6
20007002:	d103      	bne.n	2000700c <_dtoa_r+0xa7c>
20007004:	9b11      	ldr	r3, [sp, #68]	; 0x44
20007006:	2b00      	cmp	r3, #0
20007008:	f000 8197 	beq.w	2000733a <_dtoa_r+0xdaa>
2000700c:	f1b9 0f00 	cmp.w	r9, #0
20007010:	f300 81ce 	bgt.w	200073b0 <_dtoa_r+0xe20>
20007014:	990f      	ldr	r1, [sp, #60]	; 0x3c
20007016:	9a0b      	ldr	r2, [sp, #44]	; 0x2c
20007018:	f801 2b01 	strb.w	r2, [r1], #1
2000701c:	9b08      	ldr	r3, [sp, #32]
2000701e:	910f      	str	r1, [sp, #60]	; 0x3c
20007020:	429d      	cmp	r5, r3
20007022:	f000 81c2 	beq.w	200073aa <_dtoa_r+0xe1a>
20007026:	4659      	mov	r1, fp
20007028:	220a      	movs	r2, #10
2000702a:	2300      	movs	r3, #0
2000702c:	4620      	mov	r0, r4
2000702e:	f001 fc83 	bl	20008938 <__multadd>
20007032:	4557      	cmp	r7, sl
20007034:	4639      	mov	r1, r7
20007036:	4683      	mov	fp, r0
20007038:	d014      	beq.n	20007064 <_dtoa_r+0xad4>
2000703a:	220a      	movs	r2, #10
2000703c:	2300      	movs	r3, #0
2000703e:	4620      	mov	r0, r4
20007040:	3501      	adds	r5, #1
20007042:	f001 fc79 	bl	20008938 <__multadd>
20007046:	4651      	mov	r1, sl
20007048:	220a      	movs	r2, #10
2000704a:	2300      	movs	r3, #0
2000704c:	4607      	mov	r7, r0
2000704e:	4620      	mov	r0, r4
20007050:	f001 fc72 	bl	20008938 <__multadd>
20007054:	4682      	mov	sl, r0
20007056:	e7ad      	b.n	20006fb4 <_dtoa_r+0xa24>
20007058:	4658      	mov	r0, fp
2000705a:	4641      	mov	r1, r8
2000705c:	f001 f8fa 	bl	20008254 <__mcmp>
20007060:	4681      	mov	r9, r0
20007062:	e7bd      	b.n	20006fe0 <_dtoa_r+0xa50>
20007064:	4620      	mov	r0, r4
20007066:	220a      	movs	r2, #10
20007068:	2300      	movs	r3, #0
2000706a:	3501      	adds	r5, #1
2000706c:	f001 fc64 	bl	20008938 <__multadd>
20007070:	4607      	mov	r7, r0
20007072:	4682      	mov	sl, r0
20007074:	e79e      	b.n	20006fb4 <_dtoa_r+0xa24>
20007076:	9612      	str	r6, [sp, #72]	; 0x48
20007078:	f8dd c020 	ldr.w	ip, [sp, #32]
2000707c:	e459      	b.n	20006932 <_dtoa_r+0x3a2>
2000707e:	4275      	negs	r5, r6
20007080:	2d00      	cmp	r5, #0
20007082:	f040 8101 	bne.w	20007288 <_dtoa_r+0xcf8>
20007086:	e9dd 0106 	ldrd	r0, r1, [sp, #24]
2000708a:	f04f 0802 	mov.w	r8, #2
2000708e:	e9cd 010c 	strd	r0, r1, [sp, #48]	; 0x30
20007092:	e40c      	b.n	200068ae <_dtoa_r+0x31e>
20007094:	f64a 41c0 	movw	r1, #44224	; 0xacc0
20007098:	4642      	mov	r2, r8
2000709a:	f2c2 0100 	movt	r1, #8192	; 0x2000
2000709e:	464b      	mov	r3, r9
200070a0:	eb01 01cc 	add.w	r1, r1, ip, lsl #3
200070a4:	f8cd c00c 	str.w	ip, [sp, #12]
200070a8:	9d10      	ldr	r5, [sp, #64]	; 0x40
200070aa:	e951 0102 	ldrd	r0, r1, [r1, #-8]
200070ae:	f002 fc81 	bl	200099b4 <__aeabi_dmul>
200070b2:	e9cd 011a 	strd	r0, r1, [sp, #104]	; 0x68
200070b6:	e9dd 010c 	ldrd	r0, r1, [sp, #48]	; 0x30
200070ba:	f002 ff15 	bl	20009ee8 <__aeabi_d2iz>
200070be:	4607      	mov	r7, r0
200070c0:	f002 fc12 	bl	200098e8 <__aeabi_i2d>
200070c4:	460b      	mov	r3, r1
200070c6:	4602      	mov	r2, r0
200070c8:	e9dd 010c 	ldrd	r0, r1, [sp, #48]	; 0x30
200070cc:	f002 fabe 	bl	2000964c <__aeabi_dsub>
200070d0:	f107 0330 	add.w	r3, r7, #48	; 0x30
200070d4:	e9cd 010c 	strd	r0, r1, [sp, #48]	; 0x30
200070d8:	f805 3b01 	strb.w	r3, [r5], #1
200070dc:	f8dd c00c 	ldr.w	ip, [sp, #12]
200070e0:	f1bc 0f01 	cmp.w	ip, #1
200070e4:	d029      	beq.n	2000713a <_dtoa_r+0xbaa>
200070e6:	46d1      	mov	r9, sl
200070e8:	e9dd 010c 	ldrd	r0, r1, [sp, #48]	; 0x30
200070ec:	46b2      	mov	sl, r6
200070ee:	9e10      	ldr	r6, [sp, #64]	; 0x40
200070f0:	951c      	str	r5, [sp, #112]	; 0x70
200070f2:	2701      	movs	r7, #1
200070f4:	4665      	mov	r5, ip
200070f6:	46a0      	mov	r8, r4
200070f8:	f240 0300 	movw	r3, #0
200070fc:	2200      	movs	r2, #0
200070fe:	f2c4 0324 	movt	r3, #16420	; 0x4024
20007102:	f002 fc57 	bl	200099b4 <__aeabi_dmul>
20007106:	e9cd 010c 	strd	r0, r1, [sp, #48]	; 0x30
2000710a:	f002 feed 	bl	20009ee8 <__aeabi_d2iz>
2000710e:	4604      	mov	r4, r0
20007110:	f002 fbea 	bl	200098e8 <__aeabi_i2d>
20007114:	3430      	adds	r4, #48	; 0x30
20007116:	4602      	mov	r2, r0
20007118:	460b      	mov	r3, r1
2000711a:	e9dd 010c 	ldrd	r0, r1, [sp, #48]	; 0x30
2000711e:	f002 fa95 	bl	2000964c <__aeabi_dsub>
20007122:	55f4      	strb	r4, [r6, r7]
20007124:	3701      	adds	r7, #1
20007126:	42af      	cmp	r7, r5
20007128:	d1e6      	bne.n	200070f8 <_dtoa_r+0xb68>
2000712a:	9d1c      	ldr	r5, [sp, #112]	; 0x70
2000712c:	3f01      	subs	r7, #1
2000712e:	4656      	mov	r6, sl
20007130:	4644      	mov	r4, r8
20007132:	46ca      	mov	sl, r9
20007134:	19ed      	adds	r5, r5, r7
20007136:	e9cd 010c 	strd	r0, r1, [sp, #48]	; 0x30
2000713a:	f240 0300 	movw	r3, #0
2000713e:	2200      	movs	r2, #0
20007140:	f6c3 73e0 	movt	r3, #16352	; 0x3fe0
20007144:	e9dd 011a 	ldrd	r0, r1, [sp, #104]	; 0x68
20007148:	f002 fa82 	bl	20009650 <__adddf3>
2000714c:	4602      	mov	r2, r0
2000714e:	460b      	mov	r3, r1
20007150:	e9dd 010c 	ldrd	r0, r1, [sp, #48]	; 0x30
20007154:	f002 febe 	bl	20009ed4 <__aeabi_dcmpgt>
20007158:	b9f0      	cbnz	r0, 20007198 <_dtoa_r+0xc08>
2000715a:	f240 0100 	movw	r1, #0
2000715e:	e9dd 231a 	ldrd	r2, r3, [sp, #104]	; 0x68
20007162:	2000      	movs	r0, #0
20007164:	f6c3 71e0 	movt	r1, #16352	; 0x3fe0
20007168:	f002 fa70 	bl	2000964c <__aeabi_dsub>
2000716c:	4602      	mov	r2, r0
2000716e:	460b      	mov	r3, r1
20007170:	e9dd 010c 	ldrd	r0, r1, [sp, #48]	; 0x30
20007174:	f002 fe90 	bl	20009e98 <__aeabi_dcmplt>
20007178:	2800      	cmp	r0, #0
2000717a:	f43f acac 	beq.w	20006ad6 <_dtoa_r+0x546>
2000717e:	462b      	mov	r3, r5
20007180:	461d      	mov	r5, r3
20007182:	f813 2d01 	ldrb.w	r2, [r3, #-1]!
20007186:	2a30      	cmp	r2, #48	; 0x30
20007188:	d0fa      	beq.n	20007180 <_dtoa_r+0xbf0>
2000718a:	e61d      	b.n	20006dc8 <_dtoa_r+0x838>
2000718c:	9810      	ldr	r0, [sp, #64]	; 0x40
2000718e:	f7ff ba40 	b.w	20006612 <_dtoa_r+0x82>
20007192:	f8dd b068 	ldr.w	fp, [sp, #104]	; 0x68
20007196:	9c0c      	ldr	r4, [sp, #48]	; 0x30
20007198:	9e12      	ldr	r6, [sp, #72]	; 0x48
2000719a:	9910      	ldr	r1, [sp, #64]	; 0x40
2000719c:	e550      	b.n	20006c40 <_dtoa_r+0x6b0>
2000719e:	4658      	mov	r0, fp
200071a0:	9906      	ldr	r1, [sp, #24]
200071a2:	f001 f857 	bl	20008254 <__mcmp>
200071a6:	2800      	cmp	r0, #0
200071a8:	f6bf add0 	bge.w	20006d4c <_dtoa_r+0x7bc>
200071ac:	4659      	mov	r1, fp
200071ae:	4620      	mov	r0, r4
200071b0:	220a      	movs	r2, #10
200071b2:	2300      	movs	r3, #0
200071b4:	f001 fbc0 	bl	20008938 <__multadd>
200071b8:	9916      	ldr	r1, [sp, #88]	; 0x58
200071ba:	3e01      	subs	r6, #1
200071bc:	4683      	mov	fp, r0
200071be:	2900      	cmp	r1, #0
200071c0:	f040 8119 	bne.w	200073f6 <_dtoa_r+0xe66>
200071c4:	9a11      	ldr	r2, [sp, #68]	; 0x44
200071c6:	9208      	str	r2, [sp, #32]
200071c8:	e5c0      	b.n	20006d4c <_dtoa_r+0x7bc>
200071ca:	9806      	ldr	r0, [sp, #24]
200071cc:	6903      	ldr	r3, [r0, #16]
200071ce:	eb00 0383 	add.w	r3, r0, r3, lsl #2
200071d2:	6918      	ldr	r0, [r3, #16]
200071d4:	f000 ffec 	bl	200081b0 <__hi0bits>
200071d8:	f1c0 0320 	rsb	r3, r0, #32
200071dc:	e595      	b.n	20006d0a <_dtoa_r+0x77a>
200071de:	2101      	movs	r1, #1
200071e0:	9111      	str	r1, [sp, #68]	; 0x44
200071e2:	9108      	str	r1, [sp, #32]
200071e4:	912b      	str	r1, [sp, #172]	; 0xac
200071e6:	f7ff bb0f 	b.w	20006808 <_dtoa_r+0x278>
200071ea:	9d10      	ldr	r5, [sp, #64]	; 0x40
200071ec:	46b1      	mov	r9, r6
200071ee:	9f16      	ldr	r7, [sp, #88]	; 0x58
200071f0:	46aa      	mov	sl, r5
200071f2:	f8dd 8018 	ldr.w	r8, [sp, #24]
200071f6:	9e08      	ldr	r6, [sp, #32]
200071f8:	e002      	b.n	20007200 <_dtoa_r+0xc70>
200071fa:	f001 fb9d 	bl	20008938 <__multadd>
200071fe:	4683      	mov	fp, r0
20007200:	4641      	mov	r1, r8
20007202:	4658      	mov	r0, fp
20007204:	f7ff f934 	bl	20006470 <quorem>
20007208:	3501      	adds	r5, #1
2000720a:	220a      	movs	r2, #10
2000720c:	2300      	movs	r3, #0
2000720e:	4659      	mov	r1, fp
20007210:	f100 0c30 	add.w	ip, r0, #48	; 0x30
20007214:	f80a c007 	strb.w	ip, [sl, r7]
20007218:	3701      	adds	r7, #1
2000721a:	4620      	mov	r0, r4
2000721c:	42be      	cmp	r6, r7
2000721e:	dcec      	bgt.n	200071fa <_dtoa_r+0xc6a>
20007220:	f8dd a030 	ldr.w	sl, [sp, #48]	; 0x30
20007224:	464e      	mov	r6, r9
20007226:	2700      	movs	r7, #0
20007228:	f8cd c02c 	str.w	ip, [sp, #44]	; 0x2c
2000722c:	4659      	mov	r1, fp
2000722e:	2201      	movs	r2, #1
20007230:	4620      	mov	r0, r4
20007232:	f001 fa7f 	bl	20008734 <__lshift>
20007236:	9906      	ldr	r1, [sp, #24]
20007238:	4683      	mov	fp, r0
2000723a:	f001 f80b 	bl	20008254 <__mcmp>
2000723e:	2800      	cmp	r0, #0
20007240:	dd0f      	ble.n	20007262 <_dtoa_r+0xcd2>
20007242:	9910      	ldr	r1, [sp, #64]	; 0x40
20007244:	e000      	b.n	20007248 <_dtoa_r+0xcb8>
20007246:	461d      	mov	r5, r3
20007248:	f815 2c01 	ldrb.w	r2, [r5, #-1]
2000724c:	1e6b      	subs	r3, r5, #1
2000724e:	2a39      	cmp	r2, #57	; 0x39
20007250:	f040 808c 	bne.w	2000736c <_dtoa_r+0xddc>
20007254:	428b      	cmp	r3, r1
20007256:	d1f6      	bne.n	20007246 <_dtoa_r+0xcb6>
20007258:	9910      	ldr	r1, [sp, #64]	; 0x40
2000725a:	2331      	movs	r3, #49	; 0x31
2000725c:	3601      	adds	r6, #1
2000725e:	700b      	strb	r3, [r1, #0]
20007260:	e59a      	b.n	20006d98 <_dtoa_r+0x808>
20007262:	d103      	bne.n	2000726c <_dtoa_r+0xcdc>
20007264:	980b      	ldr	r0, [sp, #44]	; 0x2c
20007266:	f010 0f01 	tst.w	r0, #1
2000726a:	d1ea      	bne.n	20007242 <_dtoa_r+0xcb2>
2000726c:	462b      	mov	r3, r5
2000726e:	461d      	mov	r5, r3
20007270:	f813 2d01 	ldrb.w	r2, [r3, #-1]!
20007274:	2a30      	cmp	r2, #48	; 0x30
20007276:	d0fa      	beq.n	2000726e <_dtoa_r+0xcde>
20007278:	e58e      	b.n	20006d98 <_dtoa_r+0x808>
2000727a:	4659      	mov	r1, fp
2000727c:	9a15      	ldr	r2, [sp, #84]	; 0x54
2000727e:	4620      	mov	r0, r4
20007280:	f001 fb9e 	bl	200089c0 <__pow5mult>
20007284:	4683      	mov	fp, r0
20007286:	e528      	b.n	20006cda <_dtoa_r+0x74a>
20007288:	f005 030f 	and.w	r3, r5, #15
2000728c:	f64a 42c0 	movw	r2, #44224	; 0xacc0
20007290:	f2c2 0200 	movt	r2, #8192	; 0x2000
20007294:	e9dd 0106 	ldrd	r0, r1, [sp, #24]
20007298:	eb02 03c3 	add.w	r3, r2, r3, lsl #3
2000729c:	e9d3 2300 	ldrd	r2, r3, [r3]
200072a0:	f002 fb88 	bl	200099b4 <__aeabi_dmul>
200072a4:	112d      	asrs	r5, r5, #4
200072a6:	bf08      	it	eq
200072a8:	f04f 0802 	moveq.w	r8, #2
200072ac:	e9cd 010c 	strd	r0, r1, [sp, #48]	; 0x30
200072b0:	f43f aafd 	beq.w	200068ae <_dtoa_r+0x31e>
200072b4:	f64a 5798 	movw	r7, #44440	; 0xad98
200072b8:	e9dd 230c 	ldrd	r2, r3, [sp, #48]	; 0x30
200072bc:	f04f 0802 	mov.w	r8, #2
200072c0:	f2c2 0700 	movt	r7, #8192	; 0x2000
200072c4:	f015 0f01 	tst.w	r5, #1
200072c8:	4610      	mov	r0, r2
200072ca:	4619      	mov	r1, r3
200072cc:	d007      	beq.n	200072de <_dtoa_r+0xd4e>
200072ce:	e9d7 2300 	ldrd	r2, r3, [r7]
200072d2:	f108 0801 	add.w	r8, r8, #1
200072d6:	f002 fb6d 	bl	200099b4 <__aeabi_dmul>
200072da:	4602      	mov	r2, r0
200072dc:	460b      	mov	r3, r1
200072de:	3708      	adds	r7, #8
200072e0:	106d      	asrs	r5, r5, #1
200072e2:	d1ef      	bne.n	200072c4 <_dtoa_r+0xd34>
200072e4:	e9cd 230c 	strd	r2, r3, [sp, #48]	; 0x30
200072e8:	f7ff bae1 	b.w	200068ae <_dtoa_r+0x31e>
200072ec:	9915      	ldr	r1, [sp, #84]	; 0x54
200072ee:	9a17      	ldr	r2, [sp, #92]	; 0x5c
200072f0:	1a5b      	subs	r3, r3, r1
200072f2:	18c9      	adds	r1, r1, r3
200072f4:	18d2      	adds	r2, r2, r3
200072f6:	9115      	str	r1, [sp, #84]	; 0x54
200072f8:	9217      	str	r2, [sp, #92]	; 0x5c
200072fa:	e5a0      	b.n	20006e3e <_dtoa_r+0x8ae>
200072fc:	4659      	mov	r1, fp
200072fe:	4620      	mov	r0, r4
20007300:	f001 fb5e 	bl	200089c0 <__pow5mult>
20007304:	4683      	mov	fp, r0
20007306:	e4e8      	b.n	20006cda <_dtoa_r+0x74a>
20007308:	9919      	ldr	r1, [sp, #100]	; 0x64
2000730a:	2900      	cmp	r1, #0
2000730c:	d047      	beq.n	2000739e <_dtoa_r+0xe0e>
2000730e:	f503 6386 	add.w	r3, r3, #1072	; 0x430
20007312:	9f15      	ldr	r7, [sp, #84]	; 0x54
20007314:	3303      	adds	r3, #3
20007316:	9d0f      	ldr	r5, [sp, #60]	; 0x3c
20007318:	e597      	b.n	20006e4a <_dtoa_r+0x8ba>
2000731a:	3201      	adds	r2, #1
2000731c:	b2d2      	uxtb	r2, r2
2000731e:	e49d      	b.n	20006c5c <_dtoa_r+0x6cc>
20007320:	f8dd b068 	ldr.w	fp, [sp, #104]	; 0x68
20007324:	f8dd a070 	ldr.w	sl, [sp, #112]	; 0x70
20007328:	9e1d      	ldr	r6, [sp, #116]	; 0x74
2000732a:	9c0c      	ldr	r4, [sp, #48]	; 0x30
2000732c:	f7ff bbd3 	b.w	20006ad6 <_dtoa_r+0x546>
20007330:	990f      	ldr	r1, [sp, #60]	; 0x3c
20007332:	2300      	movs	r3, #0
20007334:	9808      	ldr	r0, [sp, #32]
20007336:	1a0d      	subs	r5, r1, r0
20007338:	e587      	b.n	20006e4a <_dtoa_r+0x8ba>
2000733a:	f1b9 0f00 	cmp.w	r9, #0
2000733e:	9d0f      	ldr	r5, [sp, #60]	; 0x3c
20007340:	9e0c      	ldr	r6, [sp, #48]	; 0x30
20007342:	dd0f      	ble.n	20007364 <_dtoa_r+0xdd4>
20007344:	4659      	mov	r1, fp
20007346:	2201      	movs	r2, #1
20007348:	4620      	mov	r0, r4
2000734a:	f001 f9f3 	bl	20008734 <__lshift>
2000734e:	9906      	ldr	r1, [sp, #24]
20007350:	4683      	mov	fp, r0
20007352:	f000 ff7f 	bl	20008254 <__mcmp>
20007356:	2800      	cmp	r0, #0
20007358:	dd47      	ble.n	200073ea <_dtoa_r+0xe5a>
2000735a:	990b      	ldr	r1, [sp, #44]	; 0x2c
2000735c:	2939      	cmp	r1, #57	; 0x39
2000735e:	d031      	beq.n	200073c4 <_dtoa_r+0xe34>
20007360:	3101      	adds	r1, #1
20007362:	910b      	str	r1, [sp, #44]	; 0x2c
20007364:	9a0b      	ldr	r2, [sp, #44]	; 0x2c
20007366:	f805 2b01 	strb.w	r2, [r5], #1
2000736a:	e515      	b.n	20006d98 <_dtoa_r+0x808>
2000736c:	3201      	adds	r2, #1
2000736e:	701a      	strb	r2, [r3, #0]
20007370:	e512      	b.n	20006d98 <_dtoa_r+0x808>
20007372:	9a0c      	ldr	r2, [sp, #48]	; 0x30
20007374:	4620      	mov	r0, r4
20007376:	6851      	ldr	r1, [r2, #4]
20007378:	f001 f8c2 	bl	20008500 <_Balloc>
2000737c:	9b0c      	ldr	r3, [sp, #48]	; 0x30
2000737e:	f103 010c 	add.w	r1, r3, #12
20007382:	691a      	ldr	r2, [r3, #16]
20007384:	3202      	adds	r2, #2
20007386:	0092      	lsls	r2, r2, #2
20007388:	4605      	mov	r5, r0
2000738a:	300c      	adds	r0, #12
2000738c:	f000 fdec 	bl	20007f68 <memcpy>
20007390:	4620      	mov	r0, r4
20007392:	4629      	mov	r1, r5
20007394:	2201      	movs	r2, #1
20007396:	f001 f9cd 	bl	20008734 <__lshift>
2000739a:	4682      	mov	sl, r0
2000739c:	e601      	b.n	20006fa2 <_dtoa_r+0xa12>
2000739e:	9b1f      	ldr	r3, [sp, #124]	; 0x7c
200073a0:	9f15      	ldr	r7, [sp, #84]	; 0x54
200073a2:	9d0f      	ldr	r5, [sp, #60]	; 0x3c
200073a4:	f1c3 0336 	rsb	r3, r3, #54	; 0x36
200073a8:	e54f      	b.n	20006e4a <_dtoa_r+0x8ba>
200073aa:	9d0f      	ldr	r5, [sp, #60]	; 0x3c
200073ac:	9e0c      	ldr	r6, [sp, #48]	; 0x30
200073ae:	e73d      	b.n	2000722c <_dtoa_r+0xc9c>
200073b0:	9b0b      	ldr	r3, [sp, #44]	; 0x2c
200073b2:	9d0f      	ldr	r5, [sp, #60]	; 0x3c
200073b4:	2b39      	cmp	r3, #57	; 0x39
200073b6:	9e0c      	ldr	r6, [sp, #48]	; 0x30
200073b8:	d004      	beq.n	200073c4 <_dtoa_r+0xe34>
200073ba:	980b      	ldr	r0, [sp, #44]	; 0x2c
200073bc:	1c43      	adds	r3, r0, #1
200073be:	f805 3b01 	strb.w	r3, [r5], #1
200073c2:	e4e9      	b.n	20006d98 <_dtoa_r+0x808>
200073c4:	2339      	movs	r3, #57	; 0x39
200073c6:	f805 3b01 	strb.w	r3, [r5], #1
200073ca:	9910      	ldr	r1, [sp, #64]	; 0x40
200073cc:	e73c      	b.n	20007248 <_dtoa_r+0xcb8>
200073ce:	980b      	ldr	r0, [sp, #44]	; 0x2c
200073d0:	4633      	mov	r3, r6
200073d2:	9d0f      	ldr	r5, [sp, #60]	; 0x3c
200073d4:	2839      	cmp	r0, #57	; 0x39
200073d6:	9e0c      	ldr	r6, [sp, #48]	; 0x30
200073d8:	d0f4      	beq.n	200073c4 <_dtoa_r+0xe34>
200073da:	2b00      	cmp	r3, #0
200073dc:	dd01      	ble.n	200073e2 <_dtoa_r+0xe52>
200073de:	3001      	adds	r0, #1
200073e0:	900b      	str	r0, [sp, #44]	; 0x2c
200073e2:	990b      	ldr	r1, [sp, #44]	; 0x2c
200073e4:	f805 1b01 	strb.w	r1, [r5], #1
200073e8:	e4d6      	b.n	20006d98 <_dtoa_r+0x808>
200073ea:	d1bb      	bne.n	20007364 <_dtoa_r+0xdd4>
200073ec:	980b      	ldr	r0, [sp, #44]	; 0x2c
200073ee:	f010 0f01 	tst.w	r0, #1
200073f2:	d0b7      	beq.n	20007364 <_dtoa_r+0xdd4>
200073f4:	e7b1      	b.n	2000735a <_dtoa_r+0xdca>
200073f6:	2300      	movs	r3, #0
200073f8:	990c      	ldr	r1, [sp, #48]	; 0x30
200073fa:	4620      	mov	r0, r4
200073fc:	220a      	movs	r2, #10
200073fe:	f001 fa9b 	bl	20008938 <__multadd>
20007402:	9b11      	ldr	r3, [sp, #68]	; 0x44
20007404:	9308      	str	r3, [sp, #32]
20007406:	900c      	str	r0, [sp, #48]	; 0x30
20007408:	e4a0      	b.n	20006d4c <_dtoa_r+0x7bc>
2000740a:	9908      	ldr	r1, [sp, #32]
2000740c:	290e      	cmp	r1, #14
2000740e:	bf8c      	ite	hi
20007410:	2700      	movhi	r7, #0
20007412:	f007 0701 	andls.w	r7, r7, #1
20007416:	f7ff b9fa 	b.w	2000680e <_dtoa_r+0x27e>
2000741a:	f43f ac81 	beq.w	20006d20 <_dtoa_r+0x790>
2000741e:	331c      	adds	r3, #28
20007420:	e479      	b.n	20006d16 <_dtoa_r+0x786>
20007422:	2701      	movs	r7, #1
20007424:	f7ff b98a 	b.w	2000673c <_dtoa_r+0x1ac>

20007428 <_fflush_r>:
20007428:	690b      	ldr	r3, [r1, #16]
2000742a:	e92d 41f0 	stmdb	sp!, {r4, r5, r6, r7, r8, lr}
2000742e:	460c      	mov	r4, r1
20007430:	4680      	mov	r8, r0
20007432:	2b00      	cmp	r3, #0
20007434:	d071      	beq.n	2000751a <_fflush_r+0xf2>
20007436:	b110      	cbz	r0, 2000743e <_fflush_r+0x16>
20007438:	6983      	ldr	r3, [r0, #24]
2000743a:	2b00      	cmp	r3, #0
2000743c:	d078      	beq.n	20007530 <_fflush_r+0x108>
2000743e:	f64a 4318 	movw	r3, #44056	; 0xac18
20007442:	f2c2 0300 	movt	r3, #8192	; 0x2000
20007446:	429c      	cmp	r4, r3
20007448:	bf08      	it	eq
2000744a:	f8d8 4004 	ldreq.w	r4, [r8, #4]
2000744e:	d010      	beq.n	20007472 <_fflush_r+0x4a>
20007450:	f64a 4338 	movw	r3, #44088	; 0xac38
20007454:	f2c2 0300 	movt	r3, #8192	; 0x2000
20007458:	429c      	cmp	r4, r3
2000745a:	bf08      	it	eq
2000745c:	f8d8 4008 	ldreq.w	r4, [r8, #8]
20007460:	d007      	beq.n	20007472 <_fflush_r+0x4a>
20007462:	f64a 4358 	movw	r3, #44120	; 0xac58
20007466:	f2c2 0300 	movt	r3, #8192	; 0x2000
2000746a:	429c      	cmp	r4, r3
2000746c:	bf08      	it	eq
2000746e:	f8d8 400c 	ldreq.w	r4, [r8, #12]
20007472:	89a3      	ldrh	r3, [r4, #12]
20007474:	b21a      	sxth	r2, r3
20007476:	f012 0f08 	tst.w	r2, #8
2000747a:	d135      	bne.n	200074e8 <_fflush_r+0xc0>
2000747c:	6862      	ldr	r2, [r4, #4]
2000747e:	f443 6300 	orr.w	r3, r3, #2048	; 0x800
20007482:	81a3      	strh	r3, [r4, #12]
20007484:	2a00      	cmp	r2, #0
20007486:	dd5e      	ble.n	20007546 <_fflush_r+0x11e>
20007488:	6ae6      	ldr	r6, [r4, #44]	; 0x2c
2000748a:	2e00      	cmp	r6, #0
2000748c:	d045      	beq.n	2000751a <_fflush_r+0xf2>
2000748e:	b29b      	uxth	r3, r3
20007490:	f413 5280 	ands.w	r2, r3, #4096	; 0x1000
20007494:	bf18      	it	ne
20007496:	6d65      	ldrne	r5, [r4, #84]	; 0x54
20007498:	d059      	beq.n	2000754e <_fflush_r+0x126>
2000749a:	f013 0f04 	tst.w	r3, #4
2000749e:	d14a      	bne.n	20007536 <_fflush_r+0x10e>
200074a0:	2300      	movs	r3, #0
200074a2:	4640      	mov	r0, r8
200074a4:	6a21      	ldr	r1, [r4, #32]
200074a6:	462a      	mov	r2, r5
200074a8:	47b0      	blx	r6
200074aa:	4285      	cmp	r5, r0
200074ac:	d138      	bne.n	20007520 <_fflush_r+0xf8>
200074ae:	89a1      	ldrh	r1, [r4, #12]
200074b0:	f24f 73ff 	movw	r3, #63487	; 0xf7ff
200074b4:	6922      	ldr	r2, [r4, #16]
200074b6:	f2c0 0300 	movt	r3, #0
200074ba:	ea01 0303 	and.w	r3, r1, r3
200074be:	2100      	movs	r1, #0
200074c0:	6061      	str	r1, [r4, #4]
200074c2:	f413 5f80 	tst.w	r3, #4096	; 0x1000
200074c6:	6b61      	ldr	r1, [r4, #52]	; 0x34
200074c8:	81a3      	strh	r3, [r4, #12]
200074ca:	6022      	str	r2, [r4, #0]
200074cc:	bf18      	it	ne
200074ce:	6565      	strne	r5, [r4, #84]	; 0x54
200074d0:	b319      	cbz	r1, 2000751a <_fflush_r+0xf2>
200074d2:	f104 0344 	add.w	r3, r4, #68	; 0x44
200074d6:	4299      	cmp	r1, r3
200074d8:	d002      	beq.n	200074e0 <_fflush_r+0xb8>
200074da:	4640      	mov	r0, r8
200074dc:	f000 f998 	bl	20007810 <_free_r>
200074e0:	2000      	movs	r0, #0
200074e2:	6360      	str	r0, [r4, #52]	; 0x34
200074e4:	e8bd 81f0 	ldmia.w	sp!, {r4, r5, r6, r7, r8, pc}
200074e8:	6926      	ldr	r6, [r4, #16]
200074ea:	b1b6      	cbz	r6, 2000751a <_fflush_r+0xf2>
200074ec:	6825      	ldr	r5, [r4, #0]
200074ee:	6026      	str	r6, [r4, #0]
200074f0:	1bad      	subs	r5, r5, r6
200074f2:	f012 0f03 	tst.w	r2, #3
200074f6:	bf0c      	ite	eq
200074f8:	6963      	ldreq	r3, [r4, #20]
200074fa:	2300      	movne	r3, #0
200074fc:	60a3      	str	r3, [r4, #8]
200074fe:	e00a      	b.n	20007516 <_fflush_r+0xee>
20007500:	4632      	mov	r2, r6
20007502:	462b      	mov	r3, r5
20007504:	6aa7      	ldr	r7, [r4, #40]	; 0x28
20007506:	4640      	mov	r0, r8
20007508:	6a21      	ldr	r1, [r4, #32]
2000750a:	47b8      	blx	r7
2000750c:	2800      	cmp	r0, #0
2000750e:	ebc0 0505 	rsb	r5, r0, r5
20007512:	4406      	add	r6, r0
20007514:	dd04      	ble.n	20007520 <_fflush_r+0xf8>
20007516:	2d00      	cmp	r5, #0
20007518:	dcf2      	bgt.n	20007500 <_fflush_r+0xd8>
2000751a:	2000      	movs	r0, #0
2000751c:	e8bd 81f0 	ldmia.w	sp!, {r4, r5, r6, r7, r8, pc}
20007520:	89a3      	ldrh	r3, [r4, #12]
20007522:	f04f 30ff 	mov.w	r0, #4294967295
20007526:	f043 0340 	orr.w	r3, r3, #64	; 0x40
2000752a:	81a3      	strh	r3, [r4, #12]
2000752c:	e8bd 81f0 	ldmia.w	sp!, {r4, r5, r6, r7, r8, pc}
20007530:	f000 f8ea 	bl	20007708 <__sinit>
20007534:	e783      	b.n	2000743e <_fflush_r+0x16>
20007536:	6862      	ldr	r2, [r4, #4]
20007538:	6b63      	ldr	r3, [r4, #52]	; 0x34
2000753a:	1aad      	subs	r5, r5, r2
2000753c:	2b00      	cmp	r3, #0
2000753e:	d0af      	beq.n	200074a0 <_fflush_r+0x78>
20007540:	6c23      	ldr	r3, [r4, #64]	; 0x40
20007542:	1aed      	subs	r5, r5, r3
20007544:	e7ac      	b.n	200074a0 <_fflush_r+0x78>
20007546:	6c22      	ldr	r2, [r4, #64]	; 0x40
20007548:	2a00      	cmp	r2, #0
2000754a:	dc9d      	bgt.n	20007488 <_fflush_r+0x60>
2000754c:	e7e5      	b.n	2000751a <_fflush_r+0xf2>
2000754e:	2301      	movs	r3, #1
20007550:	4640      	mov	r0, r8
20007552:	6a21      	ldr	r1, [r4, #32]
20007554:	47b0      	blx	r6
20007556:	f1b0 3fff 	cmp.w	r0, #4294967295
2000755a:	4605      	mov	r5, r0
2000755c:	d002      	beq.n	20007564 <_fflush_r+0x13c>
2000755e:	89a3      	ldrh	r3, [r4, #12]
20007560:	6ae6      	ldr	r6, [r4, #44]	; 0x2c
20007562:	e79a      	b.n	2000749a <_fflush_r+0x72>
20007564:	f8d8 3000 	ldr.w	r3, [r8]
20007568:	2b1d      	cmp	r3, #29
2000756a:	d0d6      	beq.n	2000751a <_fflush_r+0xf2>
2000756c:	89a3      	ldrh	r3, [r4, #12]
2000756e:	f043 0340 	orr.w	r3, r3, #64	; 0x40
20007572:	81a3      	strh	r3, [r4, #12]
20007574:	e8bd 81f0 	ldmia.w	sp!, {r4, r5, r6, r7, r8, pc}

20007578 <fflush>:
20007578:	4601      	mov	r1, r0
2000757a:	b128      	cbz	r0, 20007588 <fflush+0x10>
2000757c:	f64a 632c 	movw	r3, #44588	; 0xae2c
20007580:	f2c2 0300 	movt	r3, #8192	; 0x2000
20007584:	6818      	ldr	r0, [r3, #0]
20007586:	e74f      	b.n	20007428 <_fflush_r>
20007588:	f64a 339c 	movw	r3, #43932	; 0xab9c
2000758c:	f247 4129 	movw	r1, #29737	; 0x7429
20007590:	f2c2 0300 	movt	r3, #8192	; 0x2000
20007594:	f2c2 0100 	movt	r1, #8192	; 0x2000
20007598:	6818      	ldr	r0, [r3, #0]
2000759a:	f000 bbb3 	b.w	20007d04 <_fwalk_reent>
2000759e:	bf00      	nop

200075a0 <__sfp_lock_acquire>:
200075a0:	4770      	bx	lr
200075a2:	bf00      	nop

200075a4 <__sfp_lock_release>:
200075a4:	4770      	bx	lr
200075a6:	bf00      	nop

200075a8 <__sinit_lock_acquire>:
200075a8:	4770      	bx	lr
200075aa:	bf00      	nop

200075ac <__sinit_lock_release>:
200075ac:	4770      	bx	lr
200075ae:	bf00      	nop

200075b0 <__fp_lock>:
200075b0:	2000      	movs	r0, #0
200075b2:	4770      	bx	lr

200075b4 <__fp_unlock>:
200075b4:	2000      	movs	r0, #0
200075b6:	4770      	bx	lr

200075b8 <__fp_unlock_all>:
200075b8:	f64a 632c 	movw	r3, #44588	; 0xae2c
200075bc:	f247 51b5 	movw	r1, #30133	; 0x75b5
200075c0:	f2c2 0300 	movt	r3, #8192	; 0x2000
200075c4:	f2c2 0100 	movt	r1, #8192	; 0x2000
200075c8:	6818      	ldr	r0, [r3, #0]
200075ca:	f000 bbc5 	b.w	20007d58 <_fwalk>
200075ce:	bf00      	nop

200075d0 <__fp_lock_all>:
200075d0:	f64a 632c 	movw	r3, #44588	; 0xae2c
200075d4:	f247 51b1 	movw	r1, #30129	; 0x75b1
200075d8:	f2c2 0300 	movt	r3, #8192	; 0x2000
200075dc:	f2c2 0100 	movt	r1, #8192	; 0x2000
200075e0:	6818      	ldr	r0, [r3, #0]
200075e2:	f000 bbb9 	b.w	20007d58 <_fwalk>
200075e6:	bf00      	nop

200075e8 <_cleanup_r>:
200075e8:	f249 3109 	movw	r1, #37641	; 0x9309
200075ec:	f2c2 0100 	movt	r1, #8192	; 0x2000
200075f0:	f000 bbb2 	b.w	20007d58 <_fwalk>

200075f4 <_cleanup>:
200075f4:	f64a 339c 	movw	r3, #43932	; 0xab9c
200075f8:	f2c2 0300 	movt	r3, #8192	; 0x2000
200075fc:	6818      	ldr	r0, [r3, #0]
200075fe:	e7f3      	b.n	200075e8 <_cleanup_r>

20007600 <std>:
20007600:	b510      	push	{r4, lr}
20007602:	4604      	mov	r4, r0
20007604:	2300      	movs	r3, #0
20007606:	305c      	adds	r0, #92	; 0x5c
20007608:	81a1      	strh	r1, [r4, #12]
2000760a:	4619      	mov	r1, r3
2000760c:	81e2      	strh	r2, [r4, #14]
2000760e:	2208      	movs	r2, #8
20007610:	6023      	str	r3, [r4, #0]
20007612:	6063      	str	r3, [r4, #4]
20007614:	60a3      	str	r3, [r4, #8]
20007616:	6663      	str	r3, [r4, #100]	; 0x64
20007618:	6123      	str	r3, [r4, #16]
2000761a:	6163      	str	r3, [r4, #20]
2000761c:	61a3      	str	r3, [r4, #24]
2000761e:	f7fd f94b 	bl	200048b8 <memset>
20007622:	f648 7069 	movw	r0, #36713	; 0x8f69
20007626:	f648 712d 	movw	r1, #36653	; 0x8f2d
2000762a:	f648 7205 	movw	r2, #36613	; 0x8f05
2000762e:	f648 63fd 	movw	r3, #36605	; 0x8efd
20007632:	f2c2 0000 	movt	r0, #8192	; 0x2000
20007636:	f2c2 0100 	movt	r1, #8192	; 0x2000
2000763a:	f2c2 0200 	movt	r2, #8192	; 0x2000
2000763e:	f2c2 0300 	movt	r3, #8192	; 0x2000
20007642:	6260      	str	r0, [r4, #36]	; 0x24
20007644:	62a1      	str	r1, [r4, #40]	; 0x28
20007646:	62e2      	str	r2, [r4, #44]	; 0x2c
20007648:	6323      	str	r3, [r4, #48]	; 0x30
2000764a:	6224      	str	r4, [r4, #32]
2000764c:	bd10      	pop	{r4, pc}
2000764e:	bf00      	nop

20007650 <__sfmoreglue>:
20007650:	b570      	push	{r4, r5, r6, lr}
20007652:	2568      	movs	r5, #104	; 0x68
20007654:	460e      	mov	r6, r1
20007656:	fb05 f501 	mul.w	r5, r5, r1
2000765a:	f105 010c 	add.w	r1, r5, #12
2000765e:	f7fc fe59 	bl	20004314 <_malloc_r>
20007662:	4604      	mov	r4, r0
20007664:	b148      	cbz	r0, 2000767a <__sfmoreglue+0x2a>
20007666:	f100 030c 	add.w	r3, r0, #12
2000766a:	2100      	movs	r1, #0
2000766c:	6046      	str	r6, [r0, #4]
2000766e:	462a      	mov	r2, r5
20007670:	4618      	mov	r0, r3
20007672:	6021      	str	r1, [r4, #0]
20007674:	60a3      	str	r3, [r4, #8]
20007676:	f7fd f91f 	bl	200048b8 <memset>
2000767a:	4620      	mov	r0, r4
2000767c:	bd70      	pop	{r4, r5, r6, pc}
2000767e:	bf00      	nop

20007680 <__sfp>:
20007680:	f64a 339c 	movw	r3, #43932	; 0xab9c
20007684:	f2c2 0300 	movt	r3, #8192	; 0x2000
20007688:	b570      	push	{r4, r5, r6, lr}
2000768a:	681d      	ldr	r5, [r3, #0]
2000768c:	4606      	mov	r6, r0
2000768e:	69ab      	ldr	r3, [r5, #24]
20007690:	2b00      	cmp	r3, #0
20007692:	d02a      	beq.n	200076ea <__sfp+0x6a>
20007694:	35d8      	adds	r5, #216	; 0xd8
20007696:	686b      	ldr	r3, [r5, #4]
20007698:	68ac      	ldr	r4, [r5, #8]
2000769a:	3b01      	subs	r3, #1
2000769c:	d503      	bpl.n	200076a6 <__sfp+0x26>
2000769e:	e020      	b.n	200076e2 <__sfp+0x62>
200076a0:	3468      	adds	r4, #104	; 0x68
200076a2:	3b01      	subs	r3, #1
200076a4:	d41d      	bmi.n	200076e2 <__sfp+0x62>
200076a6:	f9b4 200c 	ldrsh.w	r2, [r4, #12]
200076aa:	2a00      	cmp	r2, #0
200076ac:	d1f8      	bne.n	200076a0 <__sfp+0x20>
200076ae:	2500      	movs	r5, #0
200076b0:	f04f 33ff 	mov.w	r3, #4294967295
200076b4:	6665      	str	r5, [r4, #100]	; 0x64
200076b6:	f104 005c 	add.w	r0, r4, #92	; 0x5c
200076ba:	81e3      	strh	r3, [r4, #14]
200076bc:	4629      	mov	r1, r5
200076be:	f04f 0301 	mov.w	r3, #1
200076c2:	6025      	str	r5, [r4, #0]
200076c4:	81a3      	strh	r3, [r4, #12]
200076c6:	2208      	movs	r2, #8
200076c8:	60a5      	str	r5, [r4, #8]
200076ca:	6065      	str	r5, [r4, #4]
200076cc:	6125      	str	r5, [r4, #16]
200076ce:	6165      	str	r5, [r4, #20]
200076d0:	61a5      	str	r5, [r4, #24]
200076d2:	f7fd f8f1 	bl	200048b8 <memset>
200076d6:	64e5      	str	r5, [r4, #76]	; 0x4c
200076d8:	6365      	str	r5, [r4, #52]	; 0x34
200076da:	63a5      	str	r5, [r4, #56]	; 0x38
200076dc:	64a5      	str	r5, [r4, #72]	; 0x48
200076de:	4620      	mov	r0, r4
200076e0:	bd70      	pop	{r4, r5, r6, pc}
200076e2:	6828      	ldr	r0, [r5, #0]
200076e4:	b128      	cbz	r0, 200076f2 <__sfp+0x72>
200076e6:	4605      	mov	r5, r0
200076e8:	e7d5      	b.n	20007696 <__sfp+0x16>
200076ea:	4628      	mov	r0, r5
200076ec:	f000 f80c 	bl	20007708 <__sinit>
200076f0:	e7d0      	b.n	20007694 <__sfp+0x14>
200076f2:	4630      	mov	r0, r6
200076f4:	2104      	movs	r1, #4
200076f6:	f7ff ffab 	bl	20007650 <__sfmoreglue>
200076fa:	6028      	str	r0, [r5, #0]
200076fc:	2800      	cmp	r0, #0
200076fe:	d1f2      	bne.n	200076e6 <__sfp+0x66>
20007700:	230c      	movs	r3, #12
20007702:	4604      	mov	r4, r0
20007704:	6033      	str	r3, [r6, #0]
20007706:	e7ea      	b.n	200076de <__sfp+0x5e>

20007708 <__sinit>:
20007708:	b570      	push	{r4, r5, r6, lr}
2000770a:	6986      	ldr	r6, [r0, #24]
2000770c:	4604      	mov	r4, r0
2000770e:	b106      	cbz	r6, 20007712 <__sinit+0xa>
20007710:	bd70      	pop	{r4, r5, r6, pc}
20007712:	f247 53e9 	movw	r3, #30185	; 0x75e9
20007716:	2501      	movs	r5, #1
20007718:	f2c2 0300 	movt	r3, #8192	; 0x2000
2000771c:	f8c0 60d8 	str.w	r6, [r0, #216]	; 0xd8
20007720:	6283      	str	r3, [r0, #40]	; 0x28
20007722:	f8c0 60dc 	str.w	r6, [r0, #220]	; 0xdc
20007726:	f8c0 60e0 	str.w	r6, [r0, #224]	; 0xe0
2000772a:	6185      	str	r5, [r0, #24]
2000772c:	f7ff ffa8 	bl	20007680 <__sfp>
20007730:	6060      	str	r0, [r4, #4]
20007732:	4620      	mov	r0, r4
20007734:	f7ff ffa4 	bl	20007680 <__sfp>
20007738:	60a0      	str	r0, [r4, #8]
2000773a:	4620      	mov	r0, r4
2000773c:	f7ff ffa0 	bl	20007680 <__sfp>
20007740:	4632      	mov	r2, r6
20007742:	2104      	movs	r1, #4
20007744:	4623      	mov	r3, r4
20007746:	60e0      	str	r0, [r4, #12]
20007748:	6860      	ldr	r0, [r4, #4]
2000774a:	f7ff ff59 	bl	20007600 <std>
2000774e:	462a      	mov	r2, r5
20007750:	68a0      	ldr	r0, [r4, #8]
20007752:	2109      	movs	r1, #9
20007754:	4623      	mov	r3, r4
20007756:	f7ff ff53 	bl	20007600 <std>
2000775a:	4623      	mov	r3, r4
2000775c:	68e0      	ldr	r0, [r4, #12]
2000775e:	2112      	movs	r1, #18
20007760:	2202      	movs	r2, #2
20007762:	e8bd 4070 	ldmia.w	sp!, {r4, r5, r6, lr}
20007766:	e74b      	b.n	20007600 <std>

20007768 <_malloc_trim_r>:
20007768:	b5f8      	push	{r3, r4, r5, r6, r7, lr}
2000776a:	f64a 7420 	movw	r4, #44832	; 0xaf20
2000776e:	f2c2 0400 	movt	r4, #8192	; 0x2000
20007772:	460f      	mov	r7, r1
20007774:	4605      	mov	r5, r0
20007776:	f7fd f909 	bl	2000498c <__malloc_lock>
2000777a:	68a3      	ldr	r3, [r4, #8]
2000777c:	685e      	ldr	r6, [r3, #4]
2000777e:	f026 0603 	bic.w	r6, r6, #3
20007782:	f506 637e 	add.w	r3, r6, #4064	; 0xfe0
20007786:	330f      	adds	r3, #15
20007788:	1bdf      	subs	r7, r3, r7
2000778a:	0b3f      	lsrs	r7, r7, #12
2000778c:	3f01      	subs	r7, #1
2000778e:	033f      	lsls	r7, r7, #12
20007790:	f5b7 5f80 	cmp.w	r7, #4096	; 0x1000
20007794:	db07      	blt.n	200077a6 <_malloc_trim_r+0x3e>
20007796:	2100      	movs	r1, #0
20007798:	4628      	mov	r0, r5
2000779a:	f7fd f92d 	bl	200049f8 <_sbrk_r>
2000779e:	68a3      	ldr	r3, [r4, #8]
200077a0:	18f3      	adds	r3, r6, r3
200077a2:	4283      	cmp	r3, r0
200077a4:	d004      	beq.n	200077b0 <_malloc_trim_r+0x48>
200077a6:	4628      	mov	r0, r5
200077a8:	f7fd f8f2 	bl	20004990 <__malloc_unlock>
200077ac:	2000      	movs	r0, #0
200077ae:	bdf8      	pop	{r3, r4, r5, r6, r7, pc}
200077b0:	4279      	negs	r1, r7
200077b2:	4628      	mov	r0, r5
200077b4:	f7fd f920 	bl	200049f8 <_sbrk_r>
200077b8:	f1b0 3fff 	cmp.w	r0, #4294967295
200077bc:	d010      	beq.n	200077e0 <_malloc_trim_r+0x78>
200077be:	68a2      	ldr	r2, [r4, #8]
200077c0:	f24b 3348 	movw	r3, #45896	; 0xb348
200077c4:	f2c2 0300 	movt	r3, #8192	; 0x2000
200077c8:	1bf6      	subs	r6, r6, r7
200077ca:	f046 0601 	orr.w	r6, r6, #1
200077ce:	4628      	mov	r0, r5
200077d0:	6056      	str	r6, [r2, #4]
200077d2:	681a      	ldr	r2, [r3, #0]
200077d4:	1bd7      	subs	r7, r2, r7
200077d6:	601f      	str	r7, [r3, #0]
200077d8:	f7fd f8da 	bl	20004990 <__malloc_unlock>
200077dc:	2001      	movs	r0, #1
200077de:	bdf8      	pop	{r3, r4, r5, r6, r7, pc}
200077e0:	2100      	movs	r1, #0
200077e2:	4628      	mov	r0, r5
200077e4:	f7fd f908 	bl	200049f8 <_sbrk_r>
200077e8:	68a3      	ldr	r3, [r4, #8]
200077ea:	1ac2      	subs	r2, r0, r3
200077ec:	2a0f      	cmp	r2, #15
200077ee:	ddda      	ble.n	200077a6 <_malloc_trim_r+0x3e>
200077f0:	f24b 3428 	movw	r4, #45864	; 0xb328
200077f4:	f24b 3148 	movw	r1, #45896	; 0xb348
200077f8:	f2c2 0400 	movt	r4, #8192	; 0x2000
200077fc:	f2c2 0100 	movt	r1, #8192	; 0x2000
20007800:	f042 0201 	orr.w	r2, r2, #1
20007804:	6824      	ldr	r4, [r4, #0]
20007806:	1b00      	subs	r0, r0, r4
20007808:	6008      	str	r0, [r1, #0]
2000780a:	605a      	str	r2, [r3, #4]
2000780c:	e7cb      	b.n	200077a6 <_malloc_trim_r+0x3e>
2000780e:	bf00      	nop

20007810 <_free_r>:
20007810:	e92d 41f0 	stmdb	sp!, {r4, r5, r6, r7, r8, lr}
20007814:	4605      	mov	r5, r0
20007816:	460c      	mov	r4, r1
20007818:	2900      	cmp	r1, #0
2000781a:	f000 8088 	beq.w	2000792e <_free_r+0x11e>
2000781e:	f7fd f8b5 	bl	2000498c <__malloc_lock>
20007822:	f1a4 0208 	sub.w	r2, r4, #8
20007826:	f64a 7020 	movw	r0, #44832	; 0xaf20
2000782a:	6856      	ldr	r6, [r2, #4]
2000782c:	f2c2 0000 	movt	r0, #8192	; 0x2000
20007830:	f026 0301 	bic.w	r3, r6, #1
20007834:	f8d0 c008 	ldr.w	ip, [r0, #8]
20007838:	18d1      	adds	r1, r2, r3
2000783a:	458c      	cmp	ip, r1
2000783c:	684f      	ldr	r7, [r1, #4]
2000783e:	f027 0703 	bic.w	r7, r7, #3
20007842:	f000 8095 	beq.w	20007970 <_free_r+0x160>
20007846:	f016 0601 	ands.w	r6, r6, #1
2000784a:	604f      	str	r7, [r1, #4]
2000784c:	d05f      	beq.n	2000790e <_free_r+0xfe>
2000784e:	2600      	movs	r6, #0
20007850:	19cc      	adds	r4, r1, r7
20007852:	6864      	ldr	r4, [r4, #4]
20007854:	f014 0f01 	tst.w	r4, #1
20007858:	d106      	bne.n	20007868 <_free_r+0x58>
2000785a:	19db      	adds	r3, r3, r7
2000785c:	2e00      	cmp	r6, #0
2000785e:	d07a      	beq.n	20007956 <_free_r+0x146>
20007860:	688c      	ldr	r4, [r1, #8]
20007862:	68c9      	ldr	r1, [r1, #12]
20007864:	608c      	str	r4, [r1, #8]
20007866:	60e1      	str	r1, [r4, #12]
20007868:	f043 0101 	orr.w	r1, r3, #1
2000786c:	50d3      	str	r3, [r2, r3]
2000786e:	6051      	str	r1, [r2, #4]
20007870:	2e00      	cmp	r6, #0
20007872:	d147      	bne.n	20007904 <_free_r+0xf4>
20007874:	f5b3 7f00 	cmp.w	r3, #512	; 0x200
20007878:	d35b      	bcc.n	20007932 <_free_r+0x122>
2000787a:	0a59      	lsrs	r1, r3, #9
2000787c:	2904      	cmp	r1, #4
2000787e:	bf9e      	ittt	ls
20007880:	ea4f 1c93 	movls.w	ip, r3, lsr #6
20007884:	f10c 0c38 	addls.w	ip, ip, #56	; 0x38
20007888:	ea4f 04cc 	movls.w	r4, ip, lsl #3
2000788c:	d928      	bls.n	200078e0 <_free_r+0xd0>
2000788e:	2914      	cmp	r1, #20
20007890:	bf9c      	itt	ls
20007892:	f101 0c5b 	addls.w	ip, r1, #91	; 0x5b
20007896:	ea4f 04cc 	movls.w	r4, ip, lsl #3
2000789a:	d921      	bls.n	200078e0 <_free_r+0xd0>
2000789c:	2954      	cmp	r1, #84	; 0x54
2000789e:	bf9e      	ittt	ls
200078a0:	ea4f 3c13 	movls.w	ip, r3, lsr #12
200078a4:	f10c 0c6e 	addls.w	ip, ip, #110	; 0x6e
200078a8:	ea4f 04cc 	movls.w	r4, ip, lsl #3
200078ac:	d918      	bls.n	200078e0 <_free_r+0xd0>
200078ae:	f5b1 7faa 	cmp.w	r1, #340	; 0x154
200078b2:	bf9e      	ittt	ls
200078b4:	ea4f 3cd3 	movls.w	ip, r3, lsr #15
200078b8:	f10c 0c77 	addls.w	ip, ip, #119	; 0x77
200078bc:	ea4f 04cc 	movls.w	r4, ip, lsl #3
200078c0:	d90e      	bls.n	200078e0 <_free_r+0xd0>
200078c2:	f240 5c54 	movw	ip, #1364	; 0x554
200078c6:	4561      	cmp	r1, ip
200078c8:	bf95      	itete	ls
200078ca:	ea4f 4c93 	movls.w	ip, r3, lsr #18
200078ce:	f44f 747c 	movhi.w	r4, #1008	; 0x3f0
200078d2:	f10c 0c7c 	addls.w	ip, ip, #124	; 0x7c
200078d6:	f04f 0c7e 	movhi.w	ip, #126	; 0x7e
200078da:	bf98      	it	ls
200078dc:	ea4f 04cc 	movls.w	r4, ip, lsl #3
200078e0:	1904      	adds	r4, r0, r4
200078e2:	68a1      	ldr	r1, [r4, #8]
200078e4:	42a1      	cmp	r1, r4
200078e6:	d103      	bne.n	200078f0 <_free_r+0xe0>
200078e8:	e064      	b.n	200079b4 <_free_r+0x1a4>
200078ea:	6889      	ldr	r1, [r1, #8]
200078ec:	428c      	cmp	r4, r1
200078ee:	d004      	beq.n	200078fa <_free_r+0xea>
200078f0:	6848      	ldr	r0, [r1, #4]
200078f2:	f020 0003 	bic.w	r0, r0, #3
200078f6:	4283      	cmp	r3, r0
200078f8:	d3f7      	bcc.n	200078ea <_free_r+0xda>
200078fa:	68cb      	ldr	r3, [r1, #12]
200078fc:	60d3      	str	r3, [r2, #12]
200078fe:	6091      	str	r1, [r2, #8]
20007900:	60ca      	str	r2, [r1, #12]
20007902:	609a      	str	r2, [r3, #8]
20007904:	4628      	mov	r0, r5
20007906:	e8bd 41f0 	ldmia.w	sp!, {r4, r5, r6, r7, r8, lr}
2000790a:	f7fd b841 	b.w	20004990 <__malloc_unlock>
2000790e:	f854 4c08 	ldr.w	r4, [r4, #-8]
20007912:	f100 0c08 	add.w	ip, r0, #8
20007916:	1b12      	subs	r2, r2, r4
20007918:	191b      	adds	r3, r3, r4
2000791a:	6894      	ldr	r4, [r2, #8]
2000791c:	4564      	cmp	r4, ip
2000791e:	d047      	beq.n	200079b0 <_free_r+0x1a0>
20007920:	f8d2 c00c 	ldr.w	ip, [r2, #12]
20007924:	f8cc 4008 	str.w	r4, [ip, #8]
20007928:	f8c4 c00c 	str.w	ip, [r4, #12]
2000792c:	e790      	b.n	20007850 <_free_r+0x40>
2000792e:	e8bd 81f0 	ldmia.w	sp!, {r4, r5, r6, r7, r8, pc}
20007932:	08db      	lsrs	r3, r3, #3
20007934:	f04f 0c01 	mov.w	ip, #1
20007938:	6846      	ldr	r6, [r0, #4]
2000793a:	eb00 01c3 	add.w	r1, r0, r3, lsl #3
2000793e:	109b      	asrs	r3, r3, #2
20007940:	fa0c f303 	lsl.w	r3, ip, r3
20007944:	60d1      	str	r1, [r2, #12]
20007946:	688c      	ldr	r4, [r1, #8]
20007948:	ea46 0303 	orr.w	r3, r6, r3
2000794c:	6043      	str	r3, [r0, #4]
2000794e:	6094      	str	r4, [r2, #8]
20007950:	60e2      	str	r2, [r4, #12]
20007952:	608a      	str	r2, [r1, #8]
20007954:	e7d6      	b.n	20007904 <_free_r+0xf4>
20007956:	688c      	ldr	r4, [r1, #8]
20007958:	4f1c      	ldr	r7, [pc, #112]	; (200079cc <_free_r+0x1bc>)
2000795a:	42bc      	cmp	r4, r7
2000795c:	d181      	bne.n	20007862 <_free_r+0x52>
2000795e:	50d3      	str	r3, [r2, r3]
20007960:	f043 0301 	orr.w	r3, r3, #1
20007964:	60e2      	str	r2, [r4, #12]
20007966:	60a2      	str	r2, [r4, #8]
20007968:	6053      	str	r3, [r2, #4]
2000796a:	6094      	str	r4, [r2, #8]
2000796c:	60d4      	str	r4, [r2, #12]
2000796e:	e7c9      	b.n	20007904 <_free_r+0xf4>
20007970:	18fb      	adds	r3, r7, r3
20007972:	f016 0f01 	tst.w	r6, #1
20007976:	d107      	bne.n	20007988 <_free_r+0x178>
20007978:	f854 1c08 	ldr.w	r1, [r4, #-8]
2000797c:	1a52      	subs	r2, r2, r1
2000797e:	185b      	adds	r3, r3, r1
20007980:	68d4      	ldr	r4, [r2, #12]
20007982:	6891      	ldr	r1, [r2, #8]
20007984:	60a1      	str	r1, [r4, #8]
20007986:	60cc      	str	r4, [r1, #12]
20007988:	f24b 312c 	movw	r1, #45868	; 0xb32c
2000798c:	6082      	str	r2, [r0, #8]
2000798e:	f2c2 0100 	movt	r1, #8192	; 0x2000
20007992:	f043 0001 	orr.w	r0, r3, #1
20007996:	6050      	str	r0, [r2, #4]
20007998:	680a      	ldr	r2, [r1, #0]
2000799a:	4293      	cmp	r3, r2
2000799c:	d3b2      	bcc.n	20007904 <_free_r+0xf4>
2000799e:	f24b 3344 	movw	r3, #45892	; 0xb344
200079a2:	4628      	mov	r0, r5
200079a4:	f2c2 0300 	movt	r3, #8192	; 0x2000
200079a8:	6819      	ldr	r1, [r3, #0]
200079aa:	f7ff fedd 	bl	20007768 <_malloc_trim_r>
200079ae:	e7a9      	b.n	20007904 <_free_r+0xf4>
200079b0:	2601      	movs	r6, #1
200079b2:	e74d      	b.n	20007850 <_free_r+0x40>
200079b4:	2601      	movs	r6, #1
200079b6:	6844      	ldr	r4, [r0, #4]
200079b8:	ea4f 0cac 	mov.w	ip, ip, asr #2
200079bc:	460b      	mov	r3, r1
200079be:	fa06 fc0c 	lsl.w	ip, r6, ip
200079c2:	ea44 040c 	orr.w	r4, r4, ip
200079c6:	6044      	str	r4, [r0, #4]
200079c8:	e798      	b.n	200078fc <_free_r+0xec>
200079ca:	bf00      	nop
200079cc:	2000af28 	.word	0x2000af28

200079d0 <__sfvwrite_r>:
200079d0:	e92d 4ff0 	stmdb	sp!, {r4, r5, r6, r7, r8, r9, sl, fp, lr}
200079d4:	6893      	ldr	r3, [r2, #8]
200079d6:	b085      	sub	sp, #20
200079d8:	4690      	mov	r8, r2
200079da:	460c      	mov	r4, r1
200079dc:	9003      	str	r0, [sp, #12]
200079de:	2b00      	cmp	r3, #0
200079e0:	d064      	beq.n	20007aac <__sfvwrite_r+0xdc>
200079e2:	8988      	ldrh	r0, [r1, #12]
200079e4:	fa1f fa80 	uxth.w	sl, r0
200079e8:	f01a 0f08 	tst.w	sl, #8
200079ec:	f000 80a0 	beq.w	20007b30 <__sfvwrite_r+0x160>
200079f0:	690b      	ldr	r3, [r1, #16]
200079f2:	2b00      	cmp	r3, #0
200079f4:	f000 809c 	beq.w	20007b30 <__sfvwrite_r+0x160>
200079f8:	f01a 0b02 	ands.w	fp, sl, #2
200079fc:	f8d8 5000 	ldr.w	r5, [r8]
20007a00:	bf1c      	itt	ne
20007a02:	f04f 0a00 	movne.w	sl, #0
20007a06:	4657      	movne	r7, sl
20007a08:	d136      	bne.n	20007a78 <__sfvwrite_r+0xa8>
20007a0a:	f01a 0a01 	ands.w	sl, sl, #1
20007a0e:	bf1d      	ittte	ne
20007a10:	46dc      	movne	ip, fp
20007a12:	46d9      	movne	r9, fp
20007a14:	465f      	movne	r7, fp
20007a16:	4656      	moveq	r6, sl
20007a18:	d152      	bne.n	20007ac0 <__sfvwrite_r+0xf0>
20007a1a:	b326      	cbz	r6, 20007a66 <__sfvwrite_r+0x96>
20007a1c:	b280      	uxth	r0, r0
20007a1e:	68a7      	ldr	r7, [r4, #8]
20007a20:	f410 7f00 	tst.w	r0, #512	; 0x200
20007a24:	f000 808f 	beq.w	20007b46 <__sfvwrite_r+0x176>
20007a28:	42be      	cmp	r6, r7
20007a2a:	46bb      	mov	fp, r7
20007a2c:	f080 80a7 	bcs.w	20007b7e <__sfvwrite_r+0x1ae>
20007a30:	6820      	ldr	r0, [r4, #0]
20007a32:	4637      	mov	r7, r6
20007a34:	46b3      	mov	fp, r6
20007a36:	465a      	mov	r2, fp
20007a38:	4651      	mov	r1, sl
20007a3a:	f000 fb5d 	bl	200080f8 <memmove>
20007a3e:	68a2      	ldr	r2, [r4, #8]
20007a40:	6823      	ldr	r3, [r4, #0]
20007a42:	46b1      	mov	r9, r6
20007a44:	1bd7      	subs	r7, r2, r7
20007a46:	60a7      	str	r7, [r4, #8]
20007a48:	4637      	mov	r7, r6
20007a4a:	445b      	add	r3, fp
20007a4c:	6023      	str	r3, [r4, #0]
20007a4e:	f8d8 3008 	ldr.w	r3, [r8, #8]
20007a52:	ebc9 0606 	rsb	r6, r9, r6
20007a56:	44ca      	add	sl, r9
20007a58:	1bdf      	subs	r7, r3, r7
20007a5a:	f8c8 7008 	str.w	r7, [r8, #8]
20007a5e:	b32f      	cbz	r7, 20007aac <__sfvwrite_r+0xdc>
20007a60:	89a0      	ldrh	r0, [r4, #12]
20007a62:	2e00      	cmp	r6, #0
20007a64:	d1da      	bne.n	20007a1c <__sfvwrite_r+0x4c>
20007a66:	f8d5 a000 	ldr.w	sl, [r5]
20007a6a:	686e      	ldr	r6, [r5, #4]
20007a6c:	3508      	adds	r5, #8
20007a6e:	e7d4      	b.n	20007a1a <__sfvwrite_r+0x4a>
20007a70:	f8d5 a000 	ldr.w	sl, [r5]
20007a74:	686f      	ldr	r7, [r5, #4]
20007a76:	3508      	adds	r5, #8
20007a78:	f5b7 6f80 	cmp.w	r7, #1024	; 0x400
20007a7c:	bf34      	ite	cc
20007a7e:	463b      	movcc	r3, r7
20007a80:	f44f 6380 	movcs.w	r3, #1024	; 0x400
20007a84:	4652      	mov	r2, sl
20007a86:	9803      	ldr	r0, [sp, #12]
20007a88:	2f00      	cmp	r7, #0
20007a8a:	d0f1      	beq.n	20007a70 <__sfvwrite_r+0xa0>
20007a8c:	6aa6      	ldr	r6, [r4, #40]	; 0x28
20007a8e:	6a21      	ldr	r1, [r4, #32]
20007a90:	47b0      	blx	r6
20007a92:	2800      	cmp	r0, #0
20007a94:	4482      	add	sl, r0
20007a96:	ebc0 0707 	rsb	r7, r0, r7
20007a9a:	f340 80ec 	ble.w	20007c76 <__sfvwrite_r+0x2a6>
20007a9e:	f8d8 3008 	ldr.w	r3, [r8, #8]
20007aa2:	1a18      	subs	r0, r3, r0
20007aa4:	f8c8 0008 	str.w	r0, [r8, #8]
20007aa8:	2800      	cmp	r0, #0
20007aaa:	d1e5      	bne.n	20007a78 <__sfvwrite_r+0xa8>
20007aac:	2000      	movs	r0, #0
20007aae:	b005      	add	sp, #20
20007ab0:	e8bd 8ff0 	ldmia.w	sp!, {r4, r5, r6, r7, r8, r9, sl, fp, pc}
20007ab4:	f8d5 9000 	ldr.w	r9, [r5]
20007ab8:	f04f 0c00 	mov.w	ip, #0
20007abc:	686f      	ldr	r7, [r5, #4]
20007abe:	3508      	adds	r5, #8
20007ac0:	2f00      	cmp	r7, #0
20007ac2:	d0f7      	beq.n	20007ab4 <__sfvwrite_r+0xe4>
20007ac4:	f1bc 0f00 	cmp.w	ip, #0
20007ac8:	f000 80b5 	beq.w	20007c36 <__sfvwrite_r+0x266>
20007acc:	6963      	ldr	r3, [r4, #20]
20007ace:	45bb      	cmp	fp, r7
20007ad0:	bf34      	ite	cc
20007ad2:	46da      	movcc	sl, fp
20007ad4:	46ba      	movcs	sl, r7
20007ad6:	68a6      	ldr	r6, [r4, #8]
20007ad8:	6820      	ldr	r0, [r4, #0]
20007ada:	6922      	ldr	r2, [r4, #16]
20007adc:	199e      	adds	r6, r3, r6
20007ade:	4290      	cmp	r0, r2
20007ae0:	bf94      	ite	ls
20007ae2:	2200      	movls	r2, #0
20007ae4:	2201      	movhi	r2, #1
20007ae6:	45b2      	cmp	sl, r6
20007ae8:	bfd4      	ite	le
20007aea:	2200      	movle	r2, #0
20007aec:	f002 0201 	andgt.w	r2, r2, #1
20007af0:	2a00      	cmp	r2, #0
20007af2:	f040 80ae 	bne.w	20007c52 <__sfvwrite_r+0x282>
20007af6:	459a      	cmp	sl, r3
20007af8:	f2c0 8082 	blt.w	20007c00 <__sfvwrite_r+0x230>
20007afc:	6aa6      	ldr	r6, [r4, #40]	; 0x28
20007afe:	464a      	mov	r2, r9
20007b00:	f8cd c004 	str.w	ip, [sp, #4]
20007b04:	9803      	ldr	r0, [sp, #12]
20007b06:	6a21      	ldr	r1, [r4, #32]
20007b08:	47b0      	blx	r6
20007b0a:	f8dd c004 	ldr.w	ip, [sp, #4]
20007b0e:	1e06      	subs	r6, r0, #0
20007b10:	f340 80b1 	ble.w	20007c76 <__sfvwrite_r+0x2a6>
20007b14:	ebbb 0b06 	subs.w	fp, fp, r6
20007b18:	f000 8086 	beq.w	20007c28 <__sfvwrite_r+0x258>
20007b1c:	f8d8 3008 	ldr.w	r3, [r8, #8]
20007b20:	44b1      	add	r9, r6
20007b22:	1bbf      	subs	r7, r7, r6
20007b24:	1b9e      	subs	r6, r3, r6
20007b26:	f8c8 6008 	str.w	r6, [r8, #8]
20007b2a:	2e00      	cmp	r6, #0
20007b2c:	d1c8      	bne.n	20007ac0 <__sfvwrite_r+0xf0>
20007b2e:	e7bd      	b.n	20007aac <__sfvwrite_r+0xdc>
20007b30:	9803      	ldr	r0, [sp, #12]
20007b32:	4621      	mov	r1, r4
20007b34:	f7fe fc18 	bl	20006368 <__swsetup_r>
20007b38:	2800      	cmp	r0, #0
20007b3a:	f040 80d4 	bne.w	20007ce6 <__sfvwrite_r+0x316>
20007b3e:	89a0      	ldrh	r0, [r4, #12]
20007b40:	fa1f fa80 	uxth.w	sl, r0
20007b44:	e758      	b.n	200079f8 <__sfvwrite_r+0x28>
20007b46:	6820      	ldr	r0, [r4, #0]
20007b48:	46b9      	mov	r9, r7
20007b4a:	6923      	ldr	r3, [r4, #16]
20007b4c:	4298      	cmp	r0, r3
20007b4e:	bf94      	ite	ls
20007b50:	2300      	movls	r3, #0
20007b52:	2301      	movhi	r3, #1
20007b54:	42b7      	cmp	r7, r6
20007b56:	bf2c      	ite	cs
20007b58:	2300      	movcs	r3, #0
20007b5a:	f003 0301 	andcc.w	r3, r3, #1
20007b5e:	2b00      	cmp	r3, #0
20007b60:	f040 809d 	bne.w	20007c9e <__sfvwrite_r+0x2ce>
20007b64:	6963      	ldr	r3, [r4, #20]
20007b66:	429e      	cmp	r6, r3
20007b68:	f0c0 808c 	bcc.w	20007c84 <__sfvwrite_r+0x2b4>
20007b6c:	6aa7      	ldr	r7, [r4, #40]	; 0x28
20007b6e:	4652      	mov	r2, sl
20007b70:	9803      	ldr	r0, [sp, #12]
20007b72:	6a21      	ldr	r1, [r4, #32]
20007b74:	47b8      	blx	r7
20007b76:	1e07      	subs	r7, r0, #0
20007b78:	dd7d      	ble.n	20007c76 <__sfvwrite_r+0x2a6>
20007b7a:	46b9      	mov	r9, r7
20007b7c:	e767      	b.n	20007a4e <__sfvwrite_r+0x7e>
20007b7e:	f410 6f90 	tst.w	r0, #1152	; 0x480
20007b82:	bf08      	it	eq
20007b84:	6820      	ldreq	r0, [r4, #0]
20007b86:	f43f af56 	beq.w	20007a36 <__sfvwrite_r+0x66>
20007b8a:	6962      	ldr	r2, [r4, #20]
20007b8c:	6921      	ldr	r1, [r4, #16]
20007b8e:	6823      	ldr	r3, [r4, #0]
20007b90:	eb02 0942 	add.w	r9, r2, r2, lsl #1
20007b94:	1a5b      	subs	r3, r3, r1
20007b96:	eb09 79d9 	add.w	r9, r9, r9, lsr #31
20007b9a:	f103 0c01 	add.w	ip, r3, #1
20007b9e:	44b4      	add	ip, r6
20007ba0:	ea4f 0969 	mov.w	r9, r9, asr #1
20007ba4:	45e1      	cmp	r9, ip
20007ba6:	464a      	mov	r2, r9
20007ba8:	bf3c      	itt	cc
20007baa:	46e1      	movcc	r9, ip
20007bac:	464a      	movcc	r2, r9
20007bae:	f410 6f80 	tst.w	r0, #1024	; 0x400
20007bb2:	f000 8083 	beq.w	20007cbc <__sfvwrite_r+0x2ec>
20007bb6:	4611      	mov	r1, r2
20007bb8:	9803      	ldr	r0, [sp, #12]
20007bba:	9302      	str	r3, [sp, #8]
20007bbc:	f7fc fbaa 	bl	20004314 <_malloc_r>
20007bc0:	9b02      	ldr	r3, [sp, #8]
20007bc2:	2800      	cmp	r0, #0
20007bc4:	f000 8099 	beq.w	20007cfa <__sfvwrite_r+0x32a>
20007bc8:	461a      	mov	r2, r3
20007bca:	6921      	ldr	r1, [r4, #16]
20007bcc:	9302      	str	r3, [sp, #8]
20007bce:	9001      	str	r0, [sp, #4]
20007bd0:	f000 f9ca 	bl	20007f68 <memcpy>
20007bd4:	89a2      	ldrh	r2, [r4, #12]
20007bd6:	9b02      	ldr	r3, [sp, #8]
20007bd8:	f8dd c004 	ldr.w	ip, [sp, #4]
20007bdc:	f422 6290 	bic.w	r2, r2, #1152	; 0x480
20007be0:	f042 0280 	orr.w	r2, r2, #128	; 0x80
20007be4:	81a2      	strh	r2, [r4, #12]
20007be6:	ebc3 0209 	rsb	r2, r3, r9
20007bea:	eb0c 0003 	add.w	r0, ip, r3
20007bee:	4637      	mov	r7, r6
20007bf0:	46b3      	mov	fp, r6
20007bf2:	60a2      	str	r2, [r4, #8]
20007bf4:	f8c4 c010 	str.w	ip, [r4, #16]
20007bf8:	6020      	str	r0, [r4, #0]
20007bfa:	f8c4 9014 	str.w	r9, [r4, #20]
20007bfe:	e71a      	b.n	20007a36 <__sfvwrite_r+0x66>
20007c00:	4652      	mov	r2, sl
20007c02:	4649      	mov	r1, r9
20007c04:	4656      	mov	r6, sl
20007c06:	f8cd c004 	str.w	ip, [sp, #4]
20007c0a:	f000 fa75 	bl	200080f8 <memmove>
20007c0e:	68a2      	ldr	r2, [r4, #8]
20007c10:	6823      	ldr	r3, [r4, #0]
20007c12:	ebbb 0b06 	subs.w	fp, fp, r6
20007c16:	ebca 0202 	rsb	r2, sl, r2
20007c1a:	f8dd c004 	ldr.w	ip, [sp, #4]
20007c1e:	4453      	add	r3, sl
20007c20:	60a2      	str	r2, [r4, #8]
20007c22:	6023      	str	r3, [r4, #0]
20007c24:	f47f af7a 	bne.w	20007b1c <__sfvwrite_r+0x14c>
20007c28:	9803      	ldr	r0, [sp, #12]
20007c2a:	4621      	mov	r1, r4
20007c2c:	f7ff fbfc 	bl	20007428 <_fflush_r>
20007c30:	bb08      	cbnz	r0, 20007c76 <__sfvwrite_r+0x2a6>
20007c32:	46dc      	mov	ip, fp
20007c34:	e772      	b.n	20007b1c <__sfvwrite_r+0x14c>
20007c36:	4648      	mov	r0, r9
20007c38:	210a      	movs	r1, #10
20007c3a:	463a      	mov	r2, r7
20007c3c:	f000 f95a 	bl	20007ef4 <memchr>
20007c40:	2800      	cmp	r0, #0
20007c42:	d04b      	beq.n	20007cdc <__sfvwrite_r+0x30c>
20007c44:	f100 0b01 	add.w	fp, r0, #1
20007c48:	f04f 0c01 	mov.w	ip, #1
20007c4c:	ebc9 0b0b 	rsb	fp, r9, fp
20007c50:	e73c      	b.n	20007acc <__sfvwrite_r+0xfc>
20007c52:	4649      	mov	r1, r9
20007c54:	4632      	mov	r2, r6
20007c56:	f8cd c004 	str.w	ip, [sp, #4]
20007c5a:	f000 fa4d 	bl	200080f8 <memmove>
20007c5e:	6823      	ldr	r3, [r4, #0]
20007c60:	4621      	mov	r1, r4
20007c62:	9803      	ldr	r0, [sp, #12]
20007c64:	199b      	adds	r3, r3, r6
20007c66:	6023      	str	r3, [r4, #0]
20007c68:	f7ff fbde 	bl	20007428 <_fflush_r>
20007c6c:	f8dd c004 	ldr.w	ip, [sp, #4]
20007c70:	2800      	cmp	r0, #0
20007c72:	f43f af4f 	beq.w	20007b14 <__sfvwrite_r+0x144>
20007c76:	89a3      	ldrh	r3, [r4, #12]
20007c78:	f04f 30ff 	mov.w	r0, #4294967295
20007c7c:	f043 0340 	orr.w	r3, r3, #64	; 0x40
20007c80:	81a3      	strh	r3, [r4, #12]
20007c82:	e714      	b.n	20007aae <__sfvwrite_r+0xde>
20007c84:	4632      	mov	r2, r6
20007c86:	4651      	mov	r1, sl
20007c88:	f000 fa36 	bl	200080f8 <memmove>
20007c8c:	68a2      	ldr	r2, [r4, #8]
20007c8e:	6823      	ldr	r3, [r4, #0]
20007c90:	4637      	mov	r7, r6
20007c92:	1b92      	subs	r2, r2, r6
20007c94:	46b1      	mov	r9, r6
20007c96:	199b      	adds	r3, r3, r6
20007c98:	60a2      	str	r2, [r4, #8]
20007c9a:	6023      	str	r3, [r4, #0]
20007c9c:	e6d7      	b.n	20007a4e <__sfvwrite_r+0x7e>
20007c9e:	4651      	mov	r1, sl
20007ca0:	463a      	mov	r2, r7
20007ca2:	f000 fa29 	bl	200080f8 <memmove>
20007ca6:	6823      	ldr	r3, [r4, #0]
20007ca8:	9803      	ldr	r0, [sp, #12]
20007caa:	4621      	mov	r1, r4
20007cac:	19db      	adds	r3, r3, r7
20007cae:	6023      	str	r3, [r4, #0]
20007cb0:	f7ff fbba 	bl	20007428 <_fflush_r>
20007cb4:	2800      	cmp	r0, #0
20007cb6:	f43f aeca 	beq.w	20007a4e <__sfvwrite_r+0x7e>
20007cba:	e7dc      	b.n	20007c76 <__sfvwrite_r+0x2a6>
20007cbc:	9803      	ldr	r0, [sp, #12]
20007cbe:	9302      	str	r3, [sp, #8]
20007cc0:	f000 ff22 	bl	20008b08 <_realloc_r>
20007cc4:	9b02      	ldr	r3, [sp, #8]
20007cc6:	4684      	mov	ip, r0
20007cc8:	2800      	cmp	r0, #0
20007cca:	d18c      	bne.n	20007be6 <__sfvwrite_r+0x216>
20007ccc:	6921      	ldr	r1, [r4, #16]
20007cce:	9803      	ldr	r0, [sp, #12]
20007cd0:	f7ff fd9e 	bl	20007810 <_free_r>
20007cd4:	9903      	ldr	r1, [sp, #12]
20007cd6:	230c      	movs	r3, #12
20007cd8:	600b      	str	r3, [r1, #0]
20007cda:	e7cc      	b.n	20007c76 <__sfvwrite_r+0x2a6>
20007cdc:	f107 0b01 	add.w	fp, r7, #1
20007ce0:	f04f 0c01 	mov.w	ip, #1
20007ce4:	e6f2      	b.n	20007acc <__sfvwrite_r+0xfc>
20007ce6:	9903      	ldr	r1, [sp, #12]
20007ce8:	2209      	movs	r2, #9
20007cea:	89a3      	ldrh	r3, [r4, #12]
20007cec:	f04f 30ff 	mov.w	r0, #4294967295
20007cf0:	f043 0340 	orr.w	r3, r3, #64	; 0x40
20007cf4:	600a      	str	r2, [r1, #0]
20007cf6:	81a3      	strh	r3, [r4, #12]
20007cf8:	e6d9      	b.n	20007aae <__sfvwrite_r+0xde>
20007cfa:	9a03      	ldr	r2, [sp, #12]
20007cfc:	230c      	movs	r3, #12
20007cfe:	6013      	str	r3, [r2, #0]
20007d00:	e7b9      	b.n	20007c76 <__sfvwrite_r+0x2a6>
20007d02:	bf00      	nop

20007d04 <_fwalk_reent>:
20007d04:	e92d 45f8 	stmdb	sp!, {r3, r4, r5, r6, r7, r8, sl, lr}
20007d08:	4607      	mov	r7, r0
20007d0a:	468a      	mov	sl, r1
20007d0c:	f7ff fc48 	bl	200075a0 <__sfp_lock_acquire>
20007d10:	f117 06d8 	adds.w	r6, r7, #216	; 0xd8
20007d14:	bf08      	it	eq
20007d16:	46b0      	moveq	r8, r6
20007d18:	d018      	beq.n	20007d4c <_fwalk_reent+0x48>
20007d1a:	f04f 0800 	mov.w	r8, #0
20007d1e:	6875      	ldr	r5, [r6, #4]
20007d20:	68b4      	ldr	r4, [r6, #8]
20007d22:	3d01      	subs	r5, #1
20007d24:	d40f      	bmi.n	20007d46 <_fwalk_reent+0x42>
20007d26:	f9b4 300c 	ldrsh.w	r3, [r4, #12]
20007d2a:	b14b      	cbz	r3, 20007d40 <_fwalk_reent+0x3c>
20007d2c:	f9b4 300e 	ldrsh.w	r3, [r4, #14]
20007d30:	4621      	mov	r1, r4
20007d32:	4638      	mov	r0, r7
20007d34:	f1b3 3fff 	cmp.w	r3, #4294967295
20007d38:	d002      	beq.n	20007d40 <_fwalk_reent+0x3c>
20007d3a:	47d0      	blx	sl
20007d3c:	ea48 0800 	orr.w	r8, r8, r0
20007d40:	3468      	adds	r4, #104	; 0x68
20007d42:	3d01      	subs	r5, #1
20007d44:	d5ef      	bpl.n	20007d26 <_fwalk_reent+0x22>
20007d46:	6836      	ldr	r6, [r6, #0]
20007d48:	2e00      	cmp	r6, #0
20007d4a:	d1e8      	bne.n	20007d1e <_fwalk_reent+0x1a>
20007d4c:	f7ff fc2a 	bl	200075a4 <__sfp_lock_release>
20007d50:	4640      	mov	r0, r8
20007d52:	e8bd 85f8 	ldmia.w	sp!, {r3, r4, r5, r6, r7, r8, sl, pc}
20007d56:	bf00      	nop

20007d58 <_fwalk>:
20007d58:	e92d 41f0 	stmdb	sp!, {r4, r5, r6, r7, r8, lr}
20007d5c:	4606      	mov	r6, r0
20007d5e:	4688      	mov	r8, r1
20007d60:	f7ff fc1e 	bl	200075a0 <__sfp_lock_acquire>
20007d64:	36d8      	adds	r6, #216	; 0xd8
20007d66:	bf08      	it	eq
20007d68:	4637      	moveq	r7, r6
20007d6a:	d015      	beq.n	20007d98 <_fwalk+0x40>
20007d6c:	2700      	movs	r7, #0
20007d6e:	6875      	ldr	r5, [r6, #4]
20007d70:	68b4      	ldr	r4, [r6, #8]
20007d72:	3d01      	subs	r5, #1
20007d74:	d40d      	bmi.n	20007d92 <_fwalk+0x3a>
20007d76:	f9b4 300c 	ldrsh.w	r3, [r4, #12]
20007d7a:	b13b      	cbz	r3, 20007d8c <_fwalk+0x34>
20007d7c:	f9b4 300e 	ldrsh.w	r3, [r4, #14]
20007d80:	4620      	mov	r0, r4
20007d82:	f1b3 3fff 	cmp.w	r3, #4294967295
20007d86:	d001      	beq.n	20007d8c <_fwalk+0x34>
20007d88:	47c0      	blx	r8
20007d8a:	4307      	orrs	r7, r0
20007d8c:	3468      	adds	r4, #104	; 0x68
20007d8e:	3d01      	subs	r5, #1
20007d90:	d5f1      	bpl.n	20007d76 <_fwalk+0x1e>
20007d92:	6836      	ldr	r6, [r6, #0]
20007d94:	2e00      	cmp	r6, #0
20007d96:	d1ea      	bne.n	20007d6e <_fwalk+0x16>
20007d98:	f7ff fc04 	bl	200075a4 <__sfp_lock_release>
20007d9c:	4638      	mov	r0, r7
20007d9e:	e8bd 81f0 	ldmia.w	sp!, {r4, r5, r6, r7, r8, pc}
20007da2:	bf00      	nop

20007da4 <__locale_charset>:
20007da4:	f64a 4378 	movw	r3, #44152	; 0xac78
20007da8:	f2c2 0300 	movt	r3, #8192	; 0x2000
20007dac:	6818      	ldr	r0, [r3, #0]
20007dae:	4770      	bx	lr

20007db0 <_localeconv_r>:
20007db0:	4800      	ldr	r0, [pc, #0]	; (20007db4 <_localeconv_r+0x4>)
20007db2:	4770      	bx	lr
20007db4:	2000ac7c 	.word	0x2000ac7c

20007db8 <localeconv>:
20007db8:	4800      	ldr	r0, [pc, #0]	; (20007dbc <localeconv+0x4>)
20007dba:	4770      	bx	lr
20007dbc:	2000ac7c 	.word	0x2000ac7c

20007dc0 <_setlocale_r>:
20007dc0:	b570      	push	{r4, r5, r6, lr}
20007dc2:	4605      	mov	r5, r0
20007dc4:	460e      	mov	r6, r1
20007dc6:	4614      	mov	r4, r2
20007dc8:	b172      	cbz	r2, 20007de8 <_setlocale_r+0x28>
20007dca:	f64a 31a0 	movw	r1, #43936	; 0xaba0
20007dce:	4610      	mov	r0, r2
20007dd0:	f2c2 0100 	movt	r1, #8192	; 0x2000
20007dd4:	f001 f8da 	bl	20008f8c <strcmp>
20007dd8:	b958      	cbnz	r0, 20007df2 <_setlocale_r+0x32>
20007dda:	f64a 30a0 	movw	r0, #43936	; 0xaba0
20007dde:	622c      	str	r4, [r5, #32]
20007de0:	f2c2 0000 	movt	r0, #8192	; 0x2000
20007de4:	61ee      	str	r6, [r5, #28]
20007de6:	bd70      	pop	{r4, r5, r6, pc}
20007de8:	f64a 30a0 	movw	r0, #43936	; 0xaba0
20007dec:	f2c2 0000 	movt	r0, #8192	; 0x2000
20007df0:	bd70      	pop	{r4, r5, r6, pc}
20007df2:	f64a 31d4 	movw	r1, #43988	; 0xabd4
20007df6:	4620      	mov	r0, r4
20007df8:	f2c2 0100 	movt	r1, #8192	; 0x2000
20007dfc:	f001 f8c6 	bl	20008f8c <strcmp>
20007e00:	2800      	cmp	r0, #0
20007e02:	d0ea      	beq.n	20007dda <_setlocale_r+0x1a>
20007e04:	2000      	movs	r0, #0
20007e06:	bd70      	pop	{r4, r5, r6, pc}

20007e08 <setlocale>:
20007e08:	f64a 632c 	movw	r3, #44588	; 0xae2c
20007e0c:	460a      	mov	r2, r1
20007e0e:	f2c2 0300 	movt	r3, #8192	; 0x2000
20007e12:	4601      	mov	r1, r0
20007e14:	6818      	ldr	r0, [r3, #0]
20007e16:	e7d3      	b.n	20007dc0 <_setlocale_r>

20007e18 <__smakebuf_r>:
20007e18:	898b      	ldrh	r3, [r1, #12]
20007e1a:	b5f0      	push	{r4, r5, r6, r7, lr}
20007e1c:	460c      	mov	r4, r1
20007e1e:	b29a      	uxth	r2, r3
20007e20:	b091      	sub	sp, #68	; 0x44
20007e22:	f012 0f02 	tst.w	r2, #2
20007e26:	4605      	mov	r5, r0
20007e28:	d141      	bne.n	20007eae <__smakebuf_r+0x96>
20007e2a:	f9b1 100e 	ldrsh.w	r1, [r1, #14]
20007e2e:	2900      	cmp	r1, #0
20007e30:	db18      	blt.n	20007e64 <__smakebuf_r+0x4c>
20007e32:	aa01      	add	r2, sp, #4
20007e34:	f001 fa70 	bl	20009318 <_fstat_r>
20007e38:	2800      	cmp	r0, #0
20007e3a:	db11      	blt.n	20007e60 <__smakebuf_r+0x48>
20007e3c:	9b02      	ldr	r3, [sp, #8]
20007e3e:	f403 4370 	and.w	r3, r3, #61440	; 0xf000
20007e42:	f5b3 5f00 	cmp.w	r3, #8192	; 0x2000
20007e46:	bf14      	ite	ne
20007e48:	2700      	movne	r7, #0
20007e4a:	2701      	moveq	r7, #1
20007e4c:	f5b3 4f00 	cmp.w	r3, #32768	; 0x8000
20007e50:	d040      	beq.n	20007ed4 <__smakebuf_r+0xbc>
20007e52:	89a3      	ldrh	r3, [r4, #12]
20007e54:	f44f 6680 	mov.w	r6, #1024	; 0x400
20007e58:	f443 6300 	orr.w	r3, r3, #2048	; 0x800
20007e5c:	81a3      	strh	r3, [r4, #12]
20007e5e:	e00b      	b.n	20007e78 <__smakebuf_r+0x60>
20007e60:	89a3      	ldrh	r3, [r4, #12]
20007e62:	b29a      	uxth	r2, r3
20007e64:	f012 0f80 	tst.w	r2, #128	; 0x80
20007e68:	f443 6300 	orr.w	r3, r3, #2048	; 0x800
20007e6c:	bf0c      	ite	eq
20007e6e:	f44f 6680 	moveq.w	r6, #1024	; 0x400
20007e72:	2640      	movne	r6, #64	; 0x40
20007e74:	2700      	movs	r7, #0
20007e76:	81a3      	strh	r3, [r4, #12]
20007e78:	4628      	mov	r0, r5
20007e7a:	4631      	mov	r1, r6
20007e7c:	f7fc fa4a 	bl	20004314 <_malloc_r>
20007e80:	b170      	cbz	r0, 20007ea0 <__smakebuf_r+0x88>
20007e82:	89a1      	ldrh	r1, [r4, #12]
20007e84:	f247 52e9 	movw	r2, #30185	; 0x75e9
20007e88:	f2c2 0200 	movt	r2, #8192	; 0x2000
20007e8c:	6120      	str	r0, [r4, #16]
20007e8e:	f041 0180 	orr.w	r1, r1, #128	; 0x80
20007e92:	6166      	str	r6, [r4, #20]
20007e94:	62aa      	str	r2, [r5, #40]	; 0x28
20007e96:	81a1      	strh	r1, [r4, #12]
20007e98:	6020      	str	r0, [r4, #0]
20007e9a:	b97f      	cbnz	r7, 20007ebc <__smakebuf_r+0xa4>
20007e9c:	b011      	add	sp, #68	; 0x44
20007e9e:	bdf0      	pop	{r4, r5, r6, r7, pc}
20007ea0:	89a3      	ldrh	r3, [r4, #12]
20007ea2:	f413 7f00 	tst.w	r3, #512	; 0x200
20007ea6:	d1f9      	bne.n	20007e9c <__smakebuf_r+0x84>
20007ea8:	f043 0302 	orr.w	r3, r3, #2
20007eac:	81a3      	strh	r3, [r4, #12]
20007eae:	f104 0347 	add.w	r3, r4, #71	; 0x47
20007eb2:	6123      	str	r3, [r4, #16]
20007eb4:	6023      	str	r3, [r4, #0]
20007eb6:	2301      	movs	r3, #1
20007eb8:	6163      	str	r3, [r4, #20]
20007eba:	e7ef      	b.n	20007e9c <__smakebuf_r+0x84>
20007ebc:	4628      	mov	r0, r5
20007ebe:	f9b4 100e 	ldrsh.w	r1, [r4, #14]
20007ec2:	f001 fa3f 	bl	20009344 <_isatty_r>
20007ec6:	2800      	cmp	r0, #0
20007ec8:	d0e8      	beq.n	20007e9c <__smakebuf_r+0x84>
20007eca:	89a3      	ldrh	r3, [r4, #12]
20007ecc:	f043 0301 	orr.w	r3, r3, #1
20007ed0:	81a3      	strh	r3, [r4, #12]
20007ed2:	e7e3      	b.n	20007e9c <__smakebuf_r+0x84>
20007ed4:	f648 7305 	movw	r3, #36613	; 0x8f05
20007ed8:	6ae2      	ldr	r2, [r4, #44]	; 0x2c
20007eda:	f2c2 0300 	movt	r3, #8192	; 0x2000
20007ede:	429a      	cmp	r2, r3
20007ee0:	d1b7      	bne.n	20007e52 <__smakebuf_r+0x3a>
20007ee2:	89a2      	ldrh	r2, [r4, #12]
20007ee4:	f44f 6380 	mov.w	r3, #1024	; 0x400
20007ee8:	461e      	mov	r6, r3
20007eea:	6523      	str	r3, [r4, #80]	; 0x50
20007eec:	ea42 0303 	orr.w	r3, r2, r3
20007ef0:	81a3      	strh	r3, [r4, #12]
20007ef2:	e7c1      	b.n	20007e78 <__smakebuf_r+0x60>

20007ef4 <memchr>:
20007ef4:	f010 0f03 	tst.w	r0, #3
20007ef8:	b2c9      	uxtb	r1, r1
20007efa:	b410      	push	{r4}
20007efc:	d010      	beq.n	20007f20 <memchr+0x2c>
20007efe:	2a00      	cmp	r2, #0
20007f00:	d02f      	beq.n	20007f62 <memchr+0x6e>
20007f02:	7803      	ldrb	r3, [r0, #0]
20007f04:	428b      	cmp	r3, r1
20007f06:	d02a      	beq.n	20007f5e <memchr+0x6a>
20007f08:	3a01      	subs	r2, #1
20007f0a:	e005      	b.n	20007f18 <memchr+0x24>
20007f0c:	2a00      	cmp	r2, #0
20007f0e:	d028      	beq.n	20007f62 <memchr+0x6e>
20007f10:	7803      	ldrb	r3, [r0, #0]
20007f12:	3a01      	subs	r2, #1
20007f14:	428b      	cmp	r3, r1
20007f16:	d022      	beq.n	20007f5e <memchr+0x6a>
20007f18:	3001      	adds	r0, #1
20007f1a:	f010 0f03 	tst.w	r0, #3
20007f1e:	d1f5      	bne.n	20007f0c <memchr+0x18>
20007f20:	2a03      	cmp	r2, #3
20007f22:	d911      	bls.n	20007f48 <memchr+0x54>
20007f24:	ea41 2401 	orr.w	r4, r1, r1, lsl #8
20007f28:	ea44 4404 	orr.w	r4, r4, r4, lsl #16
20007f2c:	6803      	ldr	r3, [r0, #0]
20007f2e:	ea84 0303 	eor.w	r3, r4, r3
20007f32:	f1a3 3c01 	sub.w	ip, r3, #16843009	; 0x1010101
20007f36:	ea2c 0303 	bic.w	r3, ip, r3
20007f3a:	f013 3f80 	tst.w	r3, #2155905152	; 0x80808080
20007f3e:	d103      	bne.n	20007f48 <memchr+0x54>
20007f40:	3a04      	subs	r2, #4
20007f42:	3004      	adds	r0, #4
20007f44:	2a03      	cmp	r2, #3
20007f46:	d8f1      	bhi.n	20007f2c <memchr+0x38>
20007f48:	b15a      	cbz	r2, 20007f62 <memchr+0x6e>
20007f4a:	7803      	ldrb	r3, [r0, #0]
20007f4c:	428b      	cmp	r3, r1
20007f4e:	d006      	beq.n	20007f5e <memchr+0x6a>
20007f50:	3a01      	subs	r2, #1
20007f52:	b132      	cbz	r2, 20007f62 <memchr+0x6e>
20007f54:	f810 3f01 	ldrb.w	r3, [r0, #1]!
20007f58:	3a01      	subs	r2, #1
20007f5a:	428b      	cmp	r3, r1
20007f5c:	d1f9      	bne.n	20007f52 <memchr+0x5e>
20007f5e:	bc10      	pop	{r4}
20007f60:	4770      	bx	lr
20007f62:	2000      	movs	r0, #0
20007f64:	e7fb      	b.n	20007f5e <memchr+0x6a>
20007f66:	bf00      	nop

20007f68 <memcpy>:
20007f68:	2a03      	cmp	r2, #3
20007f6a:	e92d 07f0 	stmdb	sp!, {r4, r5, r6, r7, r8, r9, sl}
20007f6e:	d80b      	bhi.n	20007f88 <memcpy+0x20>
20007f70:	b13a      	cbz	r2, 20007f82 <memcpy+0x1a>
20007f72:	2300      	movs	r3, #0
20007f74:	f811 c003 	ldrb.w	ip, [r1, r3]
20007f78:	f800 c003 	strb.w	ip, [r0, r3]
20007f7c:	3301      	adds	r3, #1
20007f7e:	4293      	cmp	r3, r2
20007f80:	d1f8      	bne.n	20007f74 <memcpy+0xc>
20007f82:	e8bd 07f0 	ldmia.w	sp!, {r4, r5, r6, r7, r8, r9, sl}
20007f86:	4770      	bx	lr
20007f88:	1882      	adds	r2, r0, r2
20007f8a:	460c      	mov	r4, r1
20007f8c:	4603      	mov	r3, r0
20007f8e:	e003      	b.n	20007f98 <memcpy+0x30>
20007f90:	f814 1c01 	ldrb.w	r1, [r4, #-1]
20007f94:	f803 1c01 	strb.w	r1, [r3, #-1]
20007f98:	f003 0603 	and.w	r6, r3, #3
20007f9c:	4619      	mov	r1, r3
20007f9e:	46a4      	mov	ip, r4
20007fa0:	3301      	adds	r3, #1
20007fa2:	3401      	adds	r4, #1
20007fa4:	2e00      	cmp	r6, #0
20007fa6:	d1f3      	bne.n	20007f90 <memcpy+0x28>
20007fa8:	f01c 0403 	ands.w	r4, ip, #3
20007fac:	4663      	mov	r3, ip
20007fae:	bf08      	it	eq
20007fb0:	ebc1 0c02 	rsbeq	ip, r1, r2
20007fb4:	d068      	beq.n	20008088 <memcpy+0x120>
20007fb6:	4265      	negs	r5, r4
20007fb8:	f1c4 0a04 	rsb	sl, r4, #4
20007fbc:	eb0c 0705 	add.w	r7, ip, r5
20007fc0:	4633      	mov	r3, r6
20007fc2:	ea4f 0aca 	mov.w	sl, sl, lsl #3
20007fc6:	f85c 6005 	ldr.w	r6, [ip, r5]
20007fca:	ea4f 08c4 	mov.w	r8, r4, lsl #3
20007fce:	1a55      	subs	r5, r2, r1
20007fd0:	e008      	b.n	20007fe4 <memcpy+0x7c>
20007fd2:	f857 4f04 	ldr.w	r4, [r7, #4]!
20007fd6:	4626      	mov	r6, r4
20007fd8:	fa04 f40a 	lsl.w	r4, r4, sl
20007fdc:	ea49 0404 	orr.w	r4, r9, r4
20007fe0:	50cc      	str	r4, [r1, r3]
20007fe2:	3304      	adds	r3, #4
20007fe4:	185c      	adds	r4, r3, r1
20007fe6:	2d03      	cmp	r5, #3
20007fe8:	fa26 f908 	lsr.w	r9, r6, r8
20007fec:	f1a5 0504 	sub.w	r5, r5, #4
20007ff0:	eb0c 0603 	add.w	r6, ip, r3
20007ff4:	dced      	bgt.n	20007fd2 <memcpy+0x6a>
20007ff6:	2300      	movs	r3, #0
20007ff8:	e002      	b.n	20008000 <memcpy+0x98>
20007ffa:	5cf1      	ldrb	r1, [r6, r3]
20007ffc:	54e1      	strb	r1, [r4, r3]
20007ffe:	3301      	adds	r3, #1
20008000:	1919      	adds	r1, r3, r4
20008002:	4291      	cmp	r1, r2
20008004:	d3f9      	bcc.n	20007ffa <memcpy+0x92>
20008006:	e7bc      	b.n	20007f82 <memcpy+0x1a>
20008008:	f853 4c40 	ldr.w	r4, [r3, #-64]
2000800c:	f841 4c40 	str.w	r4, [r1, #-64]
20008010:	f853 4c3c 	ldr.w	r4, [r3, #-60]
20008014:	f841 4c3c 	str.w	r4, [r1, #-60]
20008018:	f853 4c38 	ldr.w	r4, [r3, #-56]
2000801c:	f841 4c38 	str.w	r4, [r1, #-56]
20008020:	f853 4c34 	ldr.w	r4, [r3, #-52]
20008024:	f841 4c34 	str.w	r4, [r1, #-52]
20008028:	f853 4c30 	ldr.w	r4, [r3, #-48]
2000802c:	f841 4c30 	str.w	r4, [r1, #-48]
20008030:	f853 4c2c 	ldr.w	r4, [r3, #-44]
20008034:	f841 4c2c 	str.w	r4, [r1, #-44]
20008038:	f853 4c28 	ldr.w	r4, [r3, #-40]
2000803c:	f841 4c28 	str.w	r4, [r1, #-40]
20008040:	f853 4c24 	ldr.w	r4, [r3, #-36]
20008044:	f841 4c24 	str.w	r4, [r1, #-36]
20008048:	f853 4c20 	ldr.w	r4, [r3, #-32]
2000804c:	f841 4c20 	str.w	r4, [r1, #-32]
20008050:	f853 4c1c 	ldr.w	r4, [r3, #-28]
20008054:	f841 4c1c 	str.w	r4, [r1, #-28]
20008058:	f853 4c18 	ldr.w	r4, [r3, #-24]
2000805c:	f841 4c18 	str.w	r4, [r1, #-24]
20008060:	f853 4c14 	ldr.w	r4, [r3, #-20]
20008064:	f841 4c14 	str.w	r4, [r1, #-20]
20008068:	f853 4c10 	ldr.w	r4, [r3, #-16]
2000806c:	f841 4c10 	str.w	r4, [r1, #-16]
20008070:	f853 4c0c 	ldr.w	r4, [r3, #-12]
20008074:	f841 4c0c 	str.w	r4, [r1, #-12]
20008078:	f853 4c08 	ldr.w	r4, [r3, #-8]
2000807c:	f841 4c08 	str.w	r4, [r1, #-8]
20008080:	f853 4c04 	ldr.w	r4, [r3, #-4]
20008084:	f841 4c04 	str.w	r4, [r1, #-4]
20008088:	461c      	mov	r4, r3
2000808a:	460d      	mov	r5, r1
2000808c:	3340      	adds	r3, #64	; 0x40
2000808e:	3140      	adds	r1, #64	; 0x40
20008090:	f1bc 0f3f 	cmp.w	ip, #63	; 0x3f
20008094:	f1ac 0c40 	sub.w	ip, ip, #64	; 0x40
20008098:	dcb6      	bgt.n	20008008 <memcpy+0xa0>
2000809a:	4621      	mov	r1, r4
2000809c:	462b      	mov	r3, r5
2000809e:	1b54      	subs	r4, r2, r5
200080a0:	e00f      	b.n	200080c2 <memcpy+0x15a>
200080a2:	f851 5c10 	ldr.w	r5, [r1, #-16]
200080a6:	f843 5c10 	str.w	r5, [r3, #-16]
200080aa:	f851 5c0c 	ldr.w	r5, [r1, #-12]
200080ae:	f843 5c0c 	str.w	r5, [r3, #-12]
200080b2:	f851 5c08 	ldr.w	r5, [r1, #-8]
200080b6:	f843 5c08 	str.w	r5, [r3, #-8]
200080ba:	f851 5c04 	ldr.w	r5, [r1, #-4]
200080be:	f843 5c04 	str.w	r5, [r3, #-4]
200080c2:	2c0f      	cmp	r4, #15
200080c4:	460d      	mov	r5, r1
200080c6:	469c      	mov	ip, r3
200080c8:	f101 0110 	add.w	r1, r1, #16
200080cc:	f103 0310 	add.w	r3, r3, #16
200080d0:	f1a4 0410 	sub.w	r4, r4, #16
200080d4:	dce5      	bgt.n	200080a2 <memcpy+0x13a>
200080d6:	ebcc 0102 	rsb	r1, ip, r2
200080da:	2300      	movs	r3, #0
200080dc:	e003      	b.n	200080e6 <memcpy+0x17e>
200080de:	58ec      	ldr	r4, [r5, r3]
200080e0:	f84c 4003 	str.w	r4, [ip, r3]
200080e4:	3304      	adds	r3, #4
200080e6:	195e      	adds	r6, r3, r5
200080e8:	2903      	cmp	r1, #3
200080ea:	eb03 040c 	add.w	r4, r3, ip
200080ee:	f1a1 0104 	sub.w	r1, r1, #4
200080f2:	dcf4      	bgt.n	200080de <memcpy+0x176>
200080f4:	e77f      	b.n	20007ff6 <memcpy+0x8e>
200080f6:	bf00      	nop

200080f8 <memmove>:
200080f8:	4288      	cmp	r0, r1
200080fa:	468c      	mov	ip, r1
200080fc:	b470      	push	{r4, r5, r6}
200080fe:	4605      	mov	r5, r0
20008100:	4614      	mov	r4, r2
20008102:	d90e      	bls.n	20008122 <memmove+0x2a>
20008104:	188b      	adds	r3, r1, r2
20008106:	4298      	cmp	r0, r3
20008108:	d20b      	bcs.n	20008122 <memmove+0x2a>
2000810a:	b142      	cbz	r2, 2000811e <memmove+0x26>
2000810c:	ebc2 0c03 	rsb	ip, r2, r3
20008110:	4601      	mov	r1, r0
20008112:	1e53      	subs	r3, r2, #1
20008114:	f81c 2003 	ldrb.w	r2, [ip, r3]
20008118:	54ca      	strb	r2, [r1, r3]
2000811a:	3b01      	subs	r3, #1
2000811c:	d2fa      	bcs.n	20008114 <memmove+0x1c>
2000811e:	bc70      	pop	{r4, r5, r6}
20008120:	4770      	bx	lr
20008122:	2a0f      	cmp	r2, #15
20008124:	d809      	bhi.n	2000813a <memmove+0x42>
20008126:	2c00      	cmp	r4, #0
20008128:	d0f9      	beq.n	2000811e <memmove+0x26>
2000812a:	2300      	movs	r3, #0
2000812c:	f81c 2003 	ldrb.w	r2, [ip, r3]
20008130:	54ea      	strb	r2, [r5, r3]
20008132:	3301      	adds	r3, #1
20008134:	42a3      	cmp	r3, r4
20008136:	d1f9      	bne.n	2000812c <memmove+0x34>
20008138:	e7f1      	b.n	2000811e <memmove+0x26>
2000813a:	ea41 0300 	orr.w	r3, r1, r0
2000813e:	f013 0f03 	tst.w	r3, #3
20008142:	d1f0      	bne.n	20008126 <memmove+0x2e>
20008144:	4694      	mov	ip, r2
20008146:	460c      	mov	r4, r1
20008148:	4603      	mov	r3, r0
2000814a:	6825      	ldr	r5, [r4, #0]
2000814c:	f1ac 0c10 	sub.w	ip, ip, #16
20008150:	601d      	str	r5, [r3, #0]
20008152:	6865      	ldr	r5, [r4, #4]
20008154:	605d      	str	r5, [r3, #4]
20008156:	68a5      	ldr	r5, [r4, #8]
20008158:	609d      	str	r5, [r3, #8]
2000815a:	68e5      	ldr	r5, [r4, #12]
2000815c:	3410      	adds	r4, #16
2000815e:	60dd      	str	r5, [r3, #12]
20008160:	3310      	adds	r3, #16
20008162:	f1bc 0f0f 	cmp.w	ip, #15
20008166:	d8f0      	bhi.n	2000814a <memmove+0x52>
20008168:	3a10      	subs	r2, #16
2000816a:	ea4f 1c12 	mov.w	ip, r2, lsr #4
2000816e:	f10c 0501 	add.w	r5, ip, #1
20008172:	ebcc 7c0c 	rsb	ip, ip, ip, lsl #28
20008176:	012d      	lsls	r5, r5, #4
20008178:	eb02 160c 	add.w	r6, r2, ip, lsl #4
2000817c:	eb01 0c05 	add.w	ip, r1, r5
20008180:	1945      	adds	r5, r0, r5
20008182:	2e03      	cmp	r6, #3
20008184:	4634      	mov	r4, r6
20008186:	d9ce      	bls.n	20008126 <memmove+0x2e>
20008188:	2300      	movs	r3, #0
2000818a:	f85c 2003 	ldr.w	r2, [ip, r3]
2000818e:	50ea      	str	r2, [r5, r3]
20008190:	3304      	adds	r3, #4
20008192:	1af2      	subs	r2, r6, r3
20008194:	2a03      	cmp	r2, #3
20008196:	d8f8      	bhi.n	2000818a <memmove+0x92>
20008198:	3e04      	subs	r6, #4
2000819a:	08b3      	lsrs	r3, r6, #2
2000819c:	1c5a      	adds	r2, r3, #1
2000819e:	ebc3 7383 	rsb	r3, r3, r3, lsl #30
200081a2:	0092      	lsls	r2, r2, #2
200081a4:	4494      	add	ip, r2
200081a6:	eb06 0483 	add.w	r4, r6, r3, lsl #2
200081aa:	18ad      	adds	r5, r5, r2
200081ac:	e7bb      	b.n	20008126 <memmove+0x2e>
200081ae:	bf00      	nop

200081b0 <__hi0bits>:
200081b0:	0c02      	lsrs	r2, r0, #16
200081b2:	4603      	mov	r3, r0
200081b4:	0412      	lsls	r2, r2, #16
200081b6:	b1b2      	cbz	r2, 200081e6 <__hi0bits+0x36>
200081b8:	2000      	movs	r0, #0
200081ba:	f013 4f7f 	tst.w	r3, #4278190080	; 0xff000000
200081be:	d101      	bne.n	200081c4 <__hi0bits+0x14>
200081c0:	3008      	adds	r0, #8
200081c2:	021b      	lsls	r3, r3, #8
200081c4:	f013 4f70 	tst.w	r3, #4026531840	; 0xf0000000
200081c8:	d101      	bne.n	200081ce <__hi0bits+0x1e>
200081ca:	3004      	adds	r0, #4
200081cc:	011b      	lsls	r3, r3, #4
200081ce:	f013 4f40 	tst.w	r3, #3221225472	; 0xc0000000
200081d2:	d101      	bne.n	200081d8 <__hi0bits+0x28>
200081d4:	3002      	adds	r0, #2
200081d6:	009b      	lsls	r3, r3, #2
200081d8:	2b00      	cmp	r3, #0
200081da:	db03      	blt.n	200081e4 <__hi0bits+0x34>
200081dc:	f013 4f80 	tst.w	r3, #1073741824	; 0x40000000
200081e0:	d004      	beq.n	200081ec <__hi0bits+0x3c>
200081e2:	3001      	adds	r0, #1
200081e4:	4770      	bx	lr
200081e6:	0403      	lsls	r3, r0, #16
200081e8:	2010      	movs	r0, #16
200081ea:	e7e6      	b.n	200081ba <__hi0bits+0xa>
200081ec:	2020      	movs	r0, #32
200081ee:	4770      	bx	lr

200081f0 <__lo0bits>:
200081f0:	6803      	ldr	r3, [r0, #0]
200081f2:	4602      	mov	r2, r0
200081f4:	f013 0007 	ands.w	r0, r3, #7
200081f8:	d009      	beq.n	2000820e <__lo0bits+0x1e>
200081fa:	f013 0f01 	tst.w	r3, #1
200081fe:	d121      	bne.n	20008244 <__lo0bits+0x54>
20008200:	f013 0f02 	tst.w	r3, #2
20008204:	d122      	bne.n	2000824c <__lo0bits+0x5c>
20008206:	089b      	lsrs	r3, r3, #2
20008208:	2002      	movs	r0, #2
2000820a:	6013      	str	r3, [r2, #0]
2000820c:	4770      	bx	lr
2000820e:	b299      	uxth	r1, r3
20008210:	b909      	cbnz	r1, 20008216 <__lo0bits+0x26>
20008212:	0c1b      	lsrs	r3, r3, #16
20008214:	2010      	movs	r0, #16
20008216:	f013 0fff 	tst.w	r3, #255	; 0xff
2000821a:	d101      	bne.n	20008220 <__lo0bits+0x30>
2000821c:	3008      	adds	r0, #8
2000821e:	0a1b      	lsrs	r3, r3, #8
20008220:	f013 0f0f 	tst.w	r3, #15
20008224:	d101      	bne.n	2000822a <__lo0bits+0x3a>
20008226:	3004      	adds	r0, #4
20008228:	091b      	lsrs	r3, r3, #4
2000822a:	f013 0f03 	tst.w	r3, #3
2000822e:	d101      	bne.n	20008234 <__lo0bits+0x44>
20008230:	3002      	adds	r0, #2
20008232:	089b      	lsrs	r3, r3, #2
20008234:	f013 0f01 	tst.w	r3, #1
20008238:	d102      	bne.n	20008240 <__lo0bits+0x50>
2000823a:	085b      	lsrs	r3, r3, #1
2000823c:	d004      	beq.n	20008248 <__lo0bits+0x58>
2000823e:	3001      	adds	r0, #1
20008240:	6013      	str	r3, [r2, #0]
20008242:	4770      	bx	lr
20008244:	2000      	movs	r0, #0
20008246:	4770      	bx	lr
20008248:	2020      	movs	r0, #32
2000824a:	4770      	bx	lr
2000824c:	085b      	lsrs	r3, r3, #1
2000824e:	2001      	movs	r0, #1
20008250:	6013      	str	r3, [r2, #0]
20008252:	4770      	bx	lr

20008254 <__mcmp>:
20008254:	4603      	mov	r3, r0
20008256:	690a      	ldr	r2, [r1, #16]
20008258:	6900      	ldr	r0, [r0, #16]
2000825a:	b410      	push	{r4}
2000825c:	1a80      	subs	r0, r0, r2
2000825e:	d111      	bne.n	20008284 <__mcmp+0x30>
20008260:	3204      	adds	r2, #4
20008262:	f103 0c14 	add.w	ip, r3, #20
20008266:	0092      	lsls	r2, r2, #2
20008268:	189b      	adds	r3, r3, r2
2000826a:	1889      	adds	r1, r1, r2
2000826c:	3104      	adds	r1, #4
2000826e:	3304      	adds	r3, #4
20008270:	f853 4c04 	ldr.w	r4, [r3, #-4]
20008274:	3b04      	subs	r3, #4
20008276:	f851 2c04 	ldr.w	r2, [r1, #-4]
2000827a:	3904      	subs	r1, #4
2000827c:	4294      	cmp	r4, r2
2000827e:	d103      	bne.n	20008288 <__mcmp+0x34>
20008280:	459c      	cmp	ip, r3
20008282:	d3f5      	bcc.n	20008270 <__mcmp+0x1c>
20008284:	bc10      	pop	{r4}
20008286:	4770      	bx	lr
20008288:	bf38      	it	cc
2000828a:	f04f 30ff 	movcc.w	r0, #4294967295
2000828e:	d3f9      	bcc.n	20008284 <__mcmp+0x30>
20008290:	2001      	movs	r0, #1
20008292:	e7f7      	b.n	20008284 <__mcmp+0x30>

20008294 <__ulp>:
20008294:	f240 0300 	movw	r3, #0
20008298:	f6c7 73f0 	movt	r3, #32752	; 0x7ff0
2000829c:	ea01 0303 	and.w	r3, r1, r3
200082a0:	f1a3 7350 	sub.w	r3, r3, #54525952	; 0x3400000
200082a4:	2b00      	cmp	r3, #0
200082a6:	dd02      	ble.n	200082ae <__ulp+0x1a>
200082a8:	4619      	mov	r1, r3
200082aa:	2000      	movs	r0, #0
200082ac:	4770      	bx	lr
200082ae:	425b      	negs	r3, r3
200082b0:	151b      	asrs	r3, r3, #20
200082b2:	2b13      	cmp	r3, #19
200082b4:	dd0e      	ble.n	200082d4 <__ulp+0x40>
200082b6:	3b14      	subs	r3, #20
200082b8:	2b1e      	cmp	r3, #30
200082ba:	dd03      	ble.n	200082c4 <__ulp+0x30>
200082bc:	2301      	movs	r3, #1
200082be:	2100      	movs	r1, #0
200082c0:	4618      	mov	r0, r3
200082c2:	4770      	bx	lr
200082c4:	2201      	movs	r2, #1
200082c6:	f1c3 031f 	rsb	r3, r3, #31
200082ca:	2100      	movs	r1, #0
200082cc:	fa12 f303 	lsls.w	r3, r2, r3
200082d0:	4618      	mov	r0, r3
200082d2:	4770      	bx	lr
200082d4:	f44f 2200 	mov.w	r2, #524288	; 0x80000
200082d8:	2000      	movs	r0, #0
200082da:	fa52 f103 	asrs.w	r1, r2, r3
200082de:	4770      	bx	lr

200082e0 <__b2d>:
200082e0:	e92d 41f0 	stmdb	sp!, {r4, r5, r6, r7, r8, lr}
200082e4:	6904      	ldr	r4, [r0, #16]
200082e6:	f100 0614 	add.w	r6, r0, #20
200082ea:	460f      	mov	r7, r1
200082ec:	3404      	adds	r4, #4
200082ee:	f850 5024 	ldr.w	r5, [r0, r4, lsl #2]
200082f2:	eb00 0484 	add.w	r4, r0, r4, lsl #2
200082f6:	46a0      	mov	r8, r4
200082f8:	4628      	mov	r0, r5
200082fa:	f7ff ff59 	bl	200081b0 <__hi0bits>
200082fe:	280a      	cmp	r0, #10
20008300:	f1c0 0320 	rsb	r3, r0, #32
20008304:	603b      	str	r3, [r7, #0]
20008306:	dc14      	bgt.n	20008332 <__b2d+0x52>
20008308:	42a6      	cmp	r6, r4
2000830a:	f1c0 030b 	rsb	r3, r0, #11
2000830e:	d237      	bcs.n	20008380 <__b2d+0xa0>
20008310:	f854 1c04 	ldr.w	r1, [r4, #-4]
20008314:	40d9      	lsrs	r1, r3
20008316:	fa25 fc03 	lsr.w	ip, r5, r3
2000831a:	3015      	adds	r0, #21
2000831c:	f04c 537e 	orr.w	r3, ip, #1065353216	; 0x3f800000
20008320:	4085      	lsls	r5, r0
20008322:	f443 03e0 	orr.w	r3, r3, #7340032	; 0x700000
20008326:	ea41 0205 	orr.w	r2, r1, r5
2000832a:	4610      	mov	r0, r2
2000832c:	4619      	mov	r1, r3
2000832e:	e8bd 81f0 	ldmia.w	sp!, {r4, r5, r6, r7, r8, pc}
20008332:	42a6      	cmp	r6, r4
20008334:	d320      	bcc.n	20008378 <__b2d+0x98>
20008336:	2100      	movs	r1, #0
20008338:	380b      	subs	r0, #11
2000833a:	bf02      	ittt	eq
2000833c:	f045 537e 	orreq.w	r3, r5, #1065353216	; 0x3f800000
20008340:	460a      	moveq	r2, r1
20008342:	f443 03e0 	orreq.w	r3, r3, #7340032	; 0x700000
20008346:	d0f0      	beq.n	2000832a <__b2d+0x4a>
20008348:	42b4      	cmp	r4, r6
2000834a:	f1c0 0320 	rsb	r3, r0, #32
2000834e:	d919      	bls.n	20008384 <__b2d+0xa4>
20008350:	f854 4c04 	ldr.w	r4, [r4, #-4]
20008354:	40dc      	lsrs	r4, r3
20008356:	4085      	lsls	r5, r0
20008358:	fa21 fc03 	lsr.w	ip, r1, r3
2000835c:	f045 557e 	orr.w	r5, r5, #1065353216	; 0x3f800000
20008360:	fa11 f000 	lsls.w	r0, r1, r0
20008364:	f445 05e0 	orr.w	r5, r5, #7340032	; 0x700000
20008368:	ea44 0200 	orr.w	r2, r4, r0
2000836c:	ea45 030c 	orr.w	r3, r5, ip
20008370:	4610      	mov	r0, r2
20008372:	4619      	mov	r1, r3
20008374:	e8bd 81f0 	ldmia.w	sp!, {r4, r5, r6, r7, r8, pc}
20008378:	f854 1c04 	ldr.w	r1, [r4, #-4]
2000837c:	3c04      	subs	r4, #4
2000837e:	e7db      	b.n	20008338 <__b2d+0x58>
20008380:	2100      	movs	r1, #0
20008382:	e7c8      	b.n	20008316 <__b2d+0x36>
20008384:	2400      	movs	r4, #0
20008386:	e7e6      	b.n	20008356 <__b2d+0x76>

20008388 <__ratio>:
20008388:	e92d 43f0 	stmdb	sp!, {r4, r5, r6, r7, r8, r9, lr}
2000838c:	b083      	sub	sp, #12
2000838e:	460e      	mov	r6, r1
20008390:	a901      	add	r1, sp, #4
20008392:	4607      	mov	r7, r0
20008394:	f7ff ffa4 	bl	200082e0 <__b2d>
20008398:	460d      	mov	r5, r1
2000839a:	4604      	mov	r4, r0
2000839c:	4669      	mov	r1, sp
2000839e:	4630      	mov	r0, r6
200083a0:	f7ff ff9e 	bl	200082e0 <__b2d>
200083a4:	f8dd c004 	ldr.w	ip, [sp, #4]
200083a8:	46a9      	mov	r9, r5
200083aa:	46a0      	mov	r8, r4
200083ac:	460b      	mov	r3, r1
200083ae:	4602      	mov	r2, r0
200083b0:	6931      	ldr	r1, [r6, #16]
200083b2:	4616      	mov	r6, r2
200083b4:	6938      	ldr	r0, [r7, #16]
200083b6:	461f      	mov	r7, r3
200083b8:	1a40      	subs	r0, r0, r1
200083ba:	9900      	ldr	r1, [sp, #0]
200083bc:	ebc1 010c 	rsb	r1, r1, ip
200083c0:	eb01 1140 	add.w	r1, r1, r0, lsl #5
200083c4:	2900      	cmp	r1, #0
200083c6:	bfc9      	itett	gt
200083c8:	eb05 5901 	addgt.w	r9, r5, r1, lsl #20
200083cc:	eba3 5701 	suble.w	r7, r3, r1, lsl #20
200083d0:	4624      	movgt	r4, r4
200083d2:	464d      	movgt	r5, r9
200083d4:	bfdc      	itt	le
200083d6:	4612      	movle	r2, r2
200083d8:	463b      	movle	r3, r7
200083da:	4620      	mov	r0, r4
200083dc:	4629      	mov	r1, r5
200083de:	f001 fc13 	bl	20009c08 <__aeabi_ddiv>
200083e2:	b003      	add	sp, #12
200083e4:	e8bd 83f0 	ldmia.w	sp!, {r4, r5, r6, r7, r8, r9, pc}

200083e8 <_mprec_log10>:
200083e8:	2817      	cmp	r0, #23
200083ea:	b510      	push	{r4, lr}
200083ec:	4604      	mov	r4, r0
200083ee:	dd0e      	ble.n	2000840e <_mprec_log10+0x26>
200083f0:	f240 0100 	movw	r1, #0
200083f4:	2000      	movs	r0, #0
200083f6:	f6c3 71f0 	movt	r1, #16368	; 0x3ff0
200083fa:	f240 0300 	movw	r3, #0
200083fe:	2200      	movs	r2, #0
20008400:	f2c4 0324 	movt	r3, #16420	; 0x4024
20008404:	f001 fad6 	bl	200099b4 <__aeabi_dmul>
20008408:	3c01      	subs	r4, #1
2000840a:	d1f6      	bne.n	200083fa <_mprec_log10+0x12>
2000840c:	bd10      	pop	{r4, pc}
2000840e:	f64a 43c0 	movw	r3, #44224	; 0xacc0
20008412:	f2c2 0300 	movt	r3, #8192	; 0x2000
20008416:	eb03 03c0 	add.w	r3, r3, r0, lsl #3
2000841a:	e9d3 0100 	ldrd	r0, r1, [r3]
2000841e:	bd10      	pop	{r4, pc}

20008420 <__copybits>:
20008420:	6913      	ldr	r3, [r2, #16]
20008422:	3901      	subs	r1, #1
20008424:	f102 0c14 	add.w	ip, r2, #20
20008428:	b410      	push	{r4}
2000842a:	eb02 0283 	add.w	r2, r2, r3, lsl #2
2000842e:	114c      	asrs	r4, r1, #5
20008430:	3214      	adds	r2, #20
20008432:	3401      	adds	r4, #1
20008434:	4594      	cmp	ip, r2
20008436:	eb00 0484 	add.w	r4, r0, r4, lsl #2
2000843a:	d20f      	bcs.n	2000845c <__copybits+0x3c>
2000843c:	2300      	movs	r3, #0
2000843e:	f85c 1003 	ldr.w	r1, [ip, r3]
20008442:	50c1      	str	r1, [r0, r3]
20008444:	3304      	adds	r3, #4
20008446:	eb03 010c 	add.w	r1, r3, ip
2000844a:	428a      	cmp	r2, r1
2000844c:	d8f7      	bhi.n	2000843e <__copybits+0x1e>
2000844e:	ea6f 0c0c 	mvn.w	ip, ip
20008452:	4462      	add	r2, ip
20008454:	f022 0203 	bic.w	r2, r2, #3
20008458:	3204      	adds	r2, #4
2000845a:	1880      	adds	r0, r0, r2
2000845c:	4284      	cmp	r4, r0
2000845e:	d904      	bls.n	2000846a <__copybits+0x4a>
20008460:	2300      	movs	r3, #0
20008462:	f840 3b04 	str.w	r3, [r0], #4
20008466:	4284      	cmp	r4, r0
20008468:	d8fb      	bhi.n	20008462 <__copybits+0x42>
2000846a:	bc10      	pop	{r4}
2000846c:	4770      	bx	lr
2000846e:	bf00      	nop

20008470 <__any_on>:
20008470:	6902      	ldr	r2, [r0, #16]
20008472:	114b      	asrs	r3, r1, #5
20008474:	429a      	cmp	r2, r3
20008476:	db10      	blt.n	2000849a <__any_on+0x2a>
20008478:	dd0e      	ble.n	20008498 <__any_on+0x28>
2000847a:	f011 011f 	ands.w	r1, r1, #31
2000847e:	d00b      	beq.n	20008498 <__any_on+0x28>
20008480:	461a      	mov	r2, r3
20008482:	eb00 0383 	add.w	r3, r0, r3, lsl #2
20008486:	695b      	ldr	r3, [r3, #20]
20008488:	fa23 fc01 	lsr.w	ip, r3, r1
2000848c:	fa0c f101 	lsl.w	r1, ip, r1
20008490:	4299      	cmp	r1, r3
20008492:	d002      	beq.n	2000849a <__any_on+0x2a>
20008494:	2001      	movs	r0, #1
20008496:	4770      	bx	lr
20008498:	461a      	mov	r2, r3
2000849a:	3204      	adds	r2, #4
2000849c:	f100 0114 	add.w	r1, r0, #20
200084a0:	eb00 0382 	add.w	r3, r0, r2, lsl #2
200084a4:	f103 0c04 	add.w	ip, r3, #4
200084a8:	4561      	cmp	r1, ip
200084aa:	d20b      	bcs.n	200084c4 <__any_on+0x54>
200084ac:	f850 2022 	ldr.w	r2, [r0, r2, lsl #2]
200084b0:	2a00      	cmp	r2, #0
200084b2:	d1ef      	bne.n	20008494 <__any_on+0x24>
200084b4:	4299      	cmp	r1, r3
200084b6:	d205      	bcs.n	200084c4 <__any_on+0x54>
200084b8:	f853 2d04 	ldr.w	r2, [r3, #-4]!
200084bc:	2a00      	cmp	r2, #0
200084be:	d1e9      	bne.n	20008494 <__any_on+0x24>
200084c0:	4299      	cmp	r1, r3
200084c2:	d3f9      	bcc.n	200084b8 <__any_on+0x48>
200084c4:	2000      	movs	r0, #0
200084c6:	4770      	bx	lr

200084c8 <_Bfree>:
200084c8:	b530      	push	{r4, r5, lr}
200084ca:	6a45      	ldr	r5, [r0, #36]	; 0x24
200084cc:	b083      	sub	sp, #12
200084ce:	4604      	mov	r4, r0
200084d0:	b155      	cbz	r5, 200084e8 <_Bfree+0x20>
200084d2:	b139      	cbz	r1, 200084e4 <_Bfree+0x1c>
200084d4:	6a63      	ldr	r3, [r4, #36]	; 0x24
200084d6:	684a      	ldr	r2, [r1, #4]
200084d8:	68db      	ldr	r3, [r3, #12]
200084da:	f853 0022 	ldr.w	r0, [r3, r2, lsl #2]
200084de:	6008      	str	r0, [r1, #0]
200084e0:	f843 1022 	str.w	r1, [r3, r2, lsl #2]
200084e4:	b003      	add	sp, #12
200084e6:	bd30      	pop	{r4, r5, pc}
200084e8:	2010      	movs	r0, #16
200084ea:	9101      	str	r1, [sp, #4]
200084ec:	f7fb ff0a 	bl	20004304 <malloc>
200084f0:	9901      	ldr	r1, [sp, #4]
200084f2:	6260      	str	r0, [r4, #36]	; 0x24
200084f4:	60c5      	str	r5, [r0, #12]
200084f6:	6045      	str	r5, [r0, #4]
200084f8:	6085      	str	r5, [r0, #8]
200084fa:	6005      	str	r5, [r0, #0]
200084fc:	e7e9      	b.n	200084d2 <_Bfree+0xa>
200084fe:	bf00      	nop

20008500 <_Balloc>:
20008500:	b570      	push	{r4, r5, r6, lr}
20008502:	6a44      	ldr	r4, [r0, #36]	; 0x24
20008504:	4606      	mov	r6, r0
20008506:	460d      	mov	r5, r1
20008508:	b164      	cbz	r4, 20008524 <_Balloc+0x24>
2000850a:	68e2      	ldr	r2, [r4, #12]
2000850c:	b1a2      	cbz	r2, 20008538 <_Balloc+0x38>
2000850e:	f852 3025 	ldr.w	r3, [r2, r5, lsl #2]
20008512:	b1eb      	cbz	r3, 20008550 <_Balloc+0x50>
20008514:	6819      	ldr	r1, [r3, #0]
20008516:	f842 1025 	str.w	r1, [r2, r5, lsl #2]
2000851a:	2200      	movs	r2, #0
2000851c:	60da      	str	r2, [r3, #12]
2000851e:	611a      	str	r2, [r3, #16]
20008520:	4618      	mov	r0, r3
20008522:	bd70      	pop	{r4, r5, r6, pc}
20008524:	2010      	movs	r0, #16
20008526:	f7fb feed 	bl	20004304 <malloc>
2000852a:	2300      	movs	r3, #0
2000852c:	4604      	mov	r4, r0
2000852e:	6270      	str	r0, [r6, #36]	; 0x24
20008530:	60c3      	str	r3, [r0, #12]
20008532:	6043      	str	r3, [r0, #4]
20008534:	6083      	str	r3, [r0, #8]
20008536:	6003      	str	r3, [r0, #0]
20008538:	2210      	movs	r2, #16
2000853a:	4630      	mov	r0, r6
2000853c:	2104      	movs	r1, #4
2000853e:	f000 fe43 	bl	200091c8 <_calloc_r>
20008542:	6a73      	ldr	r3, [r6, #36]	; 0x24
20008544:	60e0      	str	r0, [r4, #12]
20008546:	68da      	ldr	r2, [r3, #12]
20008548:	2a00      	cmp	r2, #0
2000854a:	d1e0      	bne.n	2000850e <_Balloc+0xe>
2000854c:	4613      	mov	r3, r2
2000854e:	e7e7      	b.n	20008520 <_Balloc+0x20>
20008550:	2401      	movs	r4, #1
20008552:	4630      	mov	r0, r6
20008554:	4621      	mov	r1, r4
20008556:	40ac      	lsls	r4, r5
20008558:	1d62      	adds	r2, r4, #5
2000855a:	0092      	lsls	r2, r2, #2
2000855c:	f000 fe34 	bl	200091c8 <_calloc_r>
20008560:	4603      	mov	r3, r0
20008562:	2800      	cmp	r0, #0
20008564:	d0dc      	beq.n	20008520 <_Balloc+0x20>
20008566:	6045      	str	r5, [r0, #4]
20008568:	6084      	str	r4, [r0, #8]
2000856a:	e7d6      	b.n	2000851a <_Balloc+0x1a>

2000856c <__d2b>:
2000856c:	e92d 45f0 	stmdb	sp!, {r4, r5, r6, r7, r8, sl, lr}
20008570:	b083      	sub	sp, #12
20008572:	2101      	movs	r1, #1
20008574:	461d      	mov	r5, r3
20008576:	4614      	mov	r4, r2
20008578:	9f0a      	ldr	r7, [sp, #40]	; 0x28
2000857a:	9e0b      	ldr	r6, [sp, #44]	; 0x2c
2000857c:	f7ff ffc0 	bl	20008500 <_Balloc>
20008580:	f025 4200 	bic.w	r2, r5, #2147483648	; 0x80000000
20008584:	f025 437f 	bic.w	r3, r5, #4278190080	; 0xff000000
20008588:	f423 0370 	bic.w	r3, r3, #15728640	; 0xf00000
2000858c:	4615      	mov	r5, r2
2000858e:	ea5f 5a12 	movs.w	sl, r2, lsr #20
20008592:	9300      	str	r3, [sp, #0]
20008594:	bf1c      	itt	ne
20008596:	f443 1380 	orrne.w	r3, r3, #1048576	; 0x100000
2000859a:	9300      	strne	r3, [sp, #0]
2000859c:	4680      	mov	r8, r0
2000859e:	2c00      	cmp	r4, #0
200085a0:	d023      	beq.n	200085ea <__d2b+0x7e>
200085a2:	a802      	add	r0, sp, #8
200085a4:	f840 4d04 	str.w	r4, [r0, #-4]!
200085a8:	f7ff fe22 	bl	200081f0 <__lo0bits>
200085ac:	4603      	mov	r3, r0
200085ae:	2800      	cmp	r0, #0
200085b0:	d137      	bne.n	20008622 <__d2b+0xb6>
200085b2:	9901      	ldr	r1, [sp, #4]
200085b4:	9a00      	ldr	r2, [sp, #0]
200085b6:	f8c8 1014 	str.w	r1, [r8, #20]
200085ba:	2a00      	cmp	r2, #0
200085bc:	bf14      	ite	ne
200085be:	2402      	movne	r4, #2
200085c0:	2401      	moveq	r4, #1
200085c2:	f8c8 2018 	str.w	r2, [r8, #24]
200085c6:	f8c8 4010 	str.w	r4, [r8, #16]
200085ca:	f1ba 0f00 	cmp.w	sl, #0
200085ce:	d01b      	beq.n	20008608 <__d2b+0x9c>
200085d0:	f5aa 6a86 	sub.w	sl, sl, #1072	; 0x430
200085d4:	f1c3 0235 	rsb	r2, r3, #53	; 0x35
200085d8:	f1aa 0a03 	sub.w	sl, sl, #3
200085dc:	4453      	add	r3, sl
200085de:	603b      	str	r3, [r7, #0]
200085e0:	6032      	str	r2, [r6, #0]
200085e2:	4640      	mov	r0, r8
200085e4:	b003      	add	sp, #12
200085e6:	e8bd 85f0 	ldmia.w	sp!, {r4, r5, r6, r7, r8, sl, pc}
200085ea:	4668      	mov	r0, sp
200085ec:	f7ff fe00 	bl	200081f0 <__lo0bits>
200085f0:	2301      	movs	r3, #1
200085f2:	461c      	mov	r4, r3
200085f4:	f8c8 3010 	str.w	r3, [r8, #16]
200085f8:	9b00      	ldr	r3, [sp, #0]
200085fa:	f8c8 3014 	str.w	r3, [r8, #20]
200085fe:	f100 0320 	add.w	r3, r0, #32
20008602:	f1ba 0f00 	cmp.w	sl, #0
20008606:	d1e3      	bne.n	200085d0 <__d2b+0x64>
20008608:	eb08 0284 	add.w	r2, r8, r4, lsl #2
2000860c:	f5a3 6386 	sub.w	r3, r3, #1072	; 0x430
20008610:	3b02      	subs	r3, #2
20008612:	603b      	str	r3, [r7, #0]
20008614:	6910      	ldr	r0, [r2, #16]
20008616:	f7ff fdcb 	bl	200081b0 <__hi0bits>
2000861a:	ebc0 1044 	rsb	r0, r0, r4, lsl #5
2000861e:	6030      	str	r0, [r6, #0]
20008620:	e7df      	b.n	200085e2 <__d2b+0x76>
20008622:	9a00      	ldr	r2, [sp, #0]
20008624:	f1c0 0120 	rsb	r1, r0, #32
20008628:	fa12 f101 	lsls.w	r1, r2, r1
2000862c:	40c2      	lsrs	r2, r0
2000862e:	9801      	ldr	r0, [sp, #4]
20008630:	4301      	orrs	r1, r0
20008632:	f8c8 1014 	str.w	r1, [r8, #20]
20008636:	9200      	str	r2, [sp, #0]
20008638:	e7bf      	b.n	200085ba <__d2b+0x4e>
2000863a:	bf00      	nop

2000863c <__mdiff>:
2000863c:	e92d 4ff8 	stmdb	sp!, {r3, r4, r5, r6, r7, r8, r9, sl, fp, lr}
20008640:	6913      	ldr	r3, [r2, #16]
20008642:	690f      	ldr	r7, [r1, #16]
20008644:	460c      	mov	r4, r1
20008646:	4615      	mov	r5, r2
20008648:	1aff      	subs	r7, r7, r3
2000864a:	2f00      	cmp	r7, #0
2000864c:	d04f      	beq.n	200086ee <__mdiff+0xb2>
2000864e:	db6a      	blt.n	20008726 <__mdiff+0xea>
20008650:	2700      	movs	r7, #0
20008652:	f101 0614 	add.w	r6, r1, #20
20008656:	6861      	ldr	r1, [r4, #4]
20008658:	f7ff ff52 	bl	20008500 <_Balloc>
2000865c:	f8d5 8010 	ldr.w	r8, [r5, #16]
20008660:	f8d4 c010 	ldr.w	ip, [r4, #16]
20008664:	f105 0114 	add.w	r1, r5, #20
20008668:	2200      	movs	r2, #0
2000866a:	eb05 0588 	add.w	r5, r5, r8, lsl #2
2000866e:	eb04 048c 	add.w	r4, r4, ip, lsl #2
20008672:	f105 0814 	add.w	r8, r5, #20
20008676:	3414      	adds	r4, #20
20008678:	f100 0314 	add.w	r3, r0, #20
2000867c:	60c7      	str	r7, [r0, #12]
2000867e:	f851 7b04 	ldr.w	r7, [r1], #4
20008682:	f856 5b04 	ldr.w	r5, [r6], #4
20008686:	46bb      	mov	fp, r7
20008688:	fa1f fa87 	uxth.w	sl, r7
2000868c:	0c3f      	lsrs	r7, r7, #16
2000868e:	fa1f f985 	uxth.w	r9, r5
20008692:	ebc7 4715 	rsb	r7, r7, r5, lsr #16
20008696:	ebca 0a09 	rsb	sl, sl, r9
2000869a:	4452      	add	r2, sl
2000869c:	eb07 4722 	add.w	r7, r7, r2, asr #16
200086a0:	b292      	uxth	r2, r2
200086a2:	ea42 4207 	orr.w	r2, r2, r7, lsl #16
200086a6:	f843 2b04 	str.w	r2, [r3], #4
200086aa:	143a      	asrs	r2, r7, #16
200086ac:	4588      	cmp	r8, r1
200086ae:	d8e6      	bhi.n	2000867e <__mdiff+0x42>
200086b0:	42a6      	cmp	r6, r4
200086b2:	d20e      	bcs.n	200086d2 <__mdiff+0x96>
200086b4:	f856 1b04 	ldr.w	r1, [r6], #4
200086b8:	b28d      	uxth	r5, r1
200086ba:	0c09      	lsrs	r1, r1, #16
200086bc:	1952      	adds	r2, r2, r5
200086be:	eb01 4122 	add.w	r1, r1, r2, asr #16
200086c2:	b292      	uxth	r2, r2
200086c4:	ea42 4201 	orr.w	r2, r2, r1, lsl #16
200086c8:	f843 2b04 	str.w	r2, [r3], #4
200086cc:	140a      	asrs	r2, r1, #16
200086ce:	42b4      	cmp	r4, r6
200086d0:	d8f0      	bhi.n	200086b4 <__mdiff+0x78>
200086d2:	f853 2c04 	ldr.w	r2, [r3, #-4]
200086d6:	b932      	cbnz	r2, 200086e6 <__mdiff+0xaa>
200086d8:	f853 2c08 	ldr.w	r2, [r3, #-8]
200086dc:	f10c 3cff 	add.w	ip, ip, #4294967295
200086e0:	3b04      	subs	r3, #4
200086e2:	2a00      	cmp	r2, #0
200086e4:	d0f8      	beq.n	200086d8 <__mdiff+0x9c>
200086e6:	f8c0 c010 	str.w	ip, [r0, #16]
200086ea:	e8bd 8ff8 	ldmia.w	sp!, {r3, r4, r5, r6, r7, r8, r9, sl, fp, pc}
200086ee:	3304      	adds	r3, #4
200086f0:	f101 0614 	add.w	r6, r1, #20
200086f4:	009b      	lsls	r3, r3, #2
200086f6:	18d2      	adds	r2, r2, r3
200086f8:	18cb      	adds	r3, r1, r3
200086fa:	3304      	adds	r3, #4
200086fc:	3204      	adds	r2, #4
200086fe:	f853 cc04 	ldr.w	ip, [r3, #-4]
20008702:	3b04      	subs	r3, #4
20008704:	f852 1c04 	ldr.w	r1, [r2, #-4]
20008708:	3a04      	subs	r2, #4
2000870a:	458c      	cmp	ip, r1
2000870c:	d10a      	bne.n	20008724 <__mdiff+0xe8>
2000870e:	429e      	cmp	r6, r3
20008710:	d3f5      	bcc.n	200086fe <__mdiff+0xc2>
20008712:	2100      	movs	r1, #0
20008714:	f7ff fef4 	bl	20008500 <_Balloc>
20008718:	2301      	movs	r3, #1
2000871a:	6103      	str	r3, [r0, #16]
2000871c:	2300      	movs	r3, #0
2000871e:	6143      	str	r3, [r0, #20]
20008720:	e8bd 8ff8 	ldmia.w	sp!, {r3, r4, r5, r6, r7, r8, r9, sl, fp, pc}
20008724:	d297      	bcs.n	20008656 <__mdiff+0x1a>
20008726:	4623      	mov	r3, r4
20008728:	462c      	mov	r4, r5
2000872a:	2701      	movs	r7, #1
2000872c:	461d      	mov	r5, r3
2000872e:	f104 0614 	add.w	r6, r4, #20
20008732:	e790      	b.n	20008656 <__mdiff+0x1a>

20008734 <__lshift>:
20008734:	e92d 45f8 	stmdb	sp!, {r3, r4, r5, r6, r7, r8, sl, lr}
20008738:	690d      	ldr	r5, [r1, #16]
2000873a:	688b      	ldr	r3, [r1, #8]
2000873c:	1156      	asrs	r6, r2, #5
2000873e:	3501      	adds	r5, #1
20008740:	460c      	mov	r4, r1
20008742:	19ad      	adds	r5, r5, r6
20008744:	4690      	mov	r8, r2
20008746:	429d      	cmp	r5, r3
20008748:	4682      	mov	sl, r0
2000874a:	6849      	ldr	r1, [r1, #4]
2000874c:	dd03      	ble.n	20008756 <__lshift+0x22>
2000874e:	005b      	lsls	r3, r3, #1
20008750:	3101      	adds	r1, #1
20008752:	429d      	cmp	r5, r3
20008754:	dcfb      	bgt.n	2000874e <__lshift+0x1a>
20008756:	4650      	mov	r0, sl
20008758:	f7ff fed2 	bl	20008500 <_Balloc>
2000875c:	2e00      	cmp	r6, #0
2000875e:	4607      	mov	r7, r0
20008760:	f100 0214 	add.w	r2, r0, #20
20008764:	dd0a      	ble.n	2000877c <__lshift+0x48>
20008766:	2300      	movs	r3, #0
20008768:	4619      	mov	r1, r3
2000876a:	f842 1023 	str.w	r1, [r2, r3, lsl #2]
2000876e:	3301      	adds	r3, #1
20008770:	42b3      	cmp	r3, r6
20008772:	d1fa      	bne.n	2000876a <__lshift+0x36>
20008774:	eb07 0383 	add.w	r3, r7, r3, lsl #2
20008778:	f103 0214 	add.w	r2, r3, #20
2000877c:	6920      	ldr	r0, [r4, #16]
2000877e:	f104 0314 	add.w	r3, r4, #20
20008782:	eb04 0080 	add.w	r0, r4, r0, lsl #2
20008786:	3014      	adds	r0, #20
20008788:	f018 081f 	ands.w	r8, r8, #31
2000878c:	d01b      	beq.n	200087c6 <__lshift+0x92>
2000878e:	f1c8 0e20 	rsb	lr, r8, #32
20008792:	2100      	movs	r1, #0
20008794:	681e      	ldr	r6, [r3, #0]
20008796:	fa06 fc08 	lsl.w	ip, r6, r8
2000879a:	ea41 010c 	orr.w	r1, r1, ip
2000879e:	f842 1b04 	str.w	r1, [r2], #4
200087a2:	f853 1b04 	ldr.w	r1, [r3], #4
200087a6:	4298      	cmp	r0, r3
200087a8:	fa21 f10e 	lsr.w	r1, r1, lr
200087ac:	d8f2      	bhi.n	20008794 <__lshift+0x60>
200087ae:	6011      	str	r1, [r2, #0]
200087b0:	b101      	cbz	r1, 200087b4 <__lshift+0x80>
200087b2:	3501      	adds	r5, #1
200087b4:	4650      	mov	r0, sl
200087b6:	3d01      	subs	r5, #1
200087b8:	4621      	mov	r1, r4
200087ba:	613d      	str	r5, [r7, #16]
200087bc:	f7ff fe84 	bl	200084c8 <_Bfree>
200087c0:	4638      	mov	r0, r7
200087c2:	e8bd 85f8 	ldmia.w	sp!, {r3, r4, r5, r6, r7, r8, sl, pc}
200087c6:	f853 1008 	ldr.w	r1, [r3, r8]
200087ca:	f842 1008 	str.w	r1, [r2, r8]
200087ce:	f108 0804 	add.w	r8, r8, #4
200087d2:	eb08 0103 	add.w	r1, r8, r3
200087d6:	4288      	cmp	r0, r1
200087d8:	d9ec      	bls.n	200087b4 <__lshift+0x80>
200087da:	f853 1008 	ldr.w	r1, [r3, r8]
200087de:	f842 1008 	str.w	r1, [r2, r8]
200087e2:	f108 0804 	add.w	r8, r8, #4
200087e6:	eb08 0103 	add.w	r1, r8, r3
200087ea:	4288      	cmp	r0, r1
200087ec:	d8eb      	bhi.n	200087c6 <__lshift+0x92>
200087ee:	e7e1      	b.n	200087b4 <__lshift+0x80>

200087f0 <__multiply>:
200087f0:	e92d 4ff0 	stmdb	sp!, {r4, r5, r6, r7, r8, r9, sl, fp, lr}
200087f4:	f8d1 8010 	ldr.w	r8, [r1, #16]
200087f8:	6917      	ldr	r7, [r2, #16]
200087fa:	460d      	mov	r5, r1
200087fc:	4616      	mov	r6, r2
200087fe:	b087      	sub	sp, #28
20008800:	45b8      	cmp	r8, r7
20008802:	bfb5      	itete	lt
20008804:	4615      	movlt	r5, r2
20008806:	463b      	movge	r3, r7
20008808:	460b      	movlt	r3, r1
2000880a:	4647      	movge	r7, r8
2000880c:	bfb4      	ite	lt
2000880e:	461e      	movlt	r6, r3
20008810:	4698      	movge	r8, r3
20008812:	68ab      	ldr	r3, [r5, #8]
20008814:	eb08 0407 	add.w	r4, r8, r7
20008818:	6869      	ldr	r1, [r5, #4]
2000881a:	429c      	cmp	r4, r3
2000881c:	bfc8      	it	gt
2000881e:	3101      	addgt	r1, #1
20008820:	f7ff fe6e 	bl	20008500 <_Balloc>
20008824:	eb00 0384 	add.w	r3, r0, r4, lsl #2
20008828:	f100 0b14 	add.w	fp, r0, #20
2000882c:	3314      	adds	r3, #20
2000882e:	9003      	str	r0, [sp, #12]
20008830:	459b      	cmp	fp, r3
20008832:	9304      	str	r3, [sp, #16]
20008834:	d206      	bcs.n	20008844 <__multiply+0x54>
20008836:	9904      	ldr	r1, [sp, #16]
20008838:	465b      	mov	r3, fp
2000883a:	2200      	movs	r2, #0
2000883c:	f843 2b04 	str.w	r2, [r3], #4
20008840:	4299      	cmp	r1, r3
20008842:	d8fb      	bhi.n	2000883c <__multiply+0x4c>
20008844:	eb06 0888 	add.w	r8, r6, r8, lsl #2
20008848:	f106 0914 	add.w	r9, r6, #20
2000884c:	f108 0814 	add.w	r8, r8, #20
20008850:	eb05 0c87 	add.w	ip, r5, r7, lsl #2
20008854:	3514      	adds	r5, #20
20008856:	45c1      	cmp	r9, r8
20008858:	f8cd 8004 	str.w	r8, [sp, #4]
2000885c:	f10c 0c14 	add.w	ip, ip, #20
20008860:	9502      	str	r5, [sp, #8]
20008862:	d24b      	bcs.n	200088fc <__multiply+0x10c>
20008864:	f04f 0a00 	mov.w	sl, #0
20008868:	9405      	str	r4, [sp, #20]
2000886a:	f859 400a 	ldr.w	r4, [r9, sl]
2000886e:	eb0a 080b 	add.w	r8, sl, fp
20008872:	b2a0      	uxth	r0, r4
20008874:	b1d8      	cbz	r0, 200088ae <__multiply+0xbe>
20008876:	9a02      	ldr	r2, [sp, #8]
20008878:	4643      	mov	r3, r8
2000887a:	2400      	movs	r4, #0
2000887c:	f852 5b04 	ldr.w	r5, [r2], #4
20008880:	6819      	ldr	r1, [r3, #0]
20008882:	b2af      	uxth	r7, r5
20008884:	0c2d      	lsrs	r5, r5, #16
20008886:	b28e      	uxth	r6, r1
20008888:	0c09      	lsrs	r1, r1, #16
2000888a:	fb00 6607 	mla	r6, r0, r7, r6
2000888e:	fb00 1105 	mla	r1, r0, r5, r1
20008892:	1936      	adds	r6, r6, r4
20008894:	eb01 4116 	add.w	r1, r1, r6, lsr #16
20008898:	b2b6      	uxth	r6, r6
2000889a:	0c0c      	lsrs	r4, r1, #16
2000889c:	4594      	cmp	ip, r2
2000889e:	ea46 4601 	orr.w	r6, r6, r1, lsl #16
200088a2:	f843 6b04 	str.w	r6, [r3], #4
200088a6:	d8e9      	bhi.n	2000887c <__multiply+0x8c>
200088a8:	601c      	str	r4, [r3, #0]
200088aa:	f859 400a 	ldr.w	r4, [r9, sl]
200088ae:	0c24      	lsrs	r4, r4, #16
200088b0:	d01c      	beq.n	200088ec <__multiply+0xfc>
200088b2:	f85b 200a 	ldr.w	r2, [fp, sl]
200088b6:	4641      	mov	r1, r8
200088b8:	9b02      	ldr	r3, [sp, #8]
200088ba:	2500      	movs	r5, #0
200088bc:	4610      	mov	r0, r2
200088be:	881e      	ldrh	r6, [r3, #0]
200088c0:	b297      	uxth	r7, r2
200088c2:	fb06 5504 	mla	r5, r6, r4, r5
200088c6:	eb05 4510 	add.w	r5, r5, r0, lsr #16
200088ca:	ea47 4705 	orr.w	r7, r7, r5, lsl #16
200088ce:	600f      	str	r7, [r1, #0]
200088d0:	f851 0f04 	ldr.w	r0, [r1, #4]!
200088d4:	f853 2b04 	ldr.w	r2, [r3], #4
200088d8:	b286      	uxth	r6, r0
200088da:	0c12      	lsrs	r2, r2, #16
200088dc:	fb02 6204 	mla	r2, r2, r4, r6
200088e0:	eb02 4215 	add.w	r2, r2, r5, lsr #16
200088e4:	0c15      	lsrs	r5, r2, #16
200088e6:	459c      	cmp	ip, r3
200088e8:	d8e9      	bhi.n	200088be <__multiply+0xce>
200088ea:	600a      	str	r2, [r1, #0]
200088ec:	f10a 0a04 	add.w	sl, sl, #4
200088f0:	9a01      	ldr	r2, [sp, #4]
200088f2:	eb0a 0309 	add.w	r3, sl, r9
200088f6:	429a      	cmp	r2, r3
200088f8:	d8b7      	bhi.n	2000886a <__multiply+0x7a>
200088fa:	9c05      	ldr	r4, [sp, #20]
200088fc:	2c00      	cmp	r4, #0
200088fe:	dd0b      	ble.n	20008918 <__multiply+0x128>
20008900:	9a04      	ldr	r2, [sp, #16]
20008902:	f852 3c04 	ldr.w	r3, [r2, #-4]
20008906:	b93b      	cbnz	r3, 20008918 <__multiply+0x128>
20008908:	4613      	mov	r3, r2
2000890a:	e003      	b.n	20008914 <__multiply+0x124>
2000890c:	f853 2c08 	ldr.w	r2, [r3, #-8]
20008910:	3b04      	subs	r3, #4
20008912:	b90a      	cbnz	r2, 20008918 <__multiply+0x128>
20008914:	3c01      	subs	r4, #1
20008916:	d1f9      	bne.n	2000890c <__multiply+0x11c>
20008918:	9b03      	ldr	r3, [sp, #12]
2000891a:	4618      	mov	r0, r3
2000891c:	611c      	str	r4, [r3, #16]
2000891e:	b007      	add	sp, #28
20008920:	e8bd 8ff0 	ldmia.w	sp!, {r4, r5, r6, r7, r8, r9, sl, fp, pc}

20008924 <__i2b>:
20008924:	b510      	push	{r4, lr}
20008926:	460c      	mov	r4, r1
20008928:	2101      	movs	r1, #1
2000892a:	f7ff fde9 	bl	20008500 <_Balloc>
2000892e:	2201      	movs	r2, #1
20008930:	6144      	str	r4, [r0, #20]
20008932:	6102      	str	r2, [r0, #16]
20008934:	bd10      	pop	{r4, pc}
20008936:	bf00      	nop

20008938 <__multadd>:
20008938:	e92d 45f0 	stmdb	sp!, {r4, r5, r6, r7, r8, sl, lr}
2000893c:	460d      	mov	r5, r1
2000893e:	2100      	movs	r1, #0
20008940:	4606      	mov	r6, r0
20008942:	692c      	ldr	r4, [r5, #16]
20008944:	b083      	sub	sp, #12
20008946:	f105 0814 	add.w	r8, r5, #20
2000894a:	4608      	mov	r0, r1
2000894c:	f858 7001 	ldr.w	r7, [r8, r1]
20008950:	3001      	adds	r0, #1
20008952:	fa1f fa87 	uxth.w	sl, r7
20008956:	ea4f 4c17 	mov.w	ip, r7, lsr #16
2000895a:	fb0a 3302 	mla	r3, sl, r2, r3
2000895e:	fb0c fc02 	mul.w	ip, ip, r2
20008962:	eb0c 4c13 	add.w	ip, ip, r3, lsr #16
20008966:	b29b      	uxth	r3, r3
20008968:	eb03 430c 	add.w	r3, r3, ip, lsl #16
2000896c:	f848 3001 	str.w	r3, [r8, r1]
20008970:	3104      	adds	r1, #4
20008972:	4284      	cmp	r4, r0
20008974:	ea4f 431c 	mov.w	r3, ip, lsr #16
20008978:	dce8      	bgt.n	2000894c <__multadd+0x14>
2000897a:	b13b      	cbz	r3, 2000898c <__multadd+0x54>
2000897c:	68aa      	ldr	r2, [r5, #8]
2000897e:	4294      	cmp	r4, r2
20008980:	da08      	bge.n	20008994 <__multadd+0x5c>
20008982:	eb05 0284 	add.w	r2, r5, r4, lsl #2
20008986:	3401      	adds	r4, #1
20008988:	612c      	str	r4, [r5, #16]
2000898a:	6153      	str	r3, [r2, #20]
2000898c:	4628      	mov	r0, r5
2000898e:	b003      	add	sp, #12
20008990:	e8bd 85f0 	ldmia.w	sp!, {r4, r5, r6, r7, r8, sl, pc}
20008994:	6869      	ldr	r1, [r5, #4]
20008996:	4630      	mov	r0, r6
20008998:	9301      	str	r3, [sp, #4]
2000899a:	3101      	adds	r1, #1
2000899c:	f7ff fdb0 	bl	20008500 <_Balloc>
200089a0:	692a      	ldr	r2, [r5, #16]
200089a2:	f105 010c 	add.w	r1, r5, #12
200089a6:	3202      	adds	r2, #2
200089a8:	0092      	lsls	r2, r2, #2
200089aa:	4607      	mov	r7, r0
200089ac:	300c      	adds	r0, #12
200089ae:	f7ff fadb 	bl	20007f68 <memcpy>
200089b2:	4629      	mov	r1, r5
200089b4:	4630      	mov	r0, r6
200089b6:	463d      	mov	r5, r7
200089b8:	f7ff fd86 	bl	200084c8 <_Bfree>
200089bc:	9b01      	ldr	r3, [sp, #4]
200089be:	e7e0      	b.n	20008982 <__multadd+0x4a>

200089c0 <__pow5mult>:
200089c0:	e92d 41f0 	stmdb	sp!, {r4, r5, r6, r7, r8, lr}
200089c4:	4615      	mov	r5, r2
200089c6:	f012 0203 	ands.w	r2, r2, #3
200089ca:	4604      	mov	r4, r0
200089cc:	4688      	mov	r8, r1
200089ce:	d12c      	bne.n	20008a2a <__pow5mult+0x6a>
200089d0:	10ad      	asrs	r5, r5, #2
200089d2:	d01e      	beq.n	20008a12 <__pow5mult+0x52>
200089d4:	6a66      	ldr	r6, [r4, #36]	; 0x24
200089d6:	2e00      	cmp	r6, #0
200089d8:	d034      	beq.n	20008a44 <__pow5mult+0x84>
200089da:	68b7      	ldr	r7, [r6, #8]
200089dc:	2f00      	cmp	r7, #0
200089de:	d03b      	beq.n	20008a58 <__pow5mult+0x98>
200089e0:	f015 0f01 	tst.w	r5, #1
200089e4:	d108      	bne.n	200089f8 <__pow5mult+0x38>
200089e6:	106d      	asrs	r5, r5, #1
200089e8:	d013      	beq.n	20008a12 <__pow5mult+0x52>
200089ea:	683e      	ldr	r6, [r7, #0]
200089ec:	b1a6      	cbz	r6, 20008a18 <__pow5mult+0x58>
200089ee:	4630      	mov	r0, r6
200089f0:	4607      	mov	r7, r0
200089f2:	f015 0f01 	tst.w	r5, #1
200089f6:	d0f6      	beq.n	200089e6 <__pow5mult+0x26>
200089f8:	4641      	mov	r1, r8
200089fa:	463a      	mov	r2, r7
200089fc:	4620      	mov	r0, r4
200089fe:	f7ff fef7 	bl	200087f0 <__multiply>
20008a02:	4641      	mov	r1, r8
20008a04:	4606      	mov	r6, r0
20008a06:	4620      	mov	r0, r4
20008a08:	f7ff fd5e 	bl	200084c8 <_Bfree>
20008a0c:	106d      	asrs	r5, r5, #1
20008a0e:	46b0      	mov	r8, r6
20008a10:	d1eb      	bne.n	200089ea <__pow5mult+0x2a>
20008a12:	4640      	mov	r0, r8
20008a14:	e8bd 81f0 	ldmia.w	sp!, {r4, r5, r6, r7, r8, pc}
20008a18:	4639      	mov	r1, r7
20008a1a:	463a      	mov	r2, r7
20008a1c:	4620      	mov	r0, r4
20008a1e:	f7ff fee7 	bl	200087f0 <__multiply>
20008a22:	6038      	str	r0, [r7, #0]
20008a24:	4607      	mov	r7, r0
20008a26:	6006      	str	r6, [r0, #0]
20008a28:	e7e3      	b.n	200089f2 <__pow5mult+0x32>
20008a2a:	f64a 4cc0 	movw	ip, #44224	; 0xacc0
20008a2e:	2300      	movs	r3, #0
20008a30:	f2c2 0c00 	movt	ip, #8192	; 0x2000
20008a34:	eb0c 0282 	add.w	r2, ip, r2, lsl #2
20008a38:	f8d2 20c4 	ldr.w	r2, [r2, #196]	; 0xc4
20008a3c:	f7ff ff7c 	bl	20008938 <__multadd>
20008a40:	4680      	mov	r8, r0
20008a42:	e7c5      	b.n	200089d0 <__pow5mult+0x10>
20008a44:	2010      	movs	r0, #16
20008a46:	f7fb fc5d 	bl	20004304 <malloc>
20008a4a:	2300      	movs	r3, #0
20008a4c:	4606      	mov	r6, r0
20008a4e:	6260      	str	r0, [r4, #36]	; 0x24
20008a50:	60c3      	str	r3, [r0, #12]
20008a52:	6043      	str	r3, [r0, #4]
20008a54:	6083      	str	r3, [r0, #8]
20008a56:	6003      	str	r3, [r0, #0]
20008a58:	4620      	mov	r0, r4
20008a5a:	f240 2171 	movw	r1, #625	; 0x271
20008a5e:	f7ff ff61 	bl	20008924 <__i2b>
20008a62:	2300      	movs	r3, #0
20008a64:	60b0      	str	r0, [r6, #8]
20008a66:	4607      	mov	r7, r0
20008a68:	6003      	str	r3, [r0, #0]
20008a6a:	e7b9      	b.n	200089e0 <__pow5mult+0x20>

20008a6c <__s2b>:
20008a6c:	e92d 45f8 	stmdb	sp!, {r3, r4, r5, r6, r7, r8, sl, lr}
20008a70:	461e      	mov	r6, r3
20008a72:	f648 6339 	movw	r3, #36409	; 0x8e39
20008a76:	f106 0c08 	add.w	ip, r6, #8
20008a7a:	f6c3 03e3 	movt	r3, #14563	; 0x38e3
20008a7e:	4688      	mov	r8, r1
20008a80:	4605      	mov	r5, r0
20008a82:	4617      	mov	r7, r2
20008a84:	fb83 130c 	smull	r1, r3, r3, ip
20008a88:	ea4f 7cec 	mov.w	ip, ip, asr #31
20008a8c:	ebcc 0c63 	rsb	ip, ip, r3, asr #1
20008a90:	f1bc 0f01 	cmp.w	ip, #1
20008a94:	dd35      	ble.n	20008b02 <__s2b+0x96>
20008a96:	2100      	movs	r1, #0
20008a98:	2201      	movs	r2, #1
20008a9a:	0052      	lsls	r2, r2, #1
20008a9c:	3101      	adds	r1, #1
20008a9e:	4594      	cmp	ip, r2
20008aa0:	dcfb      	bgt.n	20008a9a <__s2b+0x2e>
20008aa2:	4628      	mov	r0, r5
20008aa4:	f7ff fd2c 	bl	20008500 <_Balloc>
20008aa8:	9b08      	ldr	r3, [sp, #32]
20008aaa:	6143      	str	r3, [r0, #20]
20008aac:	2301      	movs	r3, #1
20008aae:	2f09      	cmp	r7, #9
20008ab0:	6103      	str	r3, [r0, #16]
20008ab2:	dd22      	ble.n	20008afa <__s2b+0x8e>
20008ab4:	f108 0a09 	add.w	sl, r8, #9
20008ab8:	2409      	movs	r4, #9
20008aba:	f818 3004 	ldrb.w	r3, [r8, r4]
20008abe:	4601      	mov	r1, r0
20008ac0:	220a      	movs	r2, #10
20008ac2:	3401      	adds	r4, #1
20008ac4:	3b30      	subs	r3, #48	; 0x30
20008ac6:	4628      	mov	r0, r5
20008ac8:	f7ff ff36 	bl	20008938 <__multadd>
20008acc:	42a7      	cmp	r7, r4
20008ace:	dcf4      	bgt.n	20008aba <__s2b+0x4e>
20008ad0:	eb0a 0807 	add.w	r8, sl, r7
20008ad4:	f1a8 0808 	sub.w	r8, r8, #8
20008ad8:	42be      	cmp	r6, r7
20008ada:	dd0c      	ble.n	20008af6 <__s2b+0x8a>
20008adc:	2400      	movs	r4, #0
20008ade:	f818 3004 	ldrb.w	r3, [r8, r4]
20008ae2:	4601      	mov	r1, r0
20008ae4:	3401      	adds	r4, #1
20008ae6:	220a      	movs	r2, #10
20008ae8:	3b30      	subs	r3, #48	; 0x30
20008aea:	4628      	mov	r0, r5
20008aec:	f7ff ff24 	bl	20008938 <__multadd>
20008af0:	19e3      	adds	r3, r4, r7
20008af2:	429e      	cmp	r6, r3
20008af4:	dcf3      	bgt.n	20008ade <__s2b+0x72>
20008af6:	e8bd 85f8 	ldmia.w	sp!, {r3, r4, r5, r6, r7, r8, sl, pc}
20008afa:	f108 080a 	add.w	r8, r8, #10
20008afe:	2709      	movs	r7, #9
20008b00:	e7ea      	b.n	20008ad8 <__s2b+0x6c>
20008b02:	2100      	movs	r1, #0
20008b04:	e7cd      	b.n	20008aa2 <__s2b+0x36>
20008b06:	bf00      	nop

20008b08 <_realloc_r>:
20008b08:	e92d 4ff0 	stmdb	sp!, {r4, r5, r6, r7, r8, r9, sl, fp, lr}
20008b0c:	4691      	mov	r9, r2
20008b0e:	b083      	sub	sp, #12
20008b10:	4607      	mov	r7, r0
20008b12:	460e      	mov	r6, r1
20008b14:	2900      	cmp	r1, #0
20008b16:	f000 813a 	beq.w	20008d8e <_realloc_r+0x286>
20008b1a:	f1a1 0808 	sub.w	r8, r1, #8
20008b1e:	f109 040b 	add.w	r4, r9, #11
20008b22:	f7fb ff33 	bl	2000498c <__malloc_lock>
20008b26:	2c16      	cmp	r4, #22
20008b28:	f8d8 1004 	ldr.w	r1, [r8, #4]
20008b2c:	460b      	mov	r3, r1
20008b2e:	f200 80a0 	bhi.w	20008c72 <_realloc_r+0x16a>
20008b32:	2210      	movs	r2, #16
20008b34:	2500      	movs	r5, #0
20008b36:	4614      	mov	r4, r2
20008b38:	454c      	cmp	r4, r9
20008b3a:	bf38      	it	cc
20008b3c:	f045 0501 	orrcc.w	r5, r5, #1
20008b40:	2d00      	cmp	r5, #0
20008b42:	f040 812a 	bne.w	20008d9a <_realloc_r+0x292>
20008b46:	f021 0a03 	bic.w	sl, r1, #3
20008b4a:	4592      	cmp	sl, r2
20008b4c:	bfa2      	ittt	ge
20008b4e:	4640      	movge	r0, r8
20008b50:	4655      	movge	r5, sl
20008b52:	f108 0808 	addge.w	r8, r8, #8
20008b56:	da75      	bge.n	20008c44 <_realloc_r+0x13c>
20008b58:	f64a 7320 	movw	r3, #44832	; 0xaf20
20008b5c:	eb08 000a 	add.w	r0, r8, sl
20008b60:	f2c2 0300 	movt	r3, #8192	; 0x2000
20008b64:	f8d3 e008 	ldr.w	lr, [r3, #8]
20008b68:	4586      	cmp	lr, r0
20008b6a:	f000 811a 	beq.w	20008da2 <_realloc_r+0x29a>
20008b6e:	f8d0 c004 	ldr.w	ip, [r0, #4]
20008b72:	f02c 0b01 	bic.w	fp, ip, #1
20008b76:	4483      	add	fp, r0
20008b78:	f8db b004 	ldr.w	fp, [fp, #4]
20008b7c:	f01b 0f01 	tst.w	fp, #1
20008b80:	d07c      	beq.n	20008c7c <_realloc_r+0x174>
20008b82:	46ac      	mov	ip, r5
20008b84:	4628      	mov	r0, r5
20008b86:	f011 0f01 	tst.w	r1, #1
20008b8a:	f040 809b 	bne.w	20008cc4 <_realloc_r+0x1bc>
20008b8e:	f856 1c08 	ldr.w	r1, [r6, #-8]
20008b92:	ebc1 0b08 	rsb	fp, r1, r8
20008b96:	f8db 5004 	ldr.w	r5, [fp, #4]
20008b9a:	f025 0503 	bic.w	r5, r5, #3
20008b9e:	2800      	cmp	r0, #0
20008ba0:	f000 80dd 	beq.w	20008d5e <_realloc_r+0x256>
20008ba4:	4570      	cmp	r0, lr
20008ba6:	f000 811f 	beq.w	20008de8 <_realloc_r+0x2e0>
20008baa:	eb05 030a 	add.w	r3, r5, sl
20008bae:	eb0c 0503 	add.w	r5, ip, r3
20008bb2:	4295      	cmp	r5, r2
20008bb4:	bfb8      	it	lt
20008bb6:	461d      	movlt	r5, r3
20008bb8:	f2c0 80d2 	blt.w	20008d60 <_realloc_r+0x258>
20008bbc:	6881      	ldr	r1, [r0, #8]
20008bbe:	465b      	mov	r3, fp
20008bc0:	68c0      	ldr	r0, [r0, #12]
20008bc2:	f1aa 0204 	sub.w	r2, sl, #4
20008bc6:	2a24      	cmp	r2, #36	; 0x24
20008bc8:	6081      	str	r1, [r0, #8]
20008bca:	60c8      	str	r0, [r1, #12]
20008bcc:	f853 1f08 	ldr.w	r1, [r3, #8]!
20008bd0:	f8db 000c 	ldr.w	r0, [fp, #12]
20008bd4:	6081      	str	r1, [r0, #8]
20008bd6:	60c8      	str	r0, [r1, #12]
20008bd8:	f200 80d0 	bhi.w	20008d7c <_realloc_r+0x274>
20008bdc:	2a13      	cmp	r2, #19
20008bde:	469c      	mov	ip, r3
20008be0:	d921      	bls.n	20008c26 <_realloc_r+0x11e>
20008be2:	4631      	mov	r1, r6
20008be4:	f10b 0c10 	add.w	ip, fp, #16
20008be8:	f851 0b04 	ldr.w	r0, [r1], #4
20008bec:	f8cb 0008 	str.w	r0, [fp, #8]
20008bf0:	6870      	ldr	r0, [r6, #4]
20008bf2:	1d0e      	adds	r6, r1, #4
20008bf4:	2a1b      	cmp	r2, #27
20008bf6:	f8cb 000c 	str.w	r0, [fp, #12]
20008bfa:	d914      	bls.n	20008c26 <_realloc_r+0x11e>
20008bfc:	6848      	ldr	r0, [r1, #4]
20008bfe:	1d31      	adds	r1, r6, #4
20008c00:	f10b 0c18 	add.w	ip, fp, #24
20008c04:	f8cb 0010 	str.w	r0, [fp, #16]
20008c08:	6870      	ldr	r0, [r6, #4]
20008c0a:	1d0e      	adds	r6, r1, #4
20008c0c:	2a24      	cmp	r2, #36	; 0x24
20008c0e:	f8cb 0014 	str.w	r0, [fp, #20]
20008c12:	d108      	bne.n	20008c26 <_realloc_r+0x11e>
20008c14:	684a      	ldr	r2, [r1, #4]
20008c16:	f10b 0c20 	add.w	ip, fp, #32
20008c1a:	f8cb 2018 	str.w	r2, [fp, #24]
20008c1e:	6872      	ldr	r2, [r6, #4]
20008c20:	3608      	adds	r6, #8
20008c22:	f8cb 201c 	str.w	r2, [fp, #28]
20008c26:	4631      	mov	r1, r6
20008c28:	4698      	mov	r8, r3
20008c2a:	4662      	mov	r2, ip
20008c2c:	4658      	mov	r0, fp
20008c2e:	f851 3b04 	ldr.w	r3, [r1], #4
20008c32:	f842 3b04 	str.w	r3, [r2], #4
20008c36:	6873      	ldr	r3, [r6, #4]
20008c38:	f8cc 3004 	str.w	r3, [ip, #4]
20008c3c:	684b      	ldr	r3, [r1, #4]
20008c3e:	6053      	str	r3, [r2, #4]
20008c40:	f8db 3004 	ldr.w	r3, [fp, #4]
20008c44:	ebc4 0c05 	rsb	ip, r4, r5
20008c48:	f1bc 0f0f 	cmp.w	ip, #15
20008c4c:	d826      	bhi.n	20008c9c <_realloc_r+0x194>
20008c4e:	1942      	adds	r2, r0, r5
20008c50:	f003 0301 	and.w	r3, r3, #1
20008c54:	ea43 0505 	orr.w	r5, r3, r5
20008c58:	6045      	str	r5, [r0, #4]
20008c5a:	6853      	ldr	r3, [r2, #4]
20008c5c:	f043 0301 	orr.w	r3, r3, #1
20008c60:	6053      	str	r3, [r2, #4]
20008c62:	4638      	mov	r0, r7
20008c64:	4645      	mov	r5, r8
20008c66:	f7fb fe93 	bl	20004990 <__malloc_unlock>
20008c6a:	4628      	mov	r0, r5
20008c6c:	b003      	add	sp, #12
20008c6e:	e8bd 8ff0 	ldmia.w	sp!, {r4, r5, r6, r7, r8, r9, sl, fp, pc}
20008c72:	f024 0407 	bic.w	r4, r4, #7
20008c76:	4622      	mov	r2, r4
20008c78:	0fe5      	lsrs	r5, r4, #31
20008c7a:	e75d      	b.n	20008b38 <_realloc_r+0x30>
20008c7c:	f02c 0c03 	bic.w	ip, ip, #3
20008c80:	eb0c 050a 	add.w	r5, ip, sl
20008c84:	4295      	cmp	r5, r2
20008c86:	f6ff af7e 	blt.w	20008b86 <_realloc_r+0x7e>
20008c8a:	6882      	ldr	r2, [r0, #8]
20008c8c:	460b      	mov	r3, r1
20008c8e:	68c1      	ldr	r1, [r0, #12]
20008c90:	4640      	mov	r0, r8
20008c92:	f108 0808 	add.w	r8, r8, #8
20008c96:	608a      	str	r2, [r1, #8]
20008c98:	60d1      	str	r1, [r2, #12]
20008c9a:	e7d3      	b.n	20008c44 <_realloc_r+0x13c>
20008c9c:	1901      	adds	r1, r0, r4
20008c9e:	f003 0301 	and.w	r3, r3, #1
20008ca2:	eb01 020c 	add.w	r2, r1, ip
20008ca6:	ea43 0404 	orr.w	r4, r3, r4
20008caa:	f04c 0301 	orr.w	r3, ip, #1
20008cae:	6044      	str	r4, [r0, #4]
20008cb0:	604b      	str	r3, [r1, #4]
20008cb2:	4638      	mov	r0, r7
20008cb4:	6853      	ldr	r3, [r2, #4]
20008cb6:	3108      	adds	r1, #8
20008cb8:	f043 0301 	orr.w	r3, r3, #1
20008cbc:	6053      	str	r3, [r2, #4]
20008cbe:	f7fe fda7 	bl	20007810 <_free_r>
20008cc2:	e7ce      	b.n	20008c62 <_realloc_r+0x15a>
20008cc4:	4649      	mov	r1, r9
20008cc6:	4638      	mov	r0, r7
20008cc8:	f7fb fb24 	bl	20004314 <_malloc_r>
20008ccc:	4605      	mov	r5, r0
20008cce:	2800      	cmp	r0, #0
20008cd0:	d041      	beq.n	20008d56 <_realloc_r+0x24e>
20008cd2:	f8d8 3004 	ldr.w	r3, [r8, #4]
20008cd6:	f1a0 0208 	sub.w	r2, r0, #8
20008cda:	f023 0101 	bic.w	r1, r3, #1
20008cde:	4441      	add	r1, r8
20008ce0:	428a      	cmp	r2, r1
20008ce2:	f000 80d7 	beq.w	20008e94 <_realloc_r+0x38c>
20008ce6:	f1aa 0204 	sub.w	r2, sl, #4
20008cea:	4631      	mov	r1, r6
20008cec:	2a24      	cmp	r2, #36	; 0x24
20008cee:	d878      	bhi.n	20008de2 <_realloc_r+0x2da>
20008cf0:	2a13      	cmp	r2, #19
20008cf2:	4603      	mov	r3, r0
20008cf4:	d921      	bls.n	20008d3a <_realloc_r+0x232>
20008cf6:	4634      	mov	r4, r6
20008cf8:	f854 3b04 	ldr.w	r3, [r4], #4
20008cfc:	1d21      	adds	r1, r4, #4
20008cfe:	f840 3b04 	str.w	r3, [r0], #4
20008d02:	1d03      	adds	r3, r0, #4
20008d04:	f8d6 c004 	ldr.w	ip, [r6, #4]
20008d08:	2a1b      	cmp	r2, #27
20008d0a:	f8c5 c004 	str.w	ip, [r5, #4]
20008d0e:	d914      	bls.n	20008d3a <_realloc_r+0x232>
20008d10:	f8d4 e004 	ldr.w	lr, [r4, #4]
20008d14:	1d1c      	adds	r4, r3, #4
20008d16:	f101 0c04 	add.w	ip, r1, #4
20008d1a:	f8c0 e004 	str.w	lr, [r0, #4]
20008d1e:	6848      	ldr	r0, [r1, #4]
20008d20:	f10c 0104 	add.w	r1, ip, #4
20008d24:	6058      	str	r0, [r3, #4]
20008d26:	1d23      	adds	r3, r4, #4
20008d28:	2a24      	cmp	r2, #36	; 0x24
20008d2a:	d106      	bne.n	20008d3a <_realloc_r+0x232>
20008d2c:	f8dc 2004 	ldr.w	r2, [ip, #4]
20008d30:	6062      	str	r2, [r4, #4]
20008d32:	684a      	ldr	r2, [r1, #4]
20008d34:	3108      	adds	r1, #8
20008d36:	605a      	str	r2, [r3, #4]
20008d38:	3308      	adds	r3, #8
20008d3a:	4608      	mov	r0, r1
20008d3c:	461a      	mov	r2, r3
20008d3e:	f850 4b04 	ldr.w	r4, [r0], #4
20008d42:	f842 4b04 	str.w	r4, [r2], #4
20008d46:	6849      	ldr	r1, [r1, #4]
20008d48:	6059      	str	r1, [r3, #4]
20008d4a:	6843      	ldr	r3, [r0, #4]
20008d4c:	6053      	str	r3, [r2, #4]
20008d4e:	4631      	mov	r1, r6
20008d50:	4638      	mov	r0, r7
20008d52:	f7fe fd5d 	bl	20007810 <_free_r>
20008d56:	4638      	mov	r0, r7
20008d58:	f7fb fe1a 	bl	20004990 <__malloc_unlock>
20008d5c:	e785      	b.n	20008c6a <_realloc_r+0x162>
20008d5e:	4455      	add	r5, sl
20008d60:	4295      	cmp	r5, r2
20008d62:	dbaf      	blt.n	20008cc4 <_realloc_r+0x1bc>
20008d64:	465b      	mov	r3, fp
20008d66:	f8db 000c 	ldr.w	r0, [fp, #12]
20008d6a:	f1aa 0204 	sub.w	r2, sl, #4
20008d6e:	f853 1f08 	ldr.w	r1, [r3, #8]!
20008d72:	2a24      	cmp	r2, #36	; 0x24
20008d74:	6081      	str	r1, [r0, #8]
20008d76:	60c8      	str	r0, [r1, #12]
20008d78:	f67f af30 	bls.w	20008bdc <_realloc_r+0xd4>
20008d7c:	4618      	mov	r0, r3
20008d7e:	4631      	mov	r1, r6
20008d80:	4698      	mov	r8, r3
20008d82:	f7ff f9b9 	bl	200080f8 <memmove>
20008d86:	4658      	mov	r0, fp
20008d88:	f8db 3004 	ldr.w	r3, [fp, #4]
20008d8c:	e75a      	b.n	20008c44 <_realloc_r+0x13c>
20008d8e:	4611      	mov	r1, r2
20008d90:	b003      	add	sp, #12
20008d92:	e8bd 4ff0 	ldmia.w	sp!, {r4, r5, r6, r7, r8, r9, sl, fp, lr}
20008d96:	f7fb babd 	b.w	20004314 <_malloc_r>
20008d9a:	230c      	movs	r3, #12
20008d9c:	2500      	movs	r5, #0
20008d9e:	603b      	str	r3, [r7, #0]
20008da0:	e763      	b.n	20008c6a <_realloc_r+0x162>
20008da2:	f8de 5004 	ldr.w	r5, [lr, #4]
20008da6:	f104 0b10 	add.w	fp, r4, #16
20008daa:	f025 0c03 	bic.w	ip, r5, #3
20008dae:	eb0c 000a 	add.w	r0, ip, sl
20008db2:	4558      	cmp	r0, fp
20008db4:	bfb8      	it	lt
20008db6:	4670      	movlt	r0, lr
20008db8:	f6ff aee5 	blt.w	20008b86 <_realloc_r+0x7e>
20008dbc:	eb08 0204 	add.w	r2, r8, r4
20008dc0:	1b01      	subs	r1, r0, r4
20008dc2:	f041 0101 	orr.w	r1, r1, #1
20008dc6:	609a      	str	r2, [r3, #8]
20008dc8:	6051      	str	r1, [r2, #4]
20008dca:	4638      	mov	r0, r7
20008dcc:	f8d8 1004 	ldr.w	r1, [r8, #4]
20008dd0:	4635      	mov	r5, r6
20008dd2:	f001 0301 	and.w	r3, r1, #1
20008dd6:	431c      	orrs	r4, r3
20008dd8:	f8c8 4004 	str.w	r4, [r8, #4]
20008ddc:	f7fb fdd8 	bl	20004990 <__malloc_unlock>
20008de0:	e743      	b.n	20008c6a <_realloc_r+0x162>
20008de2:	f7ff f989 	bl	200080f8 <memmove>
20008de6:	e7b2      	b.n	20008d4e <_realloc_r+0x246>
20008de8:	4455      	add	r5, sl
20008dea:	f104 0110 	add.w	r1, r4, #16
20008dee:	44ac      	add	ip, r5
20008df0:	458c      	cmp	ip, r1
20008df2:	dbb5      	blt.n	20008d60 <_realloc_r+0x258>
20008df4:	465d      	mov	r5, fp
20008df6:	f8db 000c 	ldr.w	r0, [fp, #12]
20008dfa:	f1aa 0204 	sub.w	r2, sl, #4
20008dfe:	f855 1f08 	ldr.w	r1, [r5, #8]!
20008e02:	2a24      	cmp	r2, #36	; 0x24
20008e04:	6081      	str	r1, [r0, #8]
20008e06:	60c8      	str	r0, [r1, #12]
20008e08:	d84c      	bhi.n	20008ea4 <_realloc_r+0x39c>
20008e0a:	2a13      	cmp	r2, #19
20008e0c:	4628      	mov	r0, r5
20008e0e:	d924      	bls.n	20008e5a <_realloc_r+0x352>
20008e10:	4631      	mov	r1, r6
20008e12:	f10b 0010 	add.w	r0, fp, #16
20008e16:	f851 eb04 	ldr.w	lr, [r1], #4
20008e1a:	f8cb e008 	str.w	lr, [fp, #8]
20008e1e:	f8d6 e004 	ldr.w	lr, [r6, #4]
20008e22:	1d0e      	adds	r6, r1, #4
20008e24:	2a1b      	cmp	r2, #27
20008e26:	f8cb e00c 	str.w	lr, [fp, #12]
20008e2a:	d916      	bls.n	20008e5a <_realloc_r+0x352>
20008e2c:	f8d1 e004 	ldr.w	lr, [r1, #4]
20008e30:	1d31      	adds	r1, r6, #4
20008e32:	f10b 0018 	add.w	r0, fp, #24
20008e36:	f8cb e010 	str.w	lr, [fp, #16]
20008e3a:	f8d6 e004 	ldr.w	lr, [r6, #4]
20008e3e:	1d0e      	adds	r6, r1, #4
20008e40:	2a24      	cmp	r2, #36	; 0x24
20008e42:	f8cb e014 	str.w	lr, [fp, #20]
20008e46:	d108      	bne.n	20008e5a <_realloc_r+0x352>
20008e48:	684a      	ldr	r2, [r1, #4]
20008e4a:	f10b 0020 	add.w	r0, fp, #32
20008e4e:	f8cb 2018 	str.w	r2, [fp, #24]
20008e52:	6872      	ldr	r2, [r6, #4]
20008e54:	3608      	adds	r6, #8
20008e56:	f8cb 201c 	str.w	r2, [fp, #28]
20008e5a:	4631      	mov	r1, r6
20008e5c:	4602      	mov	r2, r0
20008e5e:	f851 eb04 	ldr.w	lr, [r1], #4
20008e62:	f842 eb04 	str.w	lr, [r2], #4
20008e66:	6876      	ldr	r6, [r6, #4]
20008e68:	6046      	str	r6, [r0, #4]
20008e6a:	6849      	ldr	r1, [r1, #4]
20008e6c:	6051      	str	r1, [r2, #4]
20008e6e:	eb0b 0204 	add.w	r2, fp, r4
20008e72:	ebc4 010c 	rsb	r1, r4, ip
20008e76:	f041 0101 	orr.w	r1, r1, #1
20008e7a:	609a      	str	r2, [r3, #8]
20008e7c:	6051      	str	r1, [r2, #4]
20008e7e:	4638      	mov	r0, r7
20008e80:	f8db 1004 	ldr.w	r1, [fp, #4]
20008e84:	f001 0301 	and.w	r3, r1, #1
20008e88:	431c      	orrs	r4, r3
20008e8a:	f8cb 4004 	str.w	r4, [fp, #4]
20008e8e:	f7fb fd7f 	bl	20004990 <__malloc_unlock>
20008e92:	e6ea      	b.n	20008c6a <_realloc_r+0x162>
20008e94:	6855      	ldr	r5, [r2, #4]
20008e96:	4640      	mov	r0, r8
20008e98:	f108 0808 	add.w	r8, r8, #8
20008e9c:	f025 0503 	bic.w	r5, r5, #3
20008ea0:	4455      	add	r5, sl
20008ea2:	e6cf      	b.n	20008c44 <_realloc_r+0x13c>
20008ea4:	4631      	mov	r1, r6
20008ea6:	4628      	mov	r0, r5
20008ea8:	9300      	str	r3, [sp, #0]
20008eaa:	f8cd c004 	str.w	ip, [sp, #4]
20008eae:	f7ff f923 	bl	200080f8 <memmove>
20008eb2:	f8dd c004 	ldr.w	ip, [sp, #4]
20008eb6:	9b00      	ldr	r3, [sp, #0]
20008eb8:	e7d9      	b.n	20008e6e <_realloc_r+0x366>
20008eba:	bf00      	nop

20008ebc <__isinfd>:
20008ebc:	4602      	mov	r2, r0
20008ebe:	4240      	negs	r0, r0
20008ec0:	ea40 0302 	orr.w	r3, r0, r2
20008ec4:	f021 4100 	bic.w	r1, r1, #2147483648	; 0x80000000
20008ec8:	ea41 73d3 	orr.w	r3, r1, r3, lsr #31
20008ecc:	f1c3 43fe 	rsb	r3, r3, #2130706432	; 0x7f000000
20008ed0:	f503 0370 	add.w	r3, r3, #15728640	; 0xf00000
20008ed4:	4258      	negs	r0, r3
20008ed6:	ea40 0303 	orr.w	r3, r0, r3
20008eda:	17d8      	asrs	r0, r3, #31
20008edc:	3001      	adds	r0, #1
20008ede:	4770      	bx	lr

20008ee0 <__isnand>:
20008ee0:	4602      	mov	r2, r0
20008ee2:	4240      	negs	r0, r0
20008ee4:	4310      	orrs	r0, r2
20008ee6:	f021 4100 	bic.w	r1, r1, #2147483648	; 0x80000000
20008eea:	ea41 70d0 	orr.w	r0, r1, r0, lsr #31
20008eee:	f1c0 40fe 	rsb	r0, r0, #2130706432	; 0x7f000000
20008ef2:	f500 0070 	add.w	r0, r0, #15728640	; 0xf00000
20008ef6:	0fc0      	lsrs	r0, r0, #31
20008ef8:	4770      	bx	lr
20008efa:	bf00      	nop

20008efc <__sclose>:
20008efc:	f9b1 100e 	ldrsh.w	r1, [r1, #14]
20008f00:	f000 b990 	b.w	20009224 <_close_r>

20008f04 <__sseek>:
20008f04:	b510      	push	{r4, lr}
20008f06:	460c      	mov	r4, r1
20008f08:	f9b1 100e 	ldrsh.w	r1, [r1, #14]
20008f0c:	f000 fa2e 	bl	2000936c <_lseek_r>
20008f10:	89a3      	ldrh	r3, [r4, #12]
20008f12:	f1b0 3fff 	cmp.w	r0, #4294967295
20008f16:	bf15      	itete	ne
20008f18:	6560      	strne	r0, [r4, #84]	; 0x54
20008f1a:	f423 5380 	biceq.w	r3, r3, #4096	; 0x1000
20008f1e:	f443 5380 	orrne.w	r3, r3, #4096	; 0x1000
20008f22:	81a3      	strheq	r3, [r4, #12]
20008f24:	bf18      	it	ne
20008f26:	81a3      	strhne	r3, [r4, #12]
20008f28:	bd10      	pop	{r4, pc}
20008f2a:	bf00      	nop

20008f2c <__swrite>:
20008f2c:	e92d 41f0 	stmdb	sp!, {r4, r5, r6, r7, r8, lr}
20008f30:	461d      	mov	r5, r3
20008f32:	898b      	ldrh	r3, [r1, #12]
20008f34:	460c      	mov	r4, r1
20008f36:	4616      	mov	r6, r2
20008f38:	4607      	mov	r7, r0
20008f3a:	f413 7f80 	tst.w	r3, #256	; 0x100
20008f3e:	d006      	beq.n	20008f4e <__swrite+0x22>
20008f40:	2302      	movs	r3, #2
20008f42:	f9b1 100e 	ldrsh.w	r1, [r1, #14]
20008f46:	2200      	movs	r2, #0
20008f48:	f000 fa10 	bl	2000936c <_lseek_r>
20008f4c:	89a3      	ldrh	r3, [r4, #12]
20008f4e:	f423 5380 	bic.w	r3, r3, #4096	; 0x1000
20008f52:	4638      	mov	r0, r7
20008f54:	81a3      	strh	r3, [r4, #12]
20008f56:	4632      	mov	r2, r6
20008f58:	f9b4 100e 	ldrsh.w	r1, [r4, #14]
20008f5c:	462b      	mov	r3, r5
20008f5e:	e8bd 41f0 	ldmia.w	sp!, {r4, r5, r6, r7, r8, lr}
20008f62:	f7f9 b811 	b.w	20001f88 <_write_r>
20008f66:	bf00      	nop

20008f68 <__sread>:
20008f68:	b510      	push	{r4, lr}
20008f6a:	460c      	mov	r4, r1
20008f6c:	f9b1 100e 	ldrsh.w	r1, [r1, #14]
20008f70:	f000 fa12 	bl	20009398 <_read_r>
20008f74:	2800      	cmp	r0, #0
20008f76:	db03      	blt.n	20008f80 <__sread+0x18>
20008f78:	6d63      	ldr	r3, [r4, #84]	; 0x54
20008f7a:	181b      	adds	r3, r3, r0
20008f7c:	6563      	str	r3, [r4, #84]	; 0x54
20008f7e:	bd10      	pop	{r4, pc}
20008f80:	89a3      	ldrh	r3, [r4, #12]
20008f82:	f423 5380 	bic.w	r3, r3, #4096	; 0x1000
20008f86:	81a3      	strh	r3, [r4, #12]
20008f88:	bd10      	pop	{r4, pc}
20008f8a:	bf00      	nop

20008f8c <strcmp>:
20008f8c:	ea80 0201 	eor.w	r2, r0, r1
20008f90:	f012 0f03 	tst.w	r2, #3
20008f94:	d13a      	bne.n	2000900c <strcmp_unaligned>
20008f96:	f010 0203 	ands.w	r2, r0, #3
20008f9a:	f020 0003 	bic.w	r0, r0, #3
20008f9e:	f021 0103 	bic.w	r1, r1, #3
20008fa2:	f850 cb04 	ldr.w	ip, [r0], #4
20008fa6:	bf08      	it	eq
20008fa8:	f851 3b04 	ldreq.w	r3, [r1], #4
20008fac:	d00d      	beq.n	20008fca <strcmp+0x3e>
20008fae:	f082 0203 	eor.w	r2, r2, #3
20008fb2:	ea4f 02c2 	mov.w	r2, r2, lsl #3
20008fb6:	f06f 437f 	mvn.w	r3, #4278190080	; 0xff000000
20008fba:	fa23 f202 	lsr.w	r2, r3, r2
20008fbe:	f851 3b04 	ldr.w	r3, [r1], #4
20008fc2:	ea4c 0c02 	orr.w	ip, ip, r2
20008fc6:	ea43 0302 	orr.w	r3, r3, r2
20008fca:	bf00      	nop
20008fcc:	f1ac 3201 	sub.w	r2, ip, #16843009	; 0x1010101
20008fd0:	459c      	cmp	ip, r3
20008fd2:	bf01      	itttt	eq
20008fd4:	ea22 020c 	biceq.w	r2, r2, ip
20008fd8:	f012 3f80 	tsteq.w	r2, #2155905152	; 0x80808080
20008fdc:	f850 cb04 	ldreq.w	ip, [r0], #4
20008fe0:	f851 3b04 	ldreq.w	r3, [r1], #4
20008fe4:	d0f2      	beq.n	20008fcc <strcmp+0x40>
20008fe6:	ea4f 600c 	mov.w	r0, ip, lsl #24
20008fea:	ea4f 2c1c 	mov.w	ip, ip, lsr #8
20008fee:	2801      	cmp	r0, #1
20008ff0:	bf28      	it	cs
20008ff2:	ebb0 6f03 	cmpcs.w	r0, r3, lsl #24
20008ff6:	bf08      	it	eq
20008ff8:	0a1b      	lsreq	r3, r3, #8
20008ffa:	d0f4      	beq.n	20008fe6 <strcmp+0x5a>
20008ffc:	f003 03ff 	and.w	r3, r3, #255	; 0xff
20009000:	ea4f 6010 	mov.w	r0, r0, lsr #24
20009004:	eba0 0003 	sub.w	r0, r0, r3
20009008:	4770      	bx	lr
2000900a:	bf00      	nop

2000900c <strcmp_unaligned>:
2000900c:	f010 0f03 	tst.w	r0, #3
20009010:	d00a      	beq.n	20009028 <strcmp_unaligned+0x1c>
20009012:	f810 2b01 	ldrb.w	r2, [r0], #1
20009016:	f811 3b01 	ldrb.w	r3, [r1], #1
2000901a:	2a01      	cmp	r2, #1
2000901c:	bf28      	it	cs
2000901e:	429a      	cmpcs	r2, r3
20009020:	d0f4      	beq.n	2000900c <strcmp_unaligned>
20009022:	eba2 0003 	sub.w	r0, r2, r3
20009026:	4770      	bx	lr
20009028:	f84d 5d04 	str.w	r5, [sp, #-4]!
2000902c:	f84d 4d04 	str.w	r4, [sp, #-4]!
20009030:	f04f 0201 	mov.w	r2, #1
20009034:	ea42 2202 	orr.w	r2, r2, r2, lsl #8
20009038:	ea42 4202 	orr.w	r2, r2, r2, lsl #16
2000903c:	f001 0c03 	and.w	ip, r1, #3
20009040:	f021 0103 	bic.w	r1, r1, #3
20009044:	f850 4b04 	ldr.w	r4, [r0], #4
20009048:	f851 5b04 	ldr.w	r5, [r1], #4
2000904c:	f1bc 0f02 	cmp.w	ip, #2
20009050:	d026      	beq.n	200090a0 <strcmp_unaligned+0x94>
20009052:	d84b      	bhi.n	200090ec <strcmp_unaligned+0xe0>
20009054:	f024 4c7f 	bic.w	ip, r4, #4278190080	; 0xff000000
20009058:	ebbc 2f15 	cmp.w	ip, r5, lsr #8
2000905c:	eba4 0302 	sub.w	r3, r4, r2
20009060:	ea23 0304 	bic.w	r3, r3, r4
20009064:	d10d      	bne.n	20009082 <strcmp_unaligned+0x76>
20009066:	ea13 13c2 	ands.w	r3, r3, r2, lsl #7
2000906a:	bf08      	it	eq
2000906c:	f851 5b04 	ldreq.w	r5, [r1], #4
20009070:	d10a      	bne.n	20009088 <strcmp_unaligned+0x7c>
20009072:	ea8c 0c04 	eor.w	ip, ip, r4
20009076:	ebbc 6f05 	cmp.w	ip, r5, lsl #24
2000907a:	d10c      	bne.n	20009096 <strcmp_unaligned+0x8a>
2000907c:	f850 4b04 	ldr.w	r4, [r0], #4
20009080:	e7e8      	b.n	20009054 <strcmp_unaligned+0x48>
20009082:	ea4f 2515 	mov.w	r5, r5, lsr #8
20009086:	e05c      	b.n	20009142 <strcmp_unaligned+0x136>
20009088:	f033 437f 	bics.w	r3, r3, #4278190080	; 0xff000000
2000908c:	d152      	bne.n	20009134 <strcmp_unaligned+0x128>
2000908e:	780d      	ldrb	r5, [r1, #0]
20009090:	ea4f 6c14 	mov.w	ip, r4, lsr #24
20009094:	e055      	b.n	20009142 <strcmp_unaligned+0x136>
20009096:	ea4f 6c14 	mov.w	ip, r4, lsr #24
2000909a:	f005 05ff 	and.w	r5, r5, #255	; 0xff
2000909e:	e050      	b.n	20009142 <strcmp_unaligned+0x136>
200090a0:	ea4f 4c04 	mov.w	ip, r4, lsl #16
200090a4:	eba4 0302 	sub.w	r3, r4, r2
200090a8:	ea4f 4c1c 	mov.w	ip, ip, lsr #16
200090ac:	ea23 0304 	bic.w	r3, r3, r4
200090b0:	ebbc 4f15 	cmp.w	ip, r5, lsr #16
200090b4:	d117      	bne.n	200090e6 <strcmp_unaligned+0xda>
200090b6:	ea13 13c2 	ands.w	r3, r3, r2, lsl #7
200090ba:	bf08      	it	eq
200090bc:	f851 5b04 	ldreq.w	r5, [r1], #4
200090c0:	d107      	bne.n	200090d2 <strcmp_unaligned+0xc6>
200090c2:	ea8c 0c04 	eor.w	ip, ip, r4
200090c6:	ebbc 4f05 	cmp.w	ip, r5, lsl #16
200090ca:	d108      	bne.n	200090de <strcmp_unaligned+0xd2>
200090cc:	f850 4b04 	ldr.w	r4, [r0], #4
200090d0:	e7e6      	b.n	200090a0 <strcmp_unaligned+0x94>
200090d2:	041b      	lsls	r3, r3, #16
200090d4:	d12e      	bne.n	20009134 <strcmp_unaligned+0x128>
200090d6:	880d      	ldrh	r5, [r1, #0]
200090d8:	ea4f 4c14 	mov.w	ip, r4, lsr #16
200090dc:	e031      	b.n	20009142 <strcmp_unaligned+0x136>
200090de:	ea4f 4505 	mov.w	r5, r5, lsl #16
200090e2:	ea4f 4c14 	mov.w	ip, r4, lsr #16
200090e6:	ea4f 4515 	mov.w	r5, r5, lsr #16
200090ea:	e02a      	b.n	20009142 <strcmp_unaligned+0x136>
200090ec:	f004 0cff 	and.w	ip, r4, #255	; 0xff
200090f0:	ebbc 6f15 	cmp.w	ip, r5, lsr #24
200090f4:	eba4 0302 	sub.w	r3, r4, r2
200090f8:	ea23 0304 	bic.w	r3, r3, r4
200090fc:	d10d      	bne.n	2000911a <strcmp_unaligned+0x10e>
200090fe:	ea13 13c2 	ands.w	r3, r3, r2, lsl #7
20009102:	bf08      	it	eq
20009104:	f851 5b04 	ldreq.w	r5, [r1], #4
20009108:	d10a      	bne.n	20009120 <strcmp_unaligned+0x114>
2000910a:	ea8c 0c04 	eor.w	ip, ip, r4
2000910e:	ebbc 2f05 	cmp.w	ip, r5, lsl #8
20009112:	d10a      	bne.n	2000912a <strcmp_unaligned+0x11e>
20009114:	f850 4b04 	ldr.w	r4, [r0], #4
20009118:	e7e8      	b.n	200090ec <strcmp_unaligned+0xe0>
2000911a:	ea4f 6515 	mov.w	r5, r5, lsr #24
2000911e:	e010      	b.n	20009142 <strcmp_unaligned+0x136>
20009120:	f014 0fff 	tst.w	r4, #255	; 0xff
20009124:	d006      	beq.n	20009134 <strcmp_unaligned+0x128>
20009126:	f851 5b04 	ldr.w	r5, [r1], #4
2000912a:	ea4f 2c14 	mov.w	ip, r4, lsr #8
2000912e:	f025 457f 	bic.w	r5, r5, #4278190080	; 0xff000000
20009132:	e006      	b.n	20009142 <strcmp_unaligned+0x136>
20009134:	f04f 0000 	mov.w	r0, #0
20009138:	f85d 4b04 	ldr.w	r4, [sp], #4
2000913c:	f85d 5b04 	ldr.w	r5, [sp], #4
20009140:	4770      	bx	lr
20009142:	f00c 02ff 	and.w	r2, ip, #255	; 0xff
20009146:	f005 00ff 	and.w	r0, r5, #255	; 0xff
2000914a:	2801      	cmp	r0, #1
2000914c:	bf28      	it	cs
2000914e:	4290      	cmpcs	r0, r2
20009150:	bf04      	itt	eq
20009152:	ea4f 2c1c 	moveq.w	ip, ip, lsr #8
20009156:	0a2d      	lsreq	r5, r5, #8
20009158:	d0f3      	beq.n	20009142 <strcmp_unaligned+0x136>
2000915a:	eba2 0000 	sub.w	r0, r2, r0
2000915e:	f85d 4b04 	ldr.w	r4, [sp], #4
20009162:	f85d 5b04 	ldr.w	r5, [sp], #4
20009166:	4770      	bx	lr

20009168 <strlen>:
20009168:	f020 0103 	bic.w	r1, r0, #3
2000916c:	f010 0003 	ands.w	r0, r0, #3
20009170:	f1c0 0000 	rsb	r0, r0, #0
20009174:	f851 3b04 	ldr.w	r3, [r1], #4
20009178:	f100 0c04 	add.w	ip, r0, #4
2000917c:	ea4f 0ccc 	mov.w	ip, ip, lsl #3
20009180:	f06f 0200 	mvn.w	r2, #0
20009184:	bf1c      	itt	ne
20009186:	fa22 f20c 	lsrne.w	r2, r2, ip
2000918a:	4313      	orrne	r3, r2
2000918c:	f04f 0c01 	mov.w	ip, #1
20009190:	ea4c 2c0c 	orr.w	ip, ip, ip, lsl #8
20009194:	ea4c 4c0c 	orr.w	ip, ip, ip, lsl #16
20009198:	eba3 020c 	sub.w	r2, r3, ip
2000919c:	ea22 0203 	bic.w	r2, r2, r3
200091a0:	ea12 12cc 	ands.w	r2, r2, ip, lsl #7
200091a4:	bf04      	itt	eq
200091a6:	f851 3b04 	ldreq.w	r3, [r1], #4
200091aa:	3004      	addeq	r0, #4
200091ac:	d0f4      	beq.n	20009198 <strlen+0x30>
200091ae:	f013 0fff 	tst.w	r3, #255	; 0xff
200091b2:	bf1f      	itttt	ne
200091b4:	3001      	addne	r0, #1
200091b6:	f413 4f7f 	tstne.w	r3, #65280	; 0xff00
200091ba:	3001      	addne	r0, #1
200091bc:	f413 0f7f 	tstne.w	r3, #16711680	; 0xff0000
200091c0:	bf18      	it	ne
200091c2:	3001      	addne	r0, #1
200091c4:	4770      	bx	lr
200091c6:	bf00      	nop

200091c8 <_calloc_r>:
200091c8:	b538      	push	{r3, r4, r5, lr}
200091ca:	fb01 f102 	mul.w	r1, r1, r2
200091ce:	f7fb f8a1 	bl	20004314 <_malloc_r>
200091d2:	4604      	mov	r4, r0
200091d4:	b1f8      	cbz	r0, 20009216 <_calloc_r+0x4e>
200091d6:	f850 2c04 	ldr.w	r2, [r0, #-4]
200091da:	f022 0203 	bic.w	r2, r2, #3
200091de:	3a04      	subs	r2, #4
200091e0:	2a24      	cmp	r2, #36	; 0x24
200091e2:	d81a      	bhi.n	2000921a <_calloc_r+0x52>
200091e4:	2a13      	cmp	r2, #19
200091e6:	4603      	mov	r3, r0
200091e8:	d90f      	bls.n	2000920a <_calloc_r+0x42>
200091ea:	2100      	movs	r1, #0
200091ec:	f840 1b04 	str.w	r1, [r0], #4
200091f0:	1d03      	adds	r3, r0, #4
200091f2:	2a1b      	cmp	r2, #27
200091f4:	6061      	str	r1, [r4, #4]
200091f6:	d908      	bls.n	2000920a <_calloc_r+0x42>
200091f8:	1d1d      	adds	r5, r3, #4
200091fa:	6041      	str	r1, [r0, #4]
200091fc:	6059      	str	r1, [r3, #4]
200091fe:	1d2b      	adds	r3, r5, #4
20009200:	2a24      	cmp	r2, #36	; 0x24
20009202:	bf02      	ittt	eq
20009204:	6069      	streq	r1, [r5, #4]
20009206:	6059      	streq	r1, [r3, #4]
20009208:	3308      	addeq	r3, #8
2000920a:	461a      	mov	r2, r3
2000920c:	2100      	movs	r1, #0
2000920e:	f842 1b04 	str.w	r1, [r2], #4
20009212:	6059      	str	r1, [r3, #4]
20009214:	6051      	str	r1, [r2, #4]
20009216:	4620      	mov	r0, r4
20009218:	bd38      	pop	{r3, r4, r5, pc}
2000921a:	2100      	movs	r1, #0
2000921c:	f7fb fb4c 	bl	200048b8 <memset>
20009220:	4620      	mov	r0, r4
20009222:	bd38      	pop	{r3, r4, r5, pc}

20009224 <_close_r>:
20009224:	b538      	push	{r3, r4, r5, lr}
20009226:	f24b 54c0 	movw	r4, #46528	; 0xb5c0
2000922a:	f2c2 0400 	movt	r4, #8192	; 0x2000
2000922e:	4605      	mov	r5, r0
20009230:	4608      	mov	r0, r1
20009232:	2300      	movs	r3, #0
20009234:	6023      	str	r3, [r4, #0]
20009236:	f7f8 fe5b 	bl	20001ef0 <_close>
2000923a:	f1b0 3fff 	cmp.w	r0, #4294967295
2000923e:	d000      	beq.n	20009242 <_close_r+0x1e>
20009240:	bd38      	pop	{r3, r4, r5, pc}
20009242:	6823      	ldr	r3, [r4, #0]
20009244:	2b00      	cmp	r3, #0
20009246:	d0fb      	beq.n	20009240 <_close_r+0x1c>
20009248:	602b      	str	r3, [r5, #0]
2000924a:	bd38      	pop	{r3, r4, r5, pc}

2000924c <_fclose_r>:
2000924c:	b570      	push	{r4, r5, r6, lr}
2000924e:	4605      	mov	r5, r0
20009250:	460c      	mov	r4, r1
20009252:	2900      	cmp	r1, #0
20009254:	d04b      	beq.n	200092ee <_fclose_r+0xa2>
20009256:	f7fe f9a3 	bl	200075a0 <__sfp_lock_acquire>
2000925a:	b115      	cbz	r5, 20009262 <_fclose_r+0x16>
2000925c:	69ab      	ldr	r3, [r5, #24]
2000925e:	2b00      	cmp	r3, #0
20009260:	d048      	beq.n	200092f4 <_fclose_r+0xa8>
20009262:	f64a 4318 	movw	r3, #44056	; 0xac18
20009266:	f2c2 0300 	movt	r3, #8192	; 0x2000
2000926a:	429c      	cmp	r4, r3
2000926c:	bf08      	it	eq
2000926e:	686c      	ldreq	r4, [r5, #4]
20009270:	d00e      	beq.n	20009290 <_fclose_r+0x44>
20009272:	f64a 4338 	movw	r3, #44088	; 0xac38
20009276:	f2c2 0300 	movt	r3, #8192	; 0x2000
2000927a:	429c      	cmp	r4, r3
2000927c:	bf08      	it	eq
2000927e:	68ac      	ldreq	r4, [r5, #8]
20009280:	d006      	beq.n	20009290 <_fclose_r+0x44>
20009282:	f64a 4358 	movw	r3, #44120	; 0xac58
20009286:	f2c2 0300 	movt	r3, #8192	; 0x2000
2000928a:	429c      	cmp	r4, r3
2000928c:	bf08      	it	eq
2000928e:	68ec      	ldreq	r4, [r5, #12]
20009290:	f9b4 600c 	ldrsh.w	r6, [r4, #12]
20009294:	b33e      	cbz	r6, 200092e6 <_fclose_r+0x9a>
20009296:	4628      	mov	r0, r5
20009298:	4621      	mov	r1, r4
2000929a:	f7fe f8c5 	bl	20007428 <_fflush_r>
2000929e:	6b23      	ldr	r3, [r4, #48]	; 0x30
200092a0:	4606      	mov	r6, r0
200092a2:	b13b      	cbz	r3, 200092b4 <_fclose_r+0x68>
200092a4:	4628      	mov	r0, r5
200092a6:	6a21      	ldr	r1, [r4, #32]
200092a8:	4798      	blx	r3
200092aa:	ea36 0620 	bics.w	r6, r6, r0, asr #32
200092ae:	bf28      	it	cs
200092b0:	f04f 36ff 	movcs.w	r6, #4294967295
200092b4:	89a3      	ldrh	r3, [r4, #12]
200092b6:	f013 0f80 	tst.w	r3, #128	; 0x80
200092ba:	d11f      	bne.n	200092fc <_fclose_r+0xb0>
200092bc:	6b61      	ldr	r1, [r4, #52]	; 0x34
200092be:	b141      	cbz	r1, 200092d2 <_fclose_r+0x86>
200092c0:	f104 0344 	add.w	r3, r4, #68	; 0x44
200092c4:	4299      	cmp	r1, r3
200092c6:	d002      	beq.n	200092ce <_fclose_r+0x82>
200092c8:	4628      	mov	r0, r5
200092ca:	f7fe faa1 	bl	20007810 <_free_r>
200092ce:	2300      	movs	r3, #0
200092d0:	6363      	str	r3, [r4, #52]	; 0x34
200092d2:	6ca1      	ldr	r1, [r4, #72]	; 0x48
200092d4:	b121      	cbz	r1, 200092e0 <_fclose_r+0x94>
200092d6:	4628      	mov	r0, r5
200092d8:	f7fe fa9a 	bl	20007810 <_free_r>
200092dc:	2300      	movs	r3, #0
200092de:	64a3      	str	r3, [r4, #72]	; 0x48
200092e0:	f04f 0300 	mov.w	r3, #0
200092e4:	81a3      	strh	r3, [r4, #12]
200092e6:	f7fe f95d 	bl	200075a4 <__sfp_lock_release>
200092ea:	4630      	mov	r0, r6
200092ec:	bd70      	pop	{r4, r5, r6, pc}
200092ee:	460e      	mov	r6, r1
200092f0:	4630      	mov	r0, r6
200092f2:	bd70      	pop	{r4, r5, r6, pc}
200092f4:	4628      	mov	r0, r5
200092f6:	f7fe fa07 	bl	20007708 <__sinit>
200092fa:	e7b2      	b.n	20009262 <_fclose_r+0x16>
200092fc:	4628      	mov	r0, r5
200092fe:	6921      	ldr	r1, [r4, #16]
20009300:	f7fe fa86 	bl	20007810 <_free_r>
20009304:	e7da      	b.n	200092bc <_fclose_r+0x70>
20009306:	bf00      	nop

20009308 <fclose>:
20009308:	f64a 632c 	movw	r3, #44588	; 0xae2c
2000930c:	4601      	mov	r1, r0
2000930e:	f2c2 0300 	movt	r3, #8192	; 0x2000
20009312:	6818      	ldr	r0, [r3, #0]
20009314:	e79a      	b.n	2000924c <_fclose_r>
20009316:	bf00      	nop

20009318 <_fstat_r>:
20009318:	b538      	push	{r3, r4, r5, lr}
2000931a:	f24b 54c0 	movw	r4, #46528	; 0xb5c0
2000931e:	f2c2 0400 	movt	r4, #8192	; 0x2000
20009322:	4605      	mov	r5, r0
20009324:	4608      	mov	r0, r1
20009326:	4611      	mov	r1, r2
20009328:	2300      	movs	r3, #0
2000932a:	6023      	str	r3, [r4, #0]
2000932c:	f7f8 fdf2 	bl	20001f14 <_fstat>
20009330:	f1b0 3fff 	cmp.w	r0, #4294967295
20009334:	d000      	beq.n	20009338 <_fstat_r+0x20>
20009336:	bd38      	pop	{r3, r4, r5, pc}
20009338:	6823      	ldr	r3, [r4, #0]
2000933a:	2b00      	cmp	r3, #0
2000933c:	d0fb      	beq.n	20009336 <_fstat_r+0x1e>
2000933e:	602b      	str	r3, [r5, #0]
20009340:	bd38      	pop	{r3, r4, r5, pc}
20009342:	bf00      	nop

20009344 <_isatty_r>:
20009344:	b538      	push	{r3, r4, r5, lr}
20009346:	f24b 54c0 	movw	r4, #46528	; 0xb5c0
2000934a:	f2c2 0400 	movt	r4, #8192	; 0x2000
2000934e:	4605      	mov	r5, r0
20009350:	4608      	mov	r0, r1
20009352:	2300      	movs	r3, #0
20009354:	6023      	str	r3, [r4, #0]
20009356:	f7f8 fdef 	bl	20001f38 <_isatty>
2000935a:	f1b0 3fff 	cmp.w	r0, #4294967295
2000935e:	d000      	beq.n	20009362 <_isatty_r+0x1e>
20009360:	bd38      	pop	{r3, r4, r5, pc}
20009362:	6823      	ldr	r3, [r4, #0]
20009364:	2b00      	cmp	r3, #0
20009366:	d0fb      	beq.n	20009360 <_isatty_r+0x1c>
20009368:	602b      	str	r3, [r5, #0]
2000936a:	bd38      	pop	{r3, r4, r5, pc}

2000936c <_lseek_r>:
2000936c:	b538      	push	{r3, r4, r5, lr}
2000936e:	f24b 54c0 	movw	r4, #46528	; 0xb5c0
20009372:	f2c2 0400 	movt	r4, #8192	; 0x2000
20009376:	4605      	mov	r5, r0
20009378:	4608      	mov	r0, r1
2000937a:	4611      	mov	r1, r2
2000937c:	461a      	mov	r2, r3
2000937e:	2300      	movs	r3, #0
20009380:	6023      	str	r3, [r4, #0]
20009382:	f7f8 fde5 	bl	20001f50 <_lseek>
20009386:	f1b0 3fff 	cmp.w	r0, #4294967295
2000938a:	d000      	beq.n	2000938e <_lseek_r+0x22>
2000938c:	bd38      	pop	{r3, r4, r5, pc}
2000938e:	6823      	ldr	r3, [r4, #0]
20009390:	2b00      	cmp	r3, #0
20009392:	d0fb      	beq.n	2000938c <_lseek_r+0x20>
20009394:	602b      	str	r3, [r5, #0]
20009396:	bd38      	pop	{r3, r4, r5, pc}

20009398 <_read_r>:
20009398:	b538      	push	{r3, r4, r5, lr}
2000939a:	f24b 54c0 	movw	r4, #46528	; 0xb5c0
2000939e:	f2c2 0400 	movt	r4, #8192	; 0x2000
200093a2:	4605      	mov	r5, r0
200093a4:	4608      	mov	r0, r1
200093a6:	4611      	mov	r1, r2
200093a8:	461a      	mov	r2, r3
200093aa:	2300      	movs	r3, #0
200093ac:	6023      	str	r3, [r4, #0]
200093ae:	f7f8 fddd 	bl	20001f6c <_read>
200093b2:	f1b0 3fff 	cmp.w	r0, #4294967295
200093b6:	d000      	beq.n	200093ba <_read_r+0x22>
200093b8:	bd38      	pop	{r3, r4, r5, pc}
200093ba:	6823      	ldr	r3, [r4, #0]
200093bc:	2b00      	cmp	r3, #0
200093be:	d0fb      	beq.n	200093b8 <_read_r+0x20>
200093c0:	602b      	str	r3, [r5, #0]
200093c2:	bd38      	pop	{r3, r4, r5, pc}
200093c4:	0000      	lsls	r0, r0, #0
	...

200093c8 <__aeabi_uidiv>:
200093c8:	1e4a      	subs	r2, r1, #1
200093ca:	bf08      	it	eq
200093cc:	4770      	bxeq	lr
200093ce:	f0c0 8124 	bcc.w	2000961a <__aeabi_uidiv+0x252>
200093d2:	4288      	cmp	r0, r1
200093d4:	f240 8116 	bls.w	20009604 <__aeabi_uidiv+0x23c>
200093d8:	4211      	tst	r1, r2
200093da:	f000 8117 	beq.w	2000960c <__aeabi_uidiv+0x244>
200093de:	fab0 f380 	clz	r3, r0
200093e2:	fab1 f281 	clz	r2, r1
200093e6:	eba2 0303 	sub.w	r3, r2, r3
200093ea:	f1c3 031f 	rsb	r3, r3, #31
200093ee:	a204      	add	r2, pc, #16	; (adr r2, 20009400 <__aeabi_uidiv+0x38>)
200093f0:	eb02 1303 	add.w	r3, r2, r3, lsl #4
200093f4:	f04f 0200 	mov.w	r2, #0
200093f8:	469f      	mov	pc, r3
200093fa:	bf00      	nop
200093fc:	f3af 8000 	nop.w
20009400:	ebb0 7fc1 	cmp.w	r0, r1, lsl #31
20009404:	bf00      	nop
20009406:	eb42 0202 	adc.w	r2, r2, r2
2000940a:	bf28      	it	cs
2000940c:	eba0 70c1 	subcs.w	r0, r0, r1, lsl #31
20009410:	ebb0 7f81 	cmp.w	r0, r1, lsl #30
20009414:	bf00      	nop
20009416:	eb42 0202 	adc.w	r2, r2, r2
2000941a:	bf28      	it	cs
2000941c:	eba0 7081 	subcs.w	r0, r0, r1, lsl #30
20009420:	ebb0 7f41 	cmp.w	r0, r1, lsl #29
20009424:	bf00      	nop
20009426:	eb42 0202 	adc.w	r2, r2, r2
2000942a:	bf28      	it	cs
2000942c:	eba0 7041 	subcs.w	r0, r0, r1, lsl #29
20009430:	ebb0 7f01 	cmp.w	r0, r1, lsl #28
20009434:	bf00      	nop
20009436:	eb42 0202 	adc.w	r2, r2, r2
2000943a:	bf28      	it	cs
2000943c:	eba0 7001 	subcs.w	r0, r0, r1, lsl #28
20009440:	ebb0 6fc1 	cmp.w	r0, r1, lsl #27
20009444:	bf00      	nop
20009446:	eb42 0202 	adc.w	r2, r2, r2
2000944a:	bf28      	it	cs
2000944c:	eba0 60c1 	subcs.w	r0, r0, r1, lsl #27
20009450:	ebb0 6f81 	cmp.w	r0, r1, lsl #26
20009454:	bf00      	nop
20009456:	eb42 0202 	adc.w	r2, r2, r2
2000945a:	bf28      	it	cs
2000945c:	eba0 6081 	subcs.w	r0, r0, r1, lsl #26
20009460:	ebb0 6f41 	cmp.w	r0, r1, lsl #25
20009464:	bf00      	nop
20009466:	eb42 0202 	adc.w	r2, r2, r2
2000946a:	bf28      	it	cs
2000946c:	eba0 6041 	subcs.w	r0, r0, r1, lsl #25
20009470:	ebb0 6f01 	cmp.w	r0, r1, lsl #24
20009474:	bf00      	nop
20009476:	eb42 0202 	adc.w	r2, r2, r2
2000947a:	bf28      	it	cs
2000947c:	eba0 6001 	subcs.w	r0, r0, r1, lsl #24
20009480:	ebb0 5fc1 	cmp.w	r0, r1, lsl #23
20009484:	bf00      	nop
20009486:	eb42 0202 	adc.w	r2, r2, r2
2000948a:	bf28      	it	cs
2000948c:	eba0 50c1 	subcs.w	r0, r0, r1, lsl #23
20009490:	ebb0 5f81 	cmp.w	r0, r1, lsl #22
20009494:	bf00      	nop
20009496:	eb42 0202 	adc.w	r2, r2, r2
2000949a:	bf28      	it	cs
2000949c:	eba0 5081 	subcs.w	r0, r0, r1, lsl #22
200094a0:	ebb0 5f41 	cmp.w	r0, r1, lsl #21
200094a4:	bf00      	nop
200094a6:	eb42 0202 	adc.w	r2, r2, r2
200094aa:	bf28      	it	cs
200094ac:	eba0 5041 	subcs.w	r0, r0, r1, lsl #21
200094b0:	ebb0 5f01 	cmp.w	r0, r1, lsl #20
200094b4:	bf00      	nop
200094b6:	eb42 0202 	adc.w	r2, r2, r2
200094ba:	bf28      	it	cs
200094bc:	eba0 5001 	subcs.w	r0, r0, r1, lsl #20
200094c0:	ebb0 4fc1 	cmp.w	r0, r1, lsl #19
200094c4:	bf00      	nop
200094c6:	eb42 0202 	adc.w	r2, r2, r2
200094ca:	bf28      	it	cs
200094cc:	eba0 40c1 	subcs.w	r0, r0, r1, lsl #19
200094d0:	ebb0 4f81 	cmp.w	r0, r1, lsl #18
200094d4:	bf00      	nop
200094d6:	eb42 0202 	adc.w	r2, r2, r2
200094da:	bf28      	it	cs
200094dc:	eba0 4081 	subcs.w	r0, r0, r1, lsl #18
200094e0:	ebb0 4f41 	cmp.w	r0, r1, lsl #17
200094e4:	bf00      	nop
200094e6:	eb42 0202 	adc.w	r2, r2, r2
200094ea:	bf28      	it	cs
200094ec:	eba0 4041 	subcs.w	r0, r0, r1, lsl #17
200094f0:	ebb0 4f01 	cmp.w	r0, r1, lsl #16
200094f4:	bf00      	nop
200094f6:	eb42 0202 	adc.w	r2, r2, r2
200094fa:	bf28      	it	cs
200094fc:	eba0 4001 	subcs.w	r0, r0, r1, lsl #16
20009500:	ebb0 3fc1 	cmp.w	r0, r1, lsl #15
20009504:	bf00      	nop
20009506:	eb42 0202 	adc.w	r2, r2, r2
2000950a:	bf28      	it	cs
2000950c:	eba0 30c1 	subcs.w	r0, r0, r1, lsl #15
20009510:	ebb0 3f81 	cmp.w	r0, r1, lsl #14
20009514:	bf00      	nop
20009516:	eb42 0202 	adc.w	r2, r2, r2
2000951a:	bf28      	it	cs
2000951c:	eba0 3081 	subcs.w	r0, r0, r1, lsl #14
20009520:	ebb0 3f41 	cmp.w	r0, r1, lsl #13
20009524:	bf00      	nop
20009526:	eb42 0202 	adc.w	r2, r2, r2
2000952a:	bf28      	it	cs
2000952c:	eba0 3041 	subcs.w	r0, r0, r1, lsl #13
20009530:	ebb0 3f01 	cmp.w	r0, r1, lsl #12
20009534:	bf00      	nop
20009536:	eb42 0202 	adc.w	r2, r2, r2
2000953a:	bf28      	it	cs
2000953c:	eba0 3001 	subcs.w	r0, r0, r1, lsl #12
20009540:	ebb0 2fc1 	cmp.w	r0, r1, lsl #11
20009544:	bf00      	nop
20009546:	eb42 0202 	adc.w	r2, r2, r2
2000954a:	bf28      	it	cs
2000954c:	eba0 20c1 	subcs.w	r0, r0, r1, lsl #11
20009550:	ebb0 2f81 	cmp.w	r0, r1, lsl #10
20009554:	bf00      	nop
20009556:	eb42 0202 	adc.w	r2, r2, r2
2000955a:	bf28      	it	cs
2000955c:	eba0 2081 	subcs.w	r0, r0, r1, lsl #10
20009560:	ebb0 2f41 	cmp.w	r0, r1, lsl #9
20009564:	bf00      	nop
20009566:	eb42 0202 	adc.w	r2, r2, r2
2000956a:	bf28      	it	cs
2000956c:	eba0 2041 	subcs.w	r0, r0, r1, lsl #9
20009570:	ebb0 2f01 	cmp.w	r0, r1, lsl #8
20009574:	bf00      	nop
20009576:	eb42 0202 	adc.w	r2, r2, r2
2000957a:	bf28      	it	cs
2000957c:	eba0 2001 	subcs.w	r0, r0, r1, lsl #8
20009580:	ebb0 1fc1 	cmp.w	r0, r1, lsl #7
20009584:	bf00      	nop
20009586:	eb42 0202 	adc.w	r2, r2, r2
2000958a:	bf28      	it	cs
2000958c:	eba0 10c1 	subcs.w	r0, r0, r1, lsl #7
20009590:	ebb0 1f81 	cmp.w	r0, r1, lsl #6
20009594:	bf00      	nop
20009596:	eb42 0202 	adc.w	r2, r2, r2
2000959a:	bf28      	it	cs
2000959c:	eba0 1081 	subcs.w	r0, r0, r1, lsl #6
200095a0:	ebb0 1f41 	cmp.w	r0, r1, lsl #5
200095a4:	bf00      	nop
200095a6:	eb42 0202 	adc.w	r2, r2, r2
200095aa:	bf28      	it	cs
200095ac:	eba0 1041 	subcs.w	r0, r0, r1, lsl #5
200095b0:	ebb0 1f01 	cmp.w	r0, r1, lsl #4
200095b4:	bf00      	nop
200095b6:	eb42 0202 	adc.w	r2, r2, r2
200095ba:	bf28      	it	cs
200095bc:	eba0 1001 	subcs.w	r0, r0, r1, lsl #4
200095c0:	ebb0 0fc1 	cmp.w	r0, r1, lsl #3
200095c4:	bf00      	nop
200095c6:	eb42 0202 	adc.w	r2, r2, r2
200095ca:	bf28      	it	cs
200095cc:	eba0 00c1 	subcs.w	r0, r0, r1, lsl #3
200095d0:	ebb0 0f81 	cmp.w	r0, r1, lsl #2
200095d4:	bf00      	nop
200095d6:	eb42 0202 	adc.w	r2, r2, r2
200095da:	bf28      	it	cs
200095dc:	eba0 0081 	subcs.w	r0, r0, r1, lsl #2
200095e0:	ebb0 0f41 	cmp.w	r0, r1, lsl #1
200095e4:	bf00      	nop
200095e6:	eb42 0202 	adc.w	r2, r2, r2
200095ea:	bf28      	it	cs
200095ec:	eba0 0041 	subcs.w	r0, r0, r1, lsl #1
200095f0:	ebb0 0f01 	cmp.w	r0, r1
200095f4:	bf00      	nop
200095f6:	eb42 0202 	adc.w	r2, r2, r2
200095fa:	bf28      	it	cs
200095fc:	eba0 0001 	subcs.w	r0, r0, r1
20009600:	4610      	mov	r0, r2
20009602:	4770      	bx	lr
20009604:	bf0c      	ite	eq
20009606:	2001      	moveq	r0, #1
20009608:	2000      	movne	r0, #0
2000960a:	4770      	bx	lr
2000960c:	fab1 f281 	clz	r2, r1
20009610:	f1c2 021f 	rsb	r2, r2, #31
20009614:	fa20 f002 	lsr.w	r0, r0, r2
20009618:	4770      	bx	lr
2000961a:	b108      	cbz	r0, 20009620 <__aeabi_uidiv+0x258>
2000961c:	f04f 30ff 	mov.w	r0, #4294967295
20009620:	f000 b80e 	b.w	20009640 <__aeabi_idiv0>

20009624 <__aeabi_uidivmod>:
20009624:	2900      	cmp	r1, #0
20009626:	d0f8      	beq.n	2000961a <__aeabi_uidiv+0x252>
20009628:	e92d 4003 	stmdb	sp!, {r0, r1, lr}
2000962c:	f7ff fecc 	bl	200093c8 <__aeabi_uidiv>
20009630:	e8bd 4006 	ldmia.w	sp!, {r1, r2, lr}
20009634:	fb02 f300 	mul.w	r3, r2, r0
20009638:	eba1 0103 	sub.w	r1, r1, r3
2000963c:	4770      	bx	lr
2000963e:	bf00      	nop

20009640 <__aeabi_idiv0>:
20009640:	4770      	bx	lr
20009642:	bf00      	nop

20009644 <__aeabi_drsub>:
20009644:	f081 4100 	eor.w	r1, r1, #2147483648	; 0x80000000
20009648:	e002      	b.n	20009650 <__adddf3>
2000964a:	bf00      	nop

2000964c <__aeabi_dsub>:
2000964c:	f083 4300 	eor.w	r3, r3, #2147483648	; 0x80000000

20009650 <__adddf3>:
20009650:	b530      	push	{r4, r5, lr}
20009652:	ea4f 0441 	mov.w	r4, r1, lsl #1
20009656:	ea4f 0543 	mov.w	r5, r3, lsl #1
2000965a:	ea94 0f05 	teq	r4, r5
2000965e:	bf08      	it	eq
20009660:	ea90 0f02 	teqeq	r0, r2
20009664:	bf1f      	itttt	ne
20009666:	ea54 0c00 	orrsne.w	ip, r4, r0
2000966a:	ea55 0c02 	orrsne.w	ip, r5, r2
2000966e:	ea7f 5c64 	mvnsne.w	ip, r4, asr #21
20009672:	ea7f 5c65 	mvnsne.w	ip, r5, asr #21
20009676:	f000 80e2 	beq.w	2000983e <__adddf3+0x1ee>
2000967a:	ea4f 5454 	mov.w	r4, r4, lsr #21
2000967e:	ebd4 5555 	rsbs	r5, r4, r5, lsr #21
20009682:	bfb8      	it	lt
20009684:	426d      	neglt	r5, r5
20009686:	dd0c      	ble.n	200096a2 <__adddf3+0x52>
20009688:	442c      	add	r4, r5
2000968a:	ea80 0202 	eor.w	r2, r0, r2
2000968e:	ea81 0303 	eor.w	r3, r1, r3
20009692:	ea82 0000 	eor.w	r0, r2, r0
20009696:	ea83 0101 	eor.w	r1, r3, r1
2000969a:	ea80 0202 	eor.w	r2, r0, r2
2000969e:	ea81 0303 	eor.w	r3, r1, r3
200096a2:	2d36      	cmp	r5, #54	; 0x36
200096a4:	bf88      	it	hi
200096a6:	bd30      	pophi	{r4, r5, pc}
200096a8:	f011 4f00 	tst.w	r1, #2147483648	; 0x80000000
200096ac:	ea4f 3101 	mov.w	r1, r1, lsl #12
200096b0:	f44f 1c80 	mov.w	ip, #1048576	; 0x100000
200096b4:	ea4c 3111 	orr.w	r1, ip, r1, lsr #12
200096b8:	d002      	beq.n	200096c0 <__adddf3+0x70>
200096ba:	4240      	negs	r0, r0
200096bc:	eb61 0141 	sbc.w	r1, r1, r1, lsl #1
200096c0:	f013 4f00 	tst.w	r3, #2147483648	; 0x80000000
200096c4:	ea4f 3303 	mov.w	r3, r3, lsl #12
200096c8:	ea4c 3313 	orr.w	r3, ip, r3, lsr #12
200096cc:	d002      	beq.n	200096d4 <__adddf3+0x84>
200096ce:	4252      	negs	r2, r2
200096d0:	eb63 0343 	sbc.w	r3, r3, r3, lsl #1
200096d4:	ea94 0f05 	teq	r4, r5
200096d8:	f000 80a7 	beq.w	2000982a <__adddf3+0x1da>
200096dc:	f1a4 0401 	sub.w	r4, r4, #1
200096e0:	f1d5 0e20 	rsbs	lr, r5, #32
200096e4:	db0d      	blt.n	20009702 <__adddf3+0xb2>
200096e6:	fa02 fc0e 	lsl.w	ip, r2, lr
200096ea:	fa22 f205 	lsr.w	r2, r2, r5
200096ee:	1880      	adds	r0, r0, r2
200096f0:	f141 0100 	adc.w	r1, r1, #0
200096f4:	fa03 f20e 	lsl.w	r2, r3, lr
200096f8:	1880      	adds	r0, r0, r2
200096fa:	fa43 f305 	asr.w	r3, r3, r5
200096fe:	4159      	adcs	r1, r3
20009700:	e00e      	b.n	20009720 <__adddf3+0xd0>
20009702:	f1a5 0520 	sub.w	r5, r5, #32
20009706:	f10e 0e20 	add.w	lr, lr, #32
2000970a:	2a01      	cmp	r2, #1
2000970c:	fa03 fc0e 	lsl.w	ip, r3, lr
20009710:	bf28      	it	cs
20009712:	f04c 0c02 	orrcs.w	ip, ip, #2
20009716:	fa43 f305 	asr.w	r3, r3, r5
2000971a:	18c0      	adds	r0, r0, r3
2000971c:	eb51 71e3 	adcs.w	r1, r1, r3, asr #31
20009720:	f001 4500 	and.w	r5, r1, #2147483648	; 0x80000000
20009724:	d507      	bpl.n	20009736 <__adddf3+0xe6>
20009726:	f04f 0e00 	mov.w	lr, #0
2000972a:	f1dc 0c00 	rsbs	ip, ip, #0
2000972e:	eb7e 0000 	sbcs.w	r0, lr, r0
20009732:	eb6e 0101 	sbc.w	r1, lr, r1
20009736:	f5b1 1f80 	cmp.w	r1, #1048576	; 0x100000
2000973a:	d31b      	bcc.n	20009774 <__adddf3+0x124>
2000973c:	f5b1 1f00 	cmp.w	r1, #2097152	; 0x200000
20009740:	d30c      	bcc.n	2000975c <__adddf3+0x10c>
20009742:	0849      	lsrs	r1, r1, #1
20009744:	ea5f 0030 	movs.w	r0, r0, rrx
20009748:	ea4f 0c3c 	mov.w	ip, ip, rrx
2000974c:	f104 0401 	add.w	r4, r4, #1
20009750:	ea4f 5244 	mov.w	r2, r4, lsl #21
20009754:	f512 0f80 	cmn.w	r2, #4194304	; 0x400000
20009758:	f080 809a 	bcs.w	20009890 <__adddf3+0x240>
2000975c:	f1bc 4f00 	cmp.w	ip, #2147483648	; 0x80000000
20009760:	bf08      	it	eq
20009762:	ea5f 0c50 	movseq.w	ip, r0, lsr #1
20009766:	f150 0000 	adcs.w	r0, r0, #0
2000976a:	eb41 5104 	adc.w	r1, r1, r4, lsl #20
2000976e:	ea41 0105 	orr.w	r1, r1, r5
20009772:	bd30      	pop	{r4, r5, pc}
20009774:	ea5f 0c4c 	movs.w	ip, ip, lsl #1
20009778:	4140      	adcs	r0, r0
2000977a:	eb41 0101 	adc.w	r1, r1, r1
2000977e:	f411 1f80 	tst.w	r1, #1048576	; 0x100000
20009782:	f1a4 0401 	sub.w	r4, r4, #1
20009786:	d1e9      	bne.n	2000975c <__adddf3+0x10c>
20009788:	f091 0f00 	teq	r1, #0
2000978c:	bf04      	itt	eq
2000978e:	4601      	moveq	r1, r0
20009790:	2000      	moveq	r0, #0
20009792:	fab1 f381 	clz	r3, r1
20009796:	bf08      	it	eq
20009798:	3320      	addeq	r3, #32
2000979a:	f1a3 030b 	sub.w	r3, r3, #11
2000979e:	f1b3 0220 	subs.w	r2, r3, #32
200097a2:	da0c      	bge.n	200097be <__adddf3+0x16e>
200097a4:	320c      	adds	r2, #12
200097a6:	dd08      	ble.n	200097ba <__adddf3+0x16a>
200097a8:	f102 0c14 	add.w	ip, r2, #20
200097ac:	f1c2 020c 	rsb	r2, r2, #12
200097b0:	fa01 f00c 	lsl.w	r0, r1, ip
200097b4:	fa21 f102 	lsr.w	r1, r1, r2
200097b8:	e00c      	b.n	200097d4 <__adddf3+0x184>
200097ba:	f102 0214 	add.w	r2, r2, #20
200097be:	bfd8      	it	le
200097c0:	f1c2 0c20 	rsble	ip, r2, #32
200097c4:	fa01 f102 	lsl.w	r1, r1, r2
200097c8:	fa20 fc0c 	lsr.w	ip, r0, ip
200097cc:	bfdc      	itt	le
200097ce:	ea41 010c 	orrle.w	r1, r1, ip
200097d2:	4090      	lslle	r0, r2
200097d4:	1ae4      	subs	r4, r4, r3
200097d6:	bfa2      	ittt	ge
200097d8:	eb01 5104 	addge.w	r1, r1, r4, lsl #20
200097dc:	4329      	orrge	r1, r5
200097de:	bd30      	popge	{r4, r5, pc}
200097e0:	ea6f 0404 	mvn.w	r4, r4
200097e4:	3c1f      	subs	r4, #31
200097e6:	da1c      	bge.n	20009822 <__adddf3+0x1d2>
200097e8:	340c      	adds	r4, #12
200097ea:	dc0e      	bgt.n	2000980a <__adddf3+0x1ba>
200097ec:	f104 0414 	add.w	r4, r4, #20
200097f0:	f1c4 0220 	rsb	r2, r4, #32
200097f4:	fa20 f004 	lsr.w	r0, r0, r4
200097f8:	fa01 f302 	lsl.w	r3, r1, r2
200097fc:	ea40 0003 	orr.w	r0, r0, r3
20009800:	fa21 f304 	lsr.w	r3, r1, r4
20009804:	ea45 0103 	orr.w	r1, r5, r3
20009808:	bd30      	pop	{r4, r5, pc}
2000980a:	f1c4 040c 	rsb	r4, r4, #12
2000980e:	f1c4 0220 	rsb	r2, r4, #32
20009812:	fa20 f002 	lsr.w	r0, r0, r2
20009816:	fa01 f304 	lsl.w	r3, r1, r4
2000981a:	ea40 0003 	orr.w	r0, r0, r3
2000981e:	4629      	mov	r1, r5
20009820:	bd30      	pop	{r4, r5, pc}
20009822:	fa21 f004 	lsr.w	r0, r1, r4
20009826:	4629      	mov	r1, r5
20009828:	bd30      	pop	{r4, r5, pc}
2000982a:	f094 0f00 	teq	r4, #0
2000982e:	f483 1380 	eor.w	r3, r3, #1048576	; 0x100000
20009832:	bf06      	itte	eq
20009834:	f481 1180 	eoreq.w	r1, r1, #1048576	; 0x100000
20009838:	3401      	addeq	r4, #1
2000983a:	3d01      	subne	r5, #1
2000983c:	e74e      	b.n	200096dc <__adddf3+0x8c>
2000983e:	ea7f 5c64 	mvns.w	ip, r4, asr #21
20009842:	bf18      	it	ne
20009844:	ea7f 5c65 	mvnsne.w	ip, r5, asr #21
20009848:	d029      	beq.n	2000989e <__adddf3+0x24e>
2000984a:	ea94 0f05 	teq	r4, r5
2000984e:	bf08      	it	eq
20009850:	ea90 0f02 	teqeq	r0, r2
20009854:	d005      	beq.n	20009862 <__adddf3+0x212>
20009856:	ea54 0c00 	orrs.w	ip, r4, r0
2000985a:	bf04      	itt	eq
2000985c:	4619      	moveq	r1, r3
2000985e:	4610      	moveq	r0, r2
20009860:	bd30      	pop	{r4, r5, pc}
20009862:	ea91 0f03 	teq	r1, r3
20009866:	bf1e      	ittt	ne
20009868:	2100      	movne	r1, #0
2000986a:	2000      	movne	r0, #0
2000986c:	bd30      	popne	{r4, r5, pc}
2000986e:	ea5f 5c54 	movs.w	ip, r4, lsr #21
20009872:	d105      	bne.n	20009880 <__adddf3+0x230>
20009874:	0040      	lsls	r0, r0, #1
20009876:	4149      	adcs	r1, r1
20009878:	bf28      	it	cs
2000987a:	f041 4100 	orrcs.w	r1, r1, #2147483648	; 0x80000000
2000987e:	bd30      	pop	{r4, r5, pc}
20009880:	f514 0480 	adds.w	r4, r4, #4194304	; 0x400000
20009884:	bf3c      	itt	cc
20009886:	f501 1180 	addcc.w	r1, r1, #1048576	; 0x100000
2000988a:	bd30      	popcc	{r4, r5, pc}
2000988c:	f001 4500 	and.w	r5, r1, #2147483648	; 0x80000000
20009890:	f045 41fe 	orr.w	r1, r5, #2130706432	; 0x7f000000
20009894:	f441 0170 	orr.w	r1, r1, #15728640	; 0xf00000
20009898:	f04f 0000 	mov.w	r0, #0
2000989c:	bd30      	pop	{r4, r5, pc}
2000989e:	ea7f 5c64 	mvns.w	ip, r4, asr #21
200098a2:	bf1a      	itte	ne
200098a4:	4619      	movne	r1, r3
200098a6:	4610      	movne	r0, r2
200098a8:	ea7f 5c65 	mvnseq.w	ip, r5, asr #21
200098ac:	bf1c      	itt	ne
200098ae:	460b      	movne	r3, r1
200098b0:	4602      	movne	r2, r0
200098b2:	ea50 3401 	orrs.w	r4, r0, r1, lsl #12
200098b6:	bf06      	itte	eq
200098b8:	ea52 3503 	orrseq.w	r5, r2, r3, lsl #12
200098bc:	ea91 0f03 	teqeq	r1, r3
200098c0:	f441 2100 	orrne.w	r1, r1, #524288	; 0x80000
200098c4:	bd30      	pop	{r4, r5, pc}
200098c6:	bf00      	nop

200098c8 <__aeabi_ui2d>:
200098c8:	f090 0f00 	teq	r0, #0
200098cc:	bf04      	itt	eq
200098ce:	2100      	moveq	r1, #0
200098d0:	4770      	bxeq	lr
200098d2:	b530      	push	{r4, r5, lr}
200098d4:	f44f 6480 	mov.w	r4, #1024	; 0x400
200098d8:	f104 0432 	add.w	r4, r4, #50	; 0x32
200098dc:	f04f 0500 	mov.w	r5, #0
200098e0:	f04f 0100 	mov.w	r1, #0
200098e4:	e750      	b.n	20009788 <__adddf3+0x138>
200098e6:	bf00      	nop

200098e8 <__aeabi_i2d>:
200098e8:	f090 0f00 	teq	r0, #0
200098ec:	bf04      	itt	eq
200098ee:	2100      	moveq	r1, #0
200098f0:	4770      	bxeq	lr
200098f2:	b530      	push	{r4, r5, lr}
200098f4:	f44f 6480 	mov.w	r4, #1024	; 0x400
200098f8:	f104 0432 	add.w	r4, r4, #50	; 0x32
200098fc:	f010 4500 	ands.w	r5, r0, #2147483648	; 0x80000000
20009900:	bf48      	it	mi
20009902:	4240      	negmi	r0, r0
20009904:	f04f 0100 	mov.w	r1, #0
20009908:	e73e      	b.n	20009788 <__adddf3+0x138>
2000990a:	bf00      	nop

2000990c <__aeabi_f2d>:
2000990c:	0042      	lsls	r2, r0, #1
2000990e:	ea4f 01e2 	mov.w	r1, r2, asr #3
20009912:	ea4f 0131 	mov.w	r1, r1, rrx
20009916:	ea4f 7002 	mov.w	r0, r2, lsl #28
2000991a:	bf1f      	itttt	ne
2000991c:	f012 437f 	andsne.w	r3, r2, #4278190080	; 0xff000000
20009920:	f093 4f7f 	teqne	r3, #4278190080	; 0xff000000
20009924:	f081 5160 	eorne.w	r1, r1, #939524096	; 0x38000000
20009928:	4770      	bxne	lr
2000992a:	f092 0f00 	teq	r2, #0
2000992e:	bf14      	ite	ne
20009930:	f093 4f7f 	teqne	r3, #4278190080	; 0xff000000
20009934:	4770      	bxeq	lr
20009936:	b530      	push	{r4, r5, lr}
20009938:	f44f 7460 	mov.w	r4, #896	; 0x380
2000993c:	f001 4500 	and.w	r5, r1, #2147483648	; 0x80000000
20009940:	f021 4100 	bic.w	r1, r1, #2147483648	; 0x80000000
20009944:	e720      	b.n	20009788 <__adddf3+0x138>
20009946:	bf00      	nop

20009948 <__aeabi_ul2d>:
20009948:	ea50 0201 	orrs.w	r2, r0, r1
2000994c:	bf08      	it	eq
2000994e:	4770      	bxeq	lr
20009950:	b530      	push	{r4, r5, lr}
20009952:	f04f 0500 	mov.w	r5, #0
20009956:	e00a      	b.n	2000996e <__aeabi_l2d+0x16>

20009958 <__aeabi_l2d>:
20009958:	ea50 0201 	orrs.w	r2, r0, r1
2000995c:	bf08      	it	eq
2000995e:	4770      	bxeq	lr
20009960:	b530      	push	{r4, r5, lr}
20009962:	f011 4500 	ands.w	r5, r1, #2147483648	; 0x80000000
20009966:	d502      	bpl.n	2000996e <__aeabi_l2d+0x16>
20009968:	4240      	negs	r0, r0
2000996a:	eb61 0141 	sbc.w	r1, r1, r1, lsl #1
2000996e:	f44f 6480 	mov.w	r4, #1024	; 0x400
20009972:	f104 0432 	add.w	r4, r4, #50	; 0x32
20009976:	ea5f 5c91 	movs.w	ip, r1, lsr #22
2000997a:	f43f aedc 	beq.w	20009736 <__adddf3+0xe6>
2000997e:	f04f 0203 	mov.w	r2, #3
20009982:	ea5f 0cdc 	movs.w	ip, ip, lsr #3
20009986:	bf18      	it	ne
20009988:	3203      	addne	r2, #3
2000998a:	ea5f 0cdc 	movs.w	ip, ip, lsr #3
2000998e:	bf18      	it	ne
20009990:	3203      	addne	r2, #3
20009992:	eb02 02dc 	add.w	r2, r2, ip, lsr #3
20009996:	f1c2 0320 	rsb	r3, r2, #32
2000999a:	fa00 fc03 	lsl.w	ip, r0, r3
2000999e:	fa20 f002 	lsr.w	r0, r0, r2
200099a2:	fa01 fe03 	lsl.w	lr, r1, r3
200099a6:	ea40 000e 	orr.w	r0, r0, lr
200099aa:	fa21 f102 	lsr.w	r1, r1, r2
200099ae:	4414      	add	r4, r2
200099b0:	e6c1      	b.n	20009736 <__adddf3+0xe6>
200099b2:	bf00      	nop

200099b4 <__aeabi_dmul>:
200099b4:	b570      	push	{r4, r5, r6, lr}
200099b6:	f04f 0cff 	mov.w	ip, #255	; 0xff
200099ba:	f44c 6ce0 	orr.w	ip, ip, #1792	; 0x700
200099be:	ea1c 5411 	ands.w	r4, ip, r1, lsr #20
200099c2:	bf1d      	ittte	ne
200099c4:	ea1c 5513 	andsne.w	r5, ip, r3, lsr #20
200099c8:	ea94 0f0c 	teqne	r4, ip
200099cc:	ea95 0f0c 	teqne	r5, ip
200099d0:	f000 f8de 	bleq	20009b90 <__aeabi_dmul+0x1dc>
200099d4:	442c      	add	r4, r5
200099d6:	ea81 0603 	eor.w	r6, r1, r3
200099da:	ea21 514c 	bic.w	r1, r1, ip, lsl #21
200099de:	ea23 534c 	bic.w	r3, r3, ip, lsl #21
200099e2:	ea50 3501 	orrs.w	r5, r0, r1, lsl #12
200099e6:	bf18      	it	ne
200099e8:	ea52 3503 	orrsne.w	r5, r2, r3, lsl #12
200099ec:	f441 1180 	orr.w	r1, r1, #1048576	; 0x100000
200099f0:	f443 1380 	orr.w	r3, r3, #1048576	; 0x100000
200099f4:	d038      	beq.n	20009a68 <__aeabi_dmul+0xb4>
200099f6:	fba0 ce02 	umull	ip, lr, r0, r2
200099fa:	f04f 0500 	mov.w	r5, #0
200099fe:	fbe1 e502 	umlal	lr, r5, r1, r2
20009a02:	f006 4200 	and.w	r2, r6, #2147483648	; 0x80000000
20009a06:	fbe0 e503 	umlal	lr, r5, r0, r3
20009a0a:	f04f 0600 	mov.w	r6, #0
20009a0e:	fbe1 5603 	umlal	r5, r6, r1, r3
20009a12:	f09c 0f00 	teq	ip, #0
20009a16:	bf18      	it	ne
20009a18:	f04e 0e01 	orrne.w	lr, lr, #1
20009a1c:	f1a4 04ff 	sub.w	r4, r4, #255	; 0xff
20009a20:	f5b6 7f00 	cmp.w	r6, #512	; 0x200
20009a24:	f564 7440 	sbc.w	r4, r4, #768	; 0x300
20009a28:	d204      	bcs.n	20009a34 <__aeabi_dmul+0x80>
20009a2a:	ea5f 0e4e 	movs.w	lr, lr, lsl #1
20009a2e:	416d      	adcs	r5, r5
20009a30:	eb46 0606 	adc.w	r6, r6, r6
20009a34:	ea42 21c6 	orr.w	r1, r2, r6, lsl #11
20009a38:	ea41 5155 	orr.w	r1, r1, r5, lsr #21
20009a3c:	ea4f 20c5 	mov.w	r0, r5, lsl #11
20009a40:	ea40 505e 	orr.w	r0, r0, lr, lsr #21
20009a44:	ea4f 2ece 	mov.w	lr, lr, lsl #11
20009a48:	f1b4 0cfd 	subs.w	ip, r4, #253	; 0xfd
20009a4c:	bf88      	it	hi
20009a4e:	f5bc 6fe0 	cmphi.w	ip, #1792	; 0x700
20009a52:	d81e      	bhi.n	20009a92 <__aeabi_dmul+0xde>
20009a54:	f1be 4f00 	cmp.w	lr, #2147483648	; 0x80000000
20009a58:	bf08      	it	eq
20009a5a:	ea5f 0e50 	movseq.w	lr, r0, lsr #1
20009a5e:	f150 0000 	adcs.w	r0, r0, #0
20009a62:	eb41 5104 	adc.w	r1, r1, r4, lsl #20
20009a66:	bd70      	pop	{r4, r5, r6, pc}
20009a68:	f006 4600 	and.w	r6, r6, #2147483648	; 0x80000000
20009a6c:	ea46 0101 	orr.w	r1, r6, r1
20009a70:	ea40 0002 	orr.w	r0, r0, r2
20009a74:	ea81 0103 	eor.w	r1, r1, r3
20009a78:	ebb4 045c 	subs.w	r4, r4, ip, lsr #1
20009a7c:	bfc2      	ittt	gt
20009a7e:	ebd4 050c 	rsbsgt	r5, r4, ip
20009a82:	ea41 5104 	orrgt.w	r1, r1, r4, lsl #20
20009a86:	bd70      	popgt	{r4, r5, r6, pc}
20009a88:	f441 1180 	orr.w	r1, r1, #1048576	; 0x100000
20009a8c:	f04f 0e00 	mov.w	lr, #0
20009a90:	3c01      	subs	r4, #1
20009a92:	f300 80ab 	bgt.w	20009bec <__aeabi_dmul+0x238>
20009a96:	f114 0f36 	cmn.w	r4, #54	; 0x36
20009a9a:	bfde      	ittt	le
20009a9c:	2000      	movle	r0, #0
20009a9e:	f001 4100 	andle.w	r1, r1, #2147483648	; 0x80000000
20009aa2:	bd70      	pople	{r4, r5, r6, pc}
20009aa4:	f1c4 0400 	rsb	r4, r4, #0
20009aa8:	3c20      	subs	r4, #32
20009aaa:	da35      	bge.n	20009b18 <__aeabi_dmul+0x164>
20009aac:	340c      	adds	r4, #12
20009aae:	dc1b      	bgt.n	20009ae8 <__aeabi_dmul+0x134>
20009ab0:	f104 0414 	add.w	r4, r4, #20
20009ab4:	f1c4 0520 	rsb	r5, r4, #32
20009ab8:	fa00 f305 	lsl.w	r3, r0, r5
20009abc:	fa20 f004 	lsr.w	r0, r0, r4
20009ac0:	fa01 f205 	lsl.w	r2, r1, r5
20009ac4:	ea40 0002 	orr.w	r0, r0, r2
20009ac8:	f001 4200 	and.w	r2, r1, #2147483648	; 0x80000000
20009acc:	f021 4100 	bic.w	r1, r1, #2147483648	; 0x80000000
20009ad0:	eb10 70d3 	adds.w	r0, r0, r3, lsr #31
20009ad4:	fa21 f604 	lsr.w	r6, r1, r4
20009ad8:	eb42 0106 	adc.w	r1, r2, r6
20009adc:	ea5e 0e43 	orrs.w	lr, lr, r3, lsl #1
20009ae0:	bf08      	it	eq
20009ae2:	ea20 70d3 	biceq.w	r0, r0, r3, lsr #31
20009ae6:	bd70      	pop	{r4, r5, r6, pc}
20009ae8:	f1c4 040c 	rsb	r4, r4, #12
20009aec:	f1c4 0520 	rsb	r5, r4, #32
20009af0:	fa00 f304 	lsl.w	r3, r0, r4
20009af4:	fa20 f005 	lsr.w	r0, r0, r5
20009af8:	fa01 f204 	lsl.w	r2, r1, r4
20009afc:	ea40 0002 	orr.w	r0, r0, r2
20009b00:	f001 4100 	and.w	r1, r1, #2147483648	; 0x80000000
20009b04:	eb10 70d3 	adds.w	r0, r0, r3, lsr #31
20009b08:	f141 0100 	adc.w	r1, r1, #0
20009b0c:	ea5e 0e43 	orrs.w	lr, lr, r3, lsl #1
20009b10:	bf08      	it	eq
20009b12:	ea20 70d3 	biceq.w	r0, r0, r3, lsr #31
20009b16:	bd70      	pop	{r4, r5, r6, pc}
20009b18:	f1c4 0520 	rsb	r5, r4, #32
20009b1c:	fa00 f205 	lsl.w	r2, r0, r5
20009b20:	ea4e 0e02 	orr.w	lr, lr, r2
20009b24:	fa20 f304 	lsr.w	r3, r0, r4
20009b28:	fa01 f205 	lsl.w	r2, r1, r5
20009b2c:	ea43 0302 	orr.w	r3, r3, r2
20009b30:	fa21 f004 	lsr.w	r0, r1, r4
20009b34:	f001 4100 	and.w	r1, r1, #2147483648	; 0x80000000
20009b38:	fa21 f204 	lsr.w	r2, r1, r4
20009b3c:	ea20 0002 	bic.w	r0, r0, r2
20009b40:	eb00 70d3 	add.w	r0, r0, r3, lsr #31
20009b44:	ea5e 0e43 	orrs.w	lr, lr, r3, lsl #1
20009b48:	bf08      	it	eq
20009b4a:	ea20 70d3 	biceq.w	r0, r0, r3, lsr #31
20009b4e:	bd70      	pop	{r4, r5, r6, pc}
20009b50:	f094 0f00 	teq	r4, #0
20009b54:	d10f      	bne.n	20009b76 <__aeabi_dmul+0x1c2>
20009b56:	f001 4600 	and.w	r6, r1, #2147483648	; 0x80000000
20009b5a:	0040      	lsls	r0, r0, #1
20009b5c:	eb41 0101 	adc.w	r1, r1, r1
20009b60:	f411 1f80 	tst.w	r1, #1048576	; 0x100000
20009b64:	bf08      	it	eq
20009b66:	3c01      	subeq	r4, #1
20009b68:	d0f7      	beq.n	20009b5a <__aeabi_dmul+0x1a6>
20009b6a:	ea41 0106 	orr.w	r1, r1, r6
20009b6e:	f095 0f00 	teq	r5, #0
20009b72:	bf18      	it	ne
20009b74:	4770      	bxne	lr
20009b76:	f003 4600 	and.w	r6, r3, #2147483648	; 0x80000000
20009b7a:	0052      	lsls	r2, r2, #1
20009b7c:	eb43 0303 	adc.w	r3, r3, r3
20009b80:	f413 1f80 	tst.w	r3, #1048576	; 0x100000
20009b84:	bf08      	it	eq
20009b86:	3d01      	subeq	r5, #1
20009b88:	d0f7      	beq.n	20009b7a <__aeabi_dmul+0x1c6>
20009b8a:	ea43 0306 	orr.w	r3, r3, r6
20009b8e:	4770      	bx	lr
20009b90:	ea94 0f0c 	teq	r4, ip
20009b94:	ea0c 5513 	and.w	r5, ip, r3, lsr #20
20009b98:	bf18      	it	ne
20009b9a:	ea95 0f0c 	teqne	r5, ip
20009b9e:	d00c      	beq.n	20009bba <__aeabi_dmul+0x206>
20009ba0:	ea50 0641 	orrs.w	r6, r0, r1, lsl #1
20009ba4:	bf18      	it	ne
20009ba6:	ea52 0643 	orrsne.w	r6, r2, r3, lsl #1
20009baa:	d1d1      	bne.n	20009b50 <__aeabi_dmul+0x19c>
20009bac:	ea81 0103 	eor.w	r1, r1, r3
20009bb0:	f001 4100 	and.w	r1, r1, #2147483648	; 0x80000000
20009bb4:	f04f 0000 	mov.w	r0, #0
20009bb8:	bd70      	pop	{r4, r5, r6, pc}
20009bba:	ea50 0641 	orrs.w	r6, r0, r1, lsl #1
20009bbe:	bf06      	itte	eq
20009bc0:	4610      	moveq	r0, r2
20009bc2:	4619      	moveq	r1, r3
20009bc4:	ea52 0643 	orrsne.w	r6, r2, r3, lsl #1
20009bc8:	d019      	beq.n	20009bfe <__aeabi_dmul+0x24a>
20009bca:	ea94 0f0c 	teq	r4, ip
20009bce:	d102      	bne.n	20009bd6 <__aeabi_dmul+0x222>
20009bd0:	ea50 3601 	orrs.w	r6, r0, r1, lsl #12
20009bd4:	d113      	bne.n	20009bfe <__aeabi_dmul+0x24a>
20009bd6:	ea95 0f0c 	teq	r5, ip
20009bda:	d105      	bne.n	20009be8 <__aeabi_dmul+0x234>
20009bdc:	ea52 3603 	orrs.w	r6, r2, r3, lsl #12
20009be0:	bf1c      	itt	ne
20009be2:	4610      	movne	r0, r2
20009be4:	4619      	movne	r1, r3
20009be6:	d10a      	bne.n	20009bfe <__aeabi_dmul+0x24a>
20009be8:	ea81 0103 	eor.w	r1, r1, r3
20009bec:	f001 4100 	and.w	r1, r1, #2147483648	; 0x80000000
20009bf0:	f041 41fe 	orr.w	r1, r1, #2130706432	; 0x7f000000
20009bf4:	f441 0170 	orr.w	r1, r1, #15728640	; 0xf00000
20009bf8:	f04f 0000 	mov.w	r0, #0
20009bfc:	bd70      	pop	{r4, r5, r6, pc}
20009bfe:	f041 41fe 	orr.w	r1, r1, #2130706432	; 0x7f000000
20009c02:	f441 0178 	orr.w	r1, r1, #16252928	; 0xf80000
20009c06:	bd70      	pop	{r4, r5, r6, pc}

20009c08 <__aeabi_ddiv>:
20009c08:	b570      	push	{r4, r5, r6, lr}
20009c0a:	f04f 0cff 	mov.w	ip, #255	; 0xff
20009c0e:	f44c 6ce0 	orr.w	ip, ip, #1792	; 0x700
20009c12:	ea1c 5411 	ands.w	r4, ip, r1, lsr #20
20009c16:	bf1d      	ittte	ne
20009c18:	ea1c 5513 	andsne.w	r5, ip, r3, lsr #20
20009c1c:	ea94 0f0c 	teqne	r4, ip
20009c20:	ea95 0f0c 	teqne	r5, ip
20009c24:	f000 f8a7 	bleq	20009d76 <__aeabi_ddiv+0x16e>
20009c28:	eba4 0405 	sub.w	r4, r4, r5
20009c2c:	ea81 0e03 	eor.w	lr, r1, r3
20009c30:	ea52 3503 	orrs.w	r5, r2, r3, lsl #12
20009c34:	ea4f 3101 	mov.w	r1, r1, lsl #12
20009c38:	f000 8088 	beq.w	20009d4c <__aeabi_ddiv+0x144>
20009c3c:	ea4f 3303 	mov.w	r3, r3, lsl #12
20009c40:	f04f 5580 	mov.w	r5, #268435456	; 0x10000000
20009c44:	ea45 1313 	orr.w	r3, r5, r3, lsr #4
20009c48:	ea43 6312 	orr.w	r3, r3, r2, lsr #24
20009c4c:	ea4f 2202 	mov.w	r2, r2, lsl #8
20009c50:	ea45 1511 	orr.w	r5, r5, r1, lsr #4
20009c54:	ea45 6510 	orr.w	r5, r5, r0, lsr #24
20009c58:	ea4f 2600 	mov.w	r6, r0, lsl #8
20009c5c:	f00e 4100 	and.w	r1, lr, #2147483648	; 0x80000000
20009c60:	429d      	cmp	r5, r3
20009c62:	bf08      	it	eq
20009c64:	4296      	cmpeq	r6, r2
20009c66:	f144 04fd 	adc.w	r4, r4, #253	; 0xfd
20009c6a:	f504 7440 	add.w	r4, r4, #768	; 0x300
20009c6e:	d202      	bcs.n	20009c76 <__aeabi_ddiv+0x6e>
20009c70:	085b      	lsrs	r3, r3, #1
20009c72:	ea4f 0232 	mov.w	r2, r2, rrx
20009c76:	1ab6      	subs	r6, r6, r2
20009c78:	eb65 0503 	sbc.w	r5, r5, r3
20009c7c:	085b      	lsrs	r3, r3, #1
20009c7e:	ea4f 0232 	mov.w	r2, r2, rrx
20009c82:	f44f 1080 	mov.w	r0, #1048576	; 0x100000
20009c86:	f44f 2c00 	mov.w	ip, #524288	; 0x80000
20009c8a:	ebb6 0e02 	subs.w	lr, r6, r2
20009c8e:	eb75 0e03 	sbcs.w	lr, r5, r3
20009c92:	bf22      	ittt	cs
20009c94:	1ab6      	subcs	r6, r6, r2
20009c96:	4675      	movcs	r5, lr
20009c98:	ea40 000c 	orrcs.w	r0, r0, ip
20009c9c:	085b      	lsrs	r3, r3, #1
20009c9e:	ea4f 0232 	mov.w	r2, r2, rrx
20009ca2:	ebb6 0e02 	subs.w	lr, r6, r2
20009ca6:	eb75 0e03 	sbcs.w	lr, r5, r3
20009caa:	bf22      	ittt	cs
20009cac:	1ab6      	subcs	r6, r6, r2
20009cae:	4675      	movcs	r5, lr
20009cb0:	ea40 005c 	orrcs.w	r0, r0, ip, lsr #1
20009cb4:	085b      	lsrs	r3, r3, #1
20009cb6:	ea4f 0232 	mov.w	r2, r2, rrx
20009cba:	ebb6 0e02 	subs.w	lr, r6, r2
20009cbe:	eb75 0e03 	sbcs.w	lr, r5, r3
20009cc2:	bf22      	ittt	cs
20009cc4:	1ab6      	subcs	r6, r6, r2
20009cc6:	4675      	movcs	r5, lr
20009cc8:	ea40 009c 	orrcs.w	r0, r0, ip, lsr #2
20009ccc:	085b      	lsrs	r3, r3, #1
20009cce:	ea4f 0232 	mov.w	r2, r2, rrx
20009cd2:	ebb6 0e02 	subs.w	lr, r6, r2
20009cd6:	eb75 0e03 	sbcs.w	lr, r5, r3
20009cda:	bf22      	ittt	cs
20009cdc:	1ab6      	subcs	r6, r6, r2
20009cde:	4675      	movcs	r5, lr
20009ce0:	ea40 00dc 	orrcs.w	r0, r0, ip, lsr #3
20009ce4:	ea55 0e06 	orrs.w	lr, r5, r6
20009ce8:	d018      	beq.n	20009d1c <__aeabi_ddiv+0x114>
20009cea:	ea4f 1505 	mov.w	r5, r5, lsl #4
20009cee:	ea45 7516 	orr.w	r5, r5, r6, lsr #28
20009cf2:	ea4f 1606 	mov.w	r6, r6, lsl #4
20009cf6:	ea4f 03c3 	mov.w	r3, r3, lsl #3
20009cfa:	ea43 7352 	orr.w	r3, r3, r2, lsr #29
20009cfe:	ea4f 02c2 	mov.w	r2, r2, lsl #3
20009d02:	ea5f 1c1c 	movs.w	ip, ip, lsr #4
20009d06:	d1c0      	bne.n	20009c8a <__aeabi_ddiv+0x82>
20009d08:	f411 1f80 	tst.w	r1, #1048576	; 0x100000
20009d0c:	d10b      	bne.n	20009d26 <__aeabi_ddiv+0x11e>
20009d0e:	ea41 0100 	orr.w	r1, r1, r0
20009d12:	f04f 0000 	mov.w	r0, #0
20009d16:	f04f 4c00 	mov.w	ip, #2147483648	; 0x80000000
20009d1a:	e7b6      	b.n	20009c8a <__aeabi_ddiv+0x82>
20009d1c:	f411 1f80 	tst.w	r1, #1048576	; 0x100000
20009d20:	bf04      	itt	eq
20009d22:	4301      	orreq	r1, r0
20009d24:	2000      	moveq	r0, #0
20009d26:	f1b4 0cfd 	subs.w	ip, r4, #253	; 0xfd
20009d2a:	bf88      	it	hi
20009d2c:	f5bc 6fe0 	cmphi.w	ip, #1792	; 0x700
20009d30:	f63f aeaf 	bhi.w	20009a92 <__aeabi_dmul+0xde>
20009d34:	ebb5 0c03 	subs.w	ip, r5, r3
20009d38:	bf04      	itt	eq
20009d3a:	ebb6 0c02 	subseq.w	ip, r6, r2
20009d3e:	ea5f 0c50 	movseq.w	ip, r0, lsr #1
20009d42:	f150 0000 	adcs.w	r0, r0, #0
20009d46:	eb41 5104 	adc.w	r1, r1, r4, lsl #20
20009d4a:	bd70      	pop	{r4, r5, r6, pc}
20009d4c:	f00e 4e00 	and.w	lr, lr, #2147483648	; 0x80000000
20009d50:	ea4e 3111 	orr.w	r1, lr, r1, lsr #12
20009d54:	eb14 045c 	adds.w	r4, r4, ip, lsr #1
20009d58:	bfc2      	ittt	gt
20009d5a:	ebd4 050c 	rsbsgt	r5, r4, ip
20009d5e:	ea41 5104 	orrgt.w	r1, r1, r4, lsl #20
20009d62:	bd70      	popgt	{r4, r5, r6, pc}
20009d64:	f441 1180 	orr.w	r1, r1, #1048576	; 0x100000
20009d68:	f04f 0e00 	mov.w	lr, #0
20009d6c:	3c01      	subs	r4, #1
20009d6e:	e690      	b.n	20009a92 <__aeabi_dmul+0xde>
20009d70:	ea45 0e06 	orr.w	lr, r5, r6
20009d74:	e68d      	b.n	20009a92 <__aeabi_dmul+0xde>
20009d76:	ea0c 5513 	and.w	r5, ip, r3, lsr #20
20009d7a:	ea94 0f0c 	teq	r4, ip
20009d7e:	bf08      	it	eq
20009d80:	ea95 0f0c 	teqeq	r5, ip
20009d84:	f43f af3b 	beq.w	20009bfe <__aeabi_dmul+0x24a>
20009d88:	ea94 0f0c 	teq	r4, ip
20009d8c:	d10a      	bne.n	20009da4 <__aeabi_ddiv+0x19c>
20009d8e:	ea50 3401 	orrs.w	r4, r0, r1, lsl #12
20009d92:	f47f af34 	bne.w	20009bfe <__aeabi_dmul+0x24a>
20009d96:	ea95 0f0c 	teq	r5, ip
20009d9a:	f47f af25 	bne.w	20009be8 <__aeabi_dmul+0x234>
20009d9e:	4610      	mov	r0, r2
20009da0:	4619      	mov	r1, r3
20009da2:	e72c      	b.n	20009bfe <__aeabi_dmul+0x24a>
20009da4:	ea95 0f0c 	teq	r5, ip
20009da8:	d106      	bne.n	20009db8 <__aeabi_ddiv+0x1b0>
20009daa:	ea52 3503 	orrs.w	r5, r2, r3, lsl #12
20009dae:	f43f aefd 	beq.w	20009bac <__aeabi_dmul+0x1f8>
20009db2:	4610      	mov	r0, r2
20009db4:	4619      	mov	r1, r3
20009db6:	e722      	b.n	20009bfe <__aeabi_dmul+0x24a>
20009db8:	ea50 0641 	orrs.w	r6, r0, r1, lsl #1
20009dbc:	bf18      	it	ne
20009dbe:	ea52 0643 	orrsne.w	r6, r2, r3, lsl #1
20009dc2:	f47f aec5 	bne.w	20009b50 <__aeabi_dmul+0x19c>
20009dc6:	ea50 0441 	orrs.w	r4, r0, r1, lsl #1
20009dca:	f47f af0d 	bne.w	20009be8 <__aeabi_dmul+0x234>
20009dce:	ea52 0543 	orrs.w	r5, r2, r3, lsl #1
20009dd2:	f47f aeeb 	bne.w	20009bac <__aeabi_dmul+0x1f8>
20009dd6:	e712      	b.n	20009bfe <__aeabi_dmul+0x24a>

20009dd8 <__gedf2>:
20009dd8:	f04f 3cff 	mov.w	ip, #4294967295
20009ddc:	e006      	b.n	20009dec <__cmpdf2+0x4>
20009dde:	bf00      	nop

20009de0 <__ledf2>:
20009de0:	f04f 0c01 	mov.w	ip, #1
20009de4:	e002      	b.n	20009dec <__cmpdf2+0x4>
20009de6:	bf00      	nop

20009de8 <__cmpdf2>:
20009de8:	f04f 0c01 	mov.w	ip, #1
20009dec:	f84d cd04 	str.w	ip, [sp, #-4]!
20009df0:	ea4f 0c41 	mov.w	ip, r1, lsl #1
20009df4:	ea7f 5c6c 	mvns.w	ip, ip, asr #21
20009df8:	ea4f 0c43 	mov.w	ip, r3, lsl #1
20009dfc:	bf18      	it	ne
20009dfe:	ea7f 5c6c 	mvnsne.w	ip, ip, asr #21
20009e02:	d01b      	beq.n	20009e3c <__cmpdf2+0x54>
20009e04:	b001      	add	sp, #4
20009e06:	ea50 0c41 	orrs.w	ip, r0, r1, lsl #1
20009e0a:	bf0c      	ite	eq
20009e0c:	ea52 0c43 	orrseq.w	ip, r2, r3, lsl #1
20009e10:	ea91 0f03 	teqne	r1, r3
20009e14:	bf02      	ittt	eq
20009e16:	ea90 0f02 	teqeq	r0, r2
20009e1a:	2000      	moveq	r0, #0
20009e1c:	4770      	bxeq	lr
20009e1e:	f110 0f00 	cmn.w	r0, #0
20009e22:	ea91 0f03 	teq	r1, r3
20009e26:	bf58      	it	pl
20009e28:	4299      	cmppl	r1, r3
20009e2a:	bf08      	it	eq
20009e2c:	4290      	cmpeq	r0, r2
20009e2e:	bf2c      	ite	cs
20009e30:	17d8      	asrcs	r0, r3, #31
20009e32:	ea6f 70e3 	mvncc.w	r0, r3, asr #31
20009e36:	f040 0001 	orr.w	r0, r0, #1
20009e3a:	4770      	bx	lr
20009e3c:	ea4f 0c41 	mov.w	ip, r1, lsl #1
20009e40:	ea7f 5c6c 	mvns.w	ip, ip, asr #21
20009e44:	d102      	bne.n	20009e4c <__cmpdf2+0x64>
20009e46:	ea50 3c01 	orrs.w	ip, r0, r1, lsl #12
20009e4a:	d107      	bne.n	20009e5c <__cmpdf2+0x74>
20009e4c:	ea4f 0c43 	mov.w	ip, r3, lsl #1
20009e50:	ea7f 5c6c 	mvns.w	ip, ip, asr #21
20009e54:	d1d6      	bne.n	20009e04 <__cmpdf2+0x1c>
20009e56:	ea52 3c03 	orrs.w	ip, r2, r3, lsl #12
20009e5a:	d0d3      	beq.n	20009e04 <__cmpdf2+0x1c>
20009e5c:	f85d 0b04 	ldr.w	r0, [sp], #4
20009e60:	4770      	bx	lr
20009e62:	bf00      	nop

20009e64 <__aeabi_cdrcmple>:
20009e64:	4684      	mov	ip, r0
20009e66:	4610      	mov	r0, r2
20009e68:	4662      	mov	r2, ip
20009e6a:	468c      	mov	ip, r1
20009e6c:	4619      	mov	r1, r3
20009e6e:	4663      	mov	r3, ip
20009e70:	e000      	b.n	20009e74 <__aeabi_cdcmpeq>
20009e72:	bf00      	nop

20009e74 <__aeabi_cdcmpeq>:
20009e74:	b501      	push	{r0, lr}
20009e76:	f7ff ffb7 	bl	20009de8 <__cmpdf2>
20009e7a:	2800      	cmp	r0, #0
20009e7c:	bf48      	it	mi
20009e7e:	f110 0f00 	cmnmi.w	r0, #0
20009e82:	bd01      	pop	{r0, pc}

20009e84 <__aeabi_dcmpeq>:
20009e84:	f84d ed08 	str.w	lr, [sp, #-8]!
20009e88:	f7ff fff4 	bl	20009e74 <__aeabi_cdcmpeq>
20009e8c:	bf0c      	ite	eq
20009e8e:	2001      	moveq	r0, #1
20009e90:	2000      	movne	r0, #0
20009e92:	f85d fb08 	ldr.w	pc, [sp], #8
20009e96:	bf00      	nop

20009e98 <__aeabi_dcmplt>:
20009e98:	f84d ed08 	str.w	lr, [sp, #-8]!
20009e9c:	f7ff ffea 	bl	20009e74 <__aeabi_cdcmpeq>
20009ea0:	bf34      	ite	cc
20009ea2:	2001      	movcc	r0, #1
20009ea4:	2000      	movcs	r0, #0
20009ea6:	f85d fb08 	ldr.w	pc, [sp], #8
20009eaa:	bf00      	nop

20009eac <__aeabi_dcmple>:
20009eac:	f84d ed08 	str.w	lr, [sp, #-8]!
20009eb0:	f7ff ffe0 	bl	20009e74 <__aeabi_cdcmpeq>
20009eb4:	bf94      	ite	ls
20009eb6:	2001      	movls	r0, #1
20009eb8:	2000      	movhi	r0, #0
20009eba:	f85d fb08 	ldr.w	pc, [sp], #8
20009ebe:	bf00      	nop

20009ec0 <__aeabi_dcmpge>:
20009ec0:	f84d ed08 	str.w	lr, [sp, #-8]!
20009ec4:	f7ff ffce 	bl	20009e64 <__aeabi_cdrcmple>
20009ec8:	bf94      	ite	ls
20009eca:	2001      	movls	r0, #1
20009ecc:	2000      	movhi	r0, #0
20009ece:	f85d fb08 	ldr.w	pc, [sp], #8
20009ed2:	bf00      	nop

20009ed4 <__aeabi_dcmpgt>:
20009ed4:	f84d ed08 	str.w	lr, [sp, #-8]!
20009ed8:	f7ff ffc4 	bl	20009e64 <__aeabi_cdrcmple>
20009edc:	bf34      	ite	cc
20009ede:	2001      	movcc	r0, #1
20009ee0:	2000      	movcs	r0, #0
20009ee2:	f85d fb08 	ldr.w	pc, [sp], #8
20009ee6:	bf00      	nop

20009ee8 <__aeabi_d2iz>:
20009ee8:	ea4f 0241 	mov.w	r2, r1, lsl #1
20009eec:	f512 1200 	adds.w	r2, r2, #2097152	; 0x200000
20009ef0:	d215      	bcs.n	20009f1e <__aeabi_d2iz+0x36>
20009ef2:	d511      	bpl.n	20009f18 <__aeabi_d2iz+0x30>
20009ef4:	f46f 7378 	mvn.w	r3, #992	; 0x3e0
20009ef8:	ebb3 5262 	subs.w	r2, r3, r2, asr #21
20009efc:	d912      	bls.n	20009f24 <__aeabi_d2iz+0x3c>
20009efe:	ea4f 23c1 	mov.w	r3, r1, lsl #11
20009f02:	f043 4300 	orr.w	r3, r3, #2147483648	; 0x80000000
20009f06:	ea43 5350 	orr.w	r3, r3, r0, lsr #21
20009f0a:	f011 4f00 	tst.w	r1, #2147483648	; 0x80000000
20009f0e:	fa23 f002 	lsr.w	r0, r3, r2
20009f12:	bf18      	it	ne
20009f14:	4240      	negne	r0, r0
20009f16:	4770      	bx	lr
20009f18:	f04f 0000 	mov.w	r0, #0
20009f1c:	4770      	bx	lr
20009f1e:	ea50 3001 	orrs.w	r0, r0, r1, lsl #12
20009f22:	d105      	bne.n	20009f30 <__aeabi_d2iz+0x48>
20009f24:	f011 4000 	ands.w	r0, r1, #2147483648	; 0x80000000
20009f28:	bf08      	it	eq
20009f2a:	f06f 4000 	mvneq.w	r0, #2147483648	; 0x80000000
20009f2e:	4770      	bx	lr
20009f30:	f04f 0000 	mov.w	r0, #0
20009f34:	4770      	bx	lr
20009f36:	bf00      	nop

20009f38 <__aeabi_uldivmod>:
20009f38:	b94b      	cbnz	r3, 20009f4e <__aeabi_uldivmod+0x16>
20009f3a:	b942      	cbnz	r2, 20009f4e <__aeabi_uldivmod+0x16>
20009f3c:	2900      	cmp	r1, #0
20009f3e:	bf08      	it	eq
20009f40:	2800      	cmpeq	r0, #0
20009f42:	d002      	beq.n	20009f4a <__aeabi_uldivmod+0x12>
20009f44:	f04f 31ff 	mov.w	r1, #4294967295
20009f48:	4608      	mov	r0, r1
20009f4a:	f7ff bb79 	b.w	20009640 <__aeabi_idiv0>
20009f4e:	b082      	sub	sp, #8
20009f50:	46ec      	mov	ip, sp
20009f52:	e92d 5000 	stmdb	sp!, {ip, lr}
20009f56:	f000 f805 	bl	20009f64 <__gnu_uldivmod_helper>
20009f5a:	f8dd e004 	ldr.w	lr, [sp, #4]
20009f5e:	b002      	add	sp, #8
20009f60:	bc0c      	pop	{r2, r3}
20009f62:	4770      	bx	lr

20009f64 <__gnu_uldivmod_helper>:
20009f64:	b5f8      	push	{r3, r4, r5, r6, r7, lr}
20009f66:	4614      	mov	r4, r2
20009f68:	461d      	mov	r5, r3
20009f6a:	4606      	mov	r6, r0
20009f6c:	460f      	mov	r7, r1
20009f6e:	f000 f9d7 	bl	2000a320 <__udivdi3>
20009f72:	fb00 f505 	mul.w	r5, r0, r5
20009f76:	fba0 2304 	umull	r2, r3, r0, r4
20009f7a:	fb04 5401 	mla	r4, r4, r1, r5
20009f7e:	18e3      	adds	r3, r4, r3
20009f80:	1ab6      	subs	r6, r6, r2
20009f82:	eb67 0703 	sbc.w	r7, r7, r3
20009f86:	9b06      	ldr	r3, [sp, #24]
20009f88:	e9c3 6700 	strd	r6, r7, [r3]
20009f8c:	bdf8      	pop	{r3, r4, r5, r6, r7, pc}
20009f8e:	bf00      	nop

20009f90 <__gnu_ldivmod_helper>:
20009f90:	b5f8      	push	{r3, r4, r5, r6, r7, lr}
20009f92:	4614      	mov	r4, r2
20009f94:	461d      	mov	r5, r3
20009f96:	4606      	mov	r6, r0
20009f98:	460f      	mov	r7, r1
20009f9a:	f000 f80f 	bl	20009fbc <__divdi3>
20009f9e:	fb00 f505 	mul.w	r5, r0, r5
20009fa2:	fba0 2304 	umull	r2, r3, r0, r4
20009fa6:	fb04 5401 	mla	r4, r4, r1, r5
20009faa:	18e3      	adds	r3, r4, r3
20009fac:	1ab6      	subs	r6, r6, r2
20009fae:	eb67 0703 	sbc.w	r7, r7, r3
20009fb2:	9b06      	ldr	r3, [sp, #24]
20009fb4:	e9c3 6700 	strd	r6, r7, [r3]
20009fb8:	bdf8      	pop	{r3, r4, r5, r6, r7, pc}
20009fba:	bf00      	nop

20009fbc <__divdi3>:
20009fbc:	2900      	cmp	r1, #0
20009fbe:	e92d 4ff0 	stmdb	sp!, {r4, r5, r6, r7, r8, r9, sl, fp, lr}
20009fc2:	b085      	sub	sp, #20
20009fc4:	f2c0 80c8 	blt.w	2000a158 <__divdi3+0x19c>
20009fc8:	2600      	movs	r6, #0
20009fca:	2b00      	cmp	r3, #0
20009fcc:	f2c0 80bf 	blt.w	2000a14e <__divdi3+0x192>
20009fd0:	4689      	mov	r9, r1
20009fd2:	4614      	mov	r4, r2
20009fd4:	4605      	mov	r5, r0
20009fd6:	469b      	mov	fp, r3
20009fd8:	2b00      	cmp	r3, #0
20009fda:	d14a      	bne.n	2000a072 <__divdi3+0xb6>
20009fdc:	428a      	cmp	r2, r1
20009fde:	d957      	bls.n	2000a090 <__divdi3+0xd4>
20009fe0:	fab2 f382 	clz	r3, r2
20009fe4:	b153      	cbz	r3, 20009ffc <__divdi3+0x40>
20009fe6:	f1c3 0020 	rsb	r0, r3, #32
20009fea:	fa01 f903 	lsl.w	r9, r1, r3
20009fee:	fa25 f800 	lsr.w	r8, r5, r0
20009ff2:	fa12 f403 	lsls.w	r4, r2, r3
20009ff6:	409d      	lsls	r5, r3
20009ff8:	ea48 0909 	orr.w	r9, r8, r9
20009ffc:	0c27      	lsrs	r7, r4, #16
20009ffe:	4648      	mov	r0, r9
2000a000:	4639      	mov	r1, r7
2000a002:	fa1f fb84 	uxth.w	fp, r4
2000a006:	f7ff f9df 	bl	200093c8 <__aeabi_uidiv>
2000a00a:	4639      	mov	r1, r7
2000a00c:	4682      	mov	sl, r0
2000a00e:	4648      	mov	r0, r9
2000a010:	f7ff fb08 	bl	20009624 <__aeabi_uidivmod>
2000a014:	0c2a      	lsrs	r2, r5, #16
2000a016:	fb0b f30a 	mul.w	r3, fp, sl
2000a01a:	ea42 4901 	orr.w	r9, r2, r1, lsl #16
2000a01e:	454b      	cmp	r3, r9
2000a020:	d909      	bls.n	2000a036 <__divdi3+0x7a>
2000a022:	eb19 0904 	adds.w	r9, r9, r4
2000a026:	f10a 3aff 	add.w	sl, sl, #4294967295
2000a02a:	d204      	bcs.n	2000a036 <__divdi3+0x7a>
2000a02c:	454b      	cmp	r3, r9
2000a02e:	bf84      	itt	hi
2000a030:	f10a 3aff 	addhi.w	sl, sl, #4294967295
2000a034:	44a1      	addhi	r9, r4
2000a036:	ebc3 0909 	rsb	r9, r3, r9
2000a03a:	4639      	mov	r1, r7
2000a03c:	4648      	mov	r0, r9
2000a03e:	b2ad      	uxth	r5, r5
2000a040:	f7ff f9c2 	bl	200093c8 <__aeabi_uidiv>
2000a044:	4639      	mov	r1, r7
2000a046:	4680      	mov	r8, r0
2000a048:	4648      	mov	r0, r9
2000a04a:	f7ff faeb 	bl	20009624 <__aeabi_uidivmod>
2000a04e:	fb0b fb08 	mul.w	fp, fp, r8
2000a052:	ea45 4501 	orr.w	r5, r5, r1, lsl #16
2000a056:	45ab      	cmp	fp, r5
2000a058:	d907      	bls.n	2000a06a <__divdi3+0xae>
2000a05a:	192d      	adds	r5, r5, r4
2000a05c:	f108 38ff 	add.w	r8, r8, #4294967295
2000a060:	d203      	bcs.n	2000a06a <__divdi3+0xae>
2000a062:	45ab      	cmp	fp, r5
2000a064:	bf88      	it	hi
2000a066:	f108 38ff 	addhi.w	r8, r8, #4294967295
2000a06a:	ea48 480a 	orr.w	r8, r8, sl, lsl #16
2000a06e:	2700      	movs	r7, #0
2000a070:	e003      	b.n	2000a07a <__divdi3+0xbe>
2000a072:	428b      	cmp	r3, r1
2000a074:	d957      	bls.n	2000a126 <__divdi3+0x16a>
2000a076:	2700      	movs	r7, #0
2000a078:	46b8      	mov	r8, r7
2000a07a:	4642      	mov	r2, r8
2000a07c:	463b      	mov	r3, r7
2000a07e:	b116      	cbz	r6, 2000a086 <__divdi3+0xca>
2000a080:	4252      	negs	r2, r2
2000a082:	eb63 0343 	sbc.w	r3, r3, r3, lsl #1
2000a086:	4619      	mov	r1, r3
2000a088:	4610      	mov	r0, r2
2000a08a:	b005      	add	sp, #20
2000a08c:	e8bd 8ff0 	ldmia.w	sp!, {r4, r5, r6, r7, r8, r9, sl, fp, pc}
2000a090:	b922      	cbnz	r2, 2000a09c <__divdi3+0xe0>
2000a092:	4611      	mov	r1, r2
2000a094:	2001      	movs	r0, #1
2000a096:	f7ff f997 	bl	200093c8 <__aeabi_uidiv>
2000a09a:	4604      	mov	r4, r0
2000a09c:	fab4 f884 	clz	r8, r4
2000a0a0:	f1b8 0f00 	cmp.w	r8, #0
2000a0a4:	d15e      	bne.n	2000a164 <__divdi3+0x1a8>
2000a0a6:	ebc4 0809 	rsb	r8, r4, r9
2000a0aa:	0c27      	lsrs	r7, r4, #16
2000a0ac:	fa1f f984 	uxth.w	r9, r4
2000a0b0:	2101      	movs	r1, #1
2000a0b2:	9102      	str	r1, [sp, #8]
2000a0b4:	4639      	mov	r1, r7
2000a0b6:	4640      	mov	r0, r8
2000a0b8:	f7ff f986 	bl	200093c8 <__aeabi_uidiv>
2000a0bc:	4639      	mov	r1, r7
2000a0be:	4682      	mov	sl, r0
2000a0c0:	4640      	mov	r0, r8
2000a0c2:	f7ff faaf 	bl	20009624 <__aeabi_uidivmod>
2000a0c6:	ea4f 4815 	mov.w	r8, r5, lsr #16
2000a0ca:	fb09 f30a 	mul.w	r3, r9, sl
2000a0ce:	ea48 4b01 	orr.w	fp, r8, r1, lsl #16
2000a0d2:	455b      	cmp	r3, fp
2000a0d4:	d909      	bls.n	2000a0ea <__divdi3+0x12e>
2000a0d6:	eb1b 0b04 	adds.w	fp, fp, r4
2000a0da:	f10a 3aff 	add.w	sl, sl, #4294967295
2000a0de:	d204      	bcs.n	2000a0ea <__divdi3+0x12e>
2000a0e0:	455b      	cmp	r3, fp
2000a0e2:	bf84      	itt	hi
2000a0e4:	f10a 3aff 	addhi.w	sl, sl, #4294967295
2000a0e8:	44a3      	addhi	fp, r4
2000a0ea:	ebc3 0b0b 	rsb	fp, r3, fp
2000a0ee:	4639      	mov	r1, r7
2000a0f0:	4658      	mov	r0, fp
2000a0f2:	b2ad      	uxth	r5, r5
2000a0f4:	f7ff f968 	bl	200093c8 <__aeabi_uidiv>
2000a0f8:	4639      	mov	r1, r7
2000a0fa:	4680      	mov	r8, r0
2000a0fc:	4658      	mov	r0, fp
2000a0fe:	f7ff fa91 	bl	20009624 <__aeabi_uidivmod>
2000a102:	fb09 f908 	mul.w	r9, r9, r8
2000a106:	ea45 4501 	orr.w	r5, r5, r1, lsl #16
2000a10a:	45a9      	cmp	r9, r5
2000a10c:	d907      	bls.n	2000a11e <__divdi3+0x162>
2000a10e:	192d      	adds	r5, r5, r4
2000a110:	f108 38ff 	add.w	r8, r8, #4294967295
2000a114:	d203      	bcs.n	2000a11e <__divdi3+0x162>
2000a116:	45a9      	cmp	r9, r5
2000a118:	bf88      	it	hi
2000a11a:	f108 38ff 	addhi.w	r8, r8, #4294967295
2000a11e:	ea48 480a 	orr.w	r8, r8, sl, lsl #16
2000a122:	9f02      	ldr	r7, [sp, #8]
2000a124:	e7a9      	b.n	2000a07a <__divdi3+0xbe>
2000a126:	fab3 f783 	clz	r7, r3
2000a12a:	2f00      	cmp	r7, #0
2000a12c:	d168      	bne.n	2000a200 <__divdi3+0x244>
2000a12e:	428b      	cmp	r3, r1
2000a130:	bf2c      	ite	cs
2000a132:	f04f 0900 	movcs.w	r9, #0
2000a136:	f04f 0901 	movcc.w	r9, #1
2000a13a:	4282      	cmp	r2, r0
2000a13c:	bf8c      	ite	hi
2000a13e:	464c      	movhi	r4, r9
2000a140:	f049 0401 	orrls.w	r4, r9, #1
2000a144:	2c00      	cmp	r4, #0
2000a146:	d096      	beq.n	2000a076 <__divdi3+0xba>
2000a148:	f04f 0801 	mov.w	r8, #1
2000a14c:	e795      	b.n	2000a07a <__divdi3+0xbe>
2000a14e:	4252      	negs	r2, r2
2000a150:	eb63 0343 	sbc.w	r3, r3, r3, lsl #1
2000a154:	43f6      	mvns	r6, r6
2000a156:	e73b      	b.n	20009fd0 <__divdi3+0x14>
2000a158:	4240      	negs	r0, r0
2000a15a:	eb61 0141 	sbc.w	r1, r1, r1, lsl #1
2000a15e:	f04f 36ff 	mov.w	r6, #4294967295
2000a162:	e732      	b.n	20009fca <__divdi3+0xe>
2000a164:	fa04 f408 	lsl.w	r4, r4, r8
2000a168:	f1c8 0720 	rsb	r7, r8, #32
2000a16c:	fa35 f307 	lsrs.w	r3, r5, r7
2000a170:	fa29 fa07 	lsr.w	sl, r9, r7
2000a174:	0c27      	lsrs	r7, r4, #16
2000a176:	fa09 fb08 	lsl.w	fp, r9, r8
2000a17a:	4639      	mov	r1, r7
2000a17c:	4650      	mov	r0, sl
2000a17e:	ea43 020b 	orr.w	r2, r3, fp
2000a182:	9202      	str	r2, [sp, #8]
2000a184:	f7ff f920 	bl	200093c8 <__aeabi_uidiv>
2000a188:	4639      	mov	r1, r7
2000a18a:	fa1f f984 	uxth.w	r9, r4
2000a18e:	4683      	mov	fp, r0
2000a190:	4650      	mov	r0, sl
2000a192:	f7ff fa47 	bl	20009624 <__aeabi_uidivmod>
2000a196:	9802      	ldr	r0, [sp, #8]
2000a198:	fb09 f20b 	mul.w	r2, r9, fp
2000a19c:	0c03      	lsrs	r3, r0, #16
2000a19e:	ea43 4301 	orr.w	r3, r3, r1, lsl #16
2000a1a2:	429a      	cmp	r2, r3
2000a1a4:	d904      	bls.n	2000a1b0 <__divdi3+0x1f4>
2000a1a6:	191b      	adds	r3, r3, r4
2000a1a8:	f10b 3bff 	add.w	fp, fp, #4294967295
2000a1ac:	f0c0 80b1 	bcc.w	2000a312 <__divdi3+0x356>
2000a1b0:	1a9b      	subs	r3, r3, r2
2000a1b2:	4639      	mov	r1, r7
2000a1b4:	4618      	mov	r0, r3
2000a1b6:	9301      	str	r3, [sp, #4]
2000a1b8:	f7ff f906 	bl	200093c8 <__aeabi_uidiv>
2000a1bc:	9901      	ldr	r1, [sp, #4]
2000a1be:	4682      	mov	sl, r0
2000a1c0:	4608      	mov	r0, r1
2000a1c2:	4639      	mov	r1, r7
2000a1c4:	f7ff fa2e 	bl	20009624 <__aeabi_uidivmod>
2000a1c8:	f8dd c008 	ldr.w	ip, [sp, #8]
2000a1cc:	fb09 f30a 	mul.w	r3, r9, sl
2000a1d0:	fa1f f08c 	uxth.w	r0, ip
2000a1d4:	ea40 4201 	orr.w	r2, r0, r1, lsl #16
2000a1d8:	4293      	cmp	r3, r2
2000a1da:	d908      	bls.n	2000a1ee <__divdi3+0x232>
2000a1dc:	1912      	adds	r2, r2, r4
2000a1de:	f10a 3aff 	add.w	sl, sl, #4294967295
2000a1e2:	d204      	bcs.n	2000a1ee <__divdi3+0x232>
2000a1e4:	4293      	cmp	r3, r2
2000a1e6:	bf84      	itt	hi
2000a1e8:	f10a 3aff 	addhi.w	sl, sl, #4294967295
2000a1ec:	1912      	addhi	r2, r2, r4
2000a1ee:	fa05 f508 	lsl.w	r5, r5, r8
2000a1f2:	ea4a 4e0b 	orr.w	lr, sl, fp, lsl #16
2000a1f6:	ebc3 0802 	rsb	r8, r3, r2
2000a1fa:	f8cd e008 	str.w	lr, [sp, #8]
2000a1fe:	e759      	b.n	2000a0b4 <__divdi3+0xf8>
2000a200:	f1c7 0020 	rsb	r0, r7, #32
2000a204:	fa03 fa07 	lsl.w	sl, r3, r7
2000a208:	40c2      	lsrs	r2, r0
2000a20a:	fa35 f300 	lsrs.w	r3, r5, r0
2000a20e:	ea42 0b0a 	orr.w	fp, r2, sl
2000a212:	fa21 f800 	lsr.w	r8, r1, r0
2000a216:	fa01 f907 	lsl.w	r9, r1, r7
2000a21a:	4640      	mov	r0, r8
2000a21c:	ea4f 4a1b 	mov.w	sl, fp, lsr #16
2000a220:	ea43 0109 	orr.w	r1, r3, r9
2000a224:	9102      	str	r1, [sp, #8]
2000a226:	4651      	mov	r1, sl
2000a228:	fa1f f28b 	uxth.w	r2, fp
2000a22c:	9203      	str	r2, [sp, #12]
2000a22e:	f7ff f8cb 	bl	200093c8 <__aeabi_uidiv>
2000a232:	4651      	mov	r1, sl
2000a234:	4681      	mov	r9, r0
2000a236:	4640      	mov	r0, r8
2000a238:	f7ff f9f4 	bl	20009624 <__aeabi_uidivmod>
2000a23c:	9b03      	ldr	r3, [sp, #12]
2000a23e:	f8dd c008 	ldr.w	ip, [sp, #8]
2000a242:	fb03 f209 	mul.w	r2, r3, r9
2000a246:	ea4f 401c 	mov.w	r0, ip, lsr #16
2000a24a:	fa14 f307 	lsls.w	r3, r4, r7
2000a24e:	ea40 4401 	orr.w	r4, r0, r1, lsl #16
2000a252:	42a2      	cmp	r2, r4
2000a254:	d904      	bls.n	2000a260 <__divdi3+0x2a4>
2000a256:	eb14 040b 	adds.w	r4, r4, fp
2000a25a:	f109 39ff 	add.w	r9, r9, #4294967295
2000a25e:	d352      	bcc.n	2000a306 <__divdi3+0x34a>
2000a260:	1aa4      	subs	r4, r4, r2
2000a262:	4651      	mov	r1, sl
2000a264:	4620      	mov	r0, r4
2000a266:	9301      	str	r3, [sp, #4]
2000a268:	f7ff f8ae 	bl	200093c8 <__aeabi_uidiv>
2000a26c:	4651      	mov	r1, sl
2000a26e:	4680      	mov	r8, r0
2000a270:	4620      	mov	r0, r4
2000a272:	f7ff f9d7 	bl	20009624 <__aeabi_uidivmod>
2000a276:	9803      	ldr	r0, [sp, #12]
2000a278:	f8dd c008 	ldr.w	ip, [sp, #8]
2000a27c:	fb00 f208 	mul.w	r2, r0, r8
2000a280:	fa1f f38c 	uxth.w	r3, ip
2000a284:	ea43 4001 	orr.w	r0, r3, r1, lsl #16
2000a288:	9b01      	ldr	r3, [sp, #4]
2000a28a:	4282      	cmp	r2, r0
2000a28c:	d904      	bls.n	2000a298 <__divdi3+0x2dc>
2000a28e:	eb10 000b 	adds.w	r0, r0, fp
2000a292:	f108 38ff 	add.w	r8, r8, #4294967295
2000a296:	d330      	bcc.n	2000a2fa <__divdi3+0x33e>
2000a298:	ea48 4809 	orr.w	r8, r8, r9, lsl #16
2000a29c:	fa1f fc83 	uxth.w	ip, r3
2000a2a0:	0c1b      	lsrs	r3, r3, #16
2000a2a2:	1a80      	subs	r0, r0, r2
2000a2a4:	fa1f fe88 	uxth.w	lr, r8
2000a2a8:	ea4f 4a18 	mov.w	sl, r8, lsr #16
2000a2ac:	fb0c f90e 	mul.w	r9, ip, lr
2000a2b0:	fb0c fc0a 	mul.w	ip, ip, sl
2000a2b4:	fb03 c10e 	mla	r1, r3, lr, ip
2000a2b8:	fb03 f20a 	mul.w	r2, r3, sl
2000a2bc:	eb01 4119 	add.w	r1, r1, r9, lsr #16
2000a2c0:	458c      	cmp	ip, r1
2000a2c2:	bf88      	it	hi
2000a2c4:	f502 3280 	addhi.w	r2, r2, #65536	; 0x10000
2000a2c8:	eb02 4e11 	add.w	lr, r2, r1, lsr #16
2000a2cc:	4570      	cmp	r0, lr
2000a2ce:	d310      	bcc.n	2000a2f2 <__divdi3+0x336>
2000a2d0:	fa1f f989 	uxth.w	r9, r9
2000a2d4:	fa05 f707 	lsl.w	r7, r5, r7
2000a2d8:	eb09 4001 	add.w	r0, r9, r1, lsl #16
2000a2dc:	bf14      	ite	ne
2000a2de:	2200      	movne	r2, #0
2000a2e0:	2201      	moveq	r2, #1
2000a2e2:	4287      	cmp	r7, r0
2000a2e4:	bf2c      	ite	cs
2000a2e6:	2700      	movcs	r7, #0
2000a2e8:	f002 0701 	andcc.w	r7, r2, #1
2000a2ec:	2f00      	cmp	r7, #0
2000a2ee:	f43f aec4 	beq.w	2000a07a <__divdi3+0xbe>
2000a2f2:	f108 38ff 	add.w	r8, r8, #4294967295
2000a2f6:	2700      	movs	r7, #0
2000a2f8:	e6bf      	b.n	2000a07a <__divdi3+0xbe>
2000a2fa:	4282      	cmp	r2, r0
2000a2fc:	bf84      	itt	hi
2000a2fe:	4458      	addhi	r0, fp
2000a300:	f108 38ff 	addhi.w	r8, r8, #4294967295
2000a304:	e7c8      	b.n	2000a298 <__divdi3+0x2dc>
2000a306:	42a2      	cmp	r2, r4
2000a308:	bf84      	itt	hi
2000a30a:	f109 39ff 	addhi.w	r9, r9, #4294967295
2000a30e:	445c      	addhi	r4, fp
2000a310:	e7a6      	b.n	2000a260 <__divdi3+0x2a4>
2000a312:	429a      	cmp	r2, r3
2000a314:	bf84      	itt	hi
2000a316:	f10b 3bff 	addhi.w	fp, fp, #4294967295
2000a31a:	191b      	addhi	r3, r3, r4
2000a31c:	e748      	b.n	2000a1b0 <__divdi3+0x1f4>
2000a31e:	bf00      	nop

2000a320 <__udivdi3>:
2000a320:	e92d 4ff0 	stmdb	sp!, {r4, r5, r6, r7, r8, r9, sl, fp, lr}
2000a324:	460c      	mov	r4, r1
2000a326:	b083      	sub	sp, #12
2000a328:	4680      	mov	r8, r0
2000a32a:	4616      	mov	r6, r2
2000a32c:	4689      	mov	r9, r1
2000a32e:	461f      	mov	r7, r3
2000a330:	4615      	mov	r5, r2
2000a332:	468a      	mov	sl, r1
2000a334:	2b00      	cmp	r3, #0
2000a336:	d14b      	bne.n	2000a3d0 <__udivdi3+0xb0>
2000a338:	428a      	cmp	r2, r1
2000a33a:	d95c      	bls.n	2000a3f6 <__udivdi3+0xd6>
2000a33c:	fab2 f382 	clz	r3, r2
2000a340:	b15b      	cbz	r3, 2000a35a <__udivdi3+0x3a>
2000a342:	f1c3 0020 	rsb	r0, r3, #32
2000a346:	fa01 fa03 	lsl.w	sl, r1, r3
2000a34a:	fa28 f200 	lsr.w	r2, r8, r0
2000a34e:	fa16 f503 	lsls.w	r5, r6, r3
2000a352:	fa08 f803 	lsl.w	r8, r8, r3
2000a356:	ea42 0a0a 	orr.w	sl, r2, sl
2000a35a:	0c2e      	lsrs	r6, r5, #16
2000a35c:	4650      	mov	r0, sl
2000a35e:	4631      	mov	r1, r6
2000a360:	b2af      	uxth	r7, r5
2000a362:	f7ff f831 	bl	200093c8 <__aeabi_uidiv>
2000a366:	4631      	mov	r1, r6
2000a368:	ea4f 4418 	mov.w	r4, r8, lsr #16
2000a36c:	4681      	mov	r9, r0
2000a36e:	4650      	mov	r0, sl
2000a370:	f7ff f958 	bl	20009624 <__aeabi_uidivmod>
2000a374:	fb07 f309 	mul.w	r3, r7, r9
2000a378:	ea44 4a01 	orr.w	sl, r4, r1, lsl #16
2000a37c:	4553      	cmp	r3, sl
2000a37e:	d909      	bls.n	2000a394 <__udivdi3+0x74>
2000a380:	eb1a 0a05 	adds.w	sl, sl, r5
2000a384:	f109 39ff 	add.w	r9, r9, #4294967295
2000a388:	d204      	bcs.n	2000a394 <__udivdi3+0x74>
2000a38a:	4553      	cmp	r3, sl
2000a38c:	bf84      	itt	hi
2000a38e:	f109 39ff 	addhi.w	r9, r9, #4294967295
2000a392:	44aa      	addhi	sl, r5
2000a394:	ebc3 0a0a 	rsb	sl, r3, sl
2000a398:	4631      	mov	r1, r6
2000a39a:	4650      	mov	r0, sl
2000a39c:	fa1f f888 	uxth.w	r8, r8
2000a3a0:	f7ff f812 	bl	200093c8 <__aeabi_uidiv>
2000a3a4:	4631      	mov	r1, r6
2000a3a6:	4604      	mov	r4, r0
2000a3a8:	4650      	mov	r0, sl
2000a3aa:	f7ff f93b 	bl	20009624 <__aeabi_uidivmod>
2000a3ae:	fb07 f704 	mul.w	r7, r7, r4
2000a3b2:	ea48 4801 	orr.w	r8, r8, r1, lsl #16
2000a3b6:	4547      	cmp	r7, r8
2000a3b8:	d906      	bls.n	2000a3c8 <__udivdi3+0xa8>
2000a3ba:	3c01      	subs	r4, #1
2000a3bc:	eb18 0805 	adds.w	r8, r8, r5
2000a3c0:	d202      	bcs.n	2000a3c8 <__udivdi3+0xa8>
2000a3c2:	4547      	cmp	r7, r8
2000a3c4:	bf88      	it	hi
2000a3c6:	3c01      	subhi	r4, #1
2000a3c8:	ea44 4409 	orr.w	r4, r4, r9, lsl #16
2000a3cc:	2600      	movs	r6, #0
2000a3ce:	e05c      	b.n	2000a48a <__udivdi3+0x16a>
2000a3d0:	428b      	cmp	r3, r1
2000a3d2:	d858      	bhi.n	2000a486 <__udivdi3+0x166>
2000a3d4:	fab3 f683 	clz	r6, r3
2000a3d8:	2e00      	cmp	r6, #0
2000a3da:	d15b      	bne.n	2000a494 <__udivdi3+0x174>
2000a3dc:	428b      	cmp	r3, r1
2000a3de:	bf2c      	ite	cs
2000a3e0:	2200      	movcs	r2, #0
2000a3e2:	2201      	movcc	r2, #1
2000a3e4:	4285      	cmp	r5, r0
2000a3e6:	bf8c      	ite	hi
2000a3e8:	4615      	movhi	r5, r2
2000a3ea:	f042 0501 	orrls.w	r5, r2, #1
2000a3ee:	2d00      	cmp	r5, #0
2000a3f0:	d049      	beq.n	2000a486 <__udivdi3+0x166>
2000a3f2:	2401      	movs	r4, #1
2000a3f4:	e049      	b.n	2000a48a <__udivdi3+0x16a>
2000a3f6:	b922      	cbnz	r2, 2000a402 <__udivdi3+0xe2>
2000a3f8:	4611      	mov	r1, r2
2000a3fa:	2001      	movs	r0, #1
2000a3fc:	f7fe ffe4 	bl	200093c8 <__aeabi_uidiv>
2000a400:	4605      	mov	r5, r0
2000a402:	fab5 f685 	clz	r6, r5
2000a406:	2e00      	cmp	r6, #0
2000a408:	f040 80ba 	bne.w	2000a580 <__udivdi3+0x260>
2000a40c:	1b64      	subs	r4, r4, r5
2000a40e:	0c2f      	lsrs	r7, r5, #16
2000a410:	fa1f fa85 	uxth.w	sl, r5
2000a414:	2601      	movs	r6, #1
2000a416:	4639      	mov	r1, r7
2000a418:	4620      	mov	r0, r4
2000a41a:	f7fe ffd5 	bl	200093c8 <__aeabi_uidiv>
2000a41e:	4639      	mov	r1, r7
2000a420:	ea4f 4b18 	mov.w	fp, r8, lsr #16
2000a424:	4681      	mov	r9, r0
2000a426:	4620      	mov	r0, r4
2000a428:	f7ff f8fc 	bl	20009624 <__aeabi_uidivmod>
2000a42c:	fb0a f309 	mul.w	r3, sl, r9
2000a430:	ea4b 4b01 	orr.w	fp, fp, r1, lsl #16
2000a434:	455b      	cmp	r3, fp
2000a436:	d909      	bls.n	2000a44c <__udivdi3+0x12c>
2000a438:	eb1b 0b05 	adds.w	fp, fp, r5
2000a43c:	f109 39ff 	add.w	r9, r9, #4294967295
2000a440:	d204      	bcs.n	2000a44c <__udivdi3+0x12c>
2000a442:	455b      	cmp	r3, fp
2000a444:	bf84      	itt	hi
2000a446:	f109 39ff 	addhi.w	r9, r9, #4294967295
2000a44a:	44ab      	addhi	fp, r5
2000a44c:	ebc3 0b0b 	rsb	fp, r3, fp
2000a450:	4639      	mov	r1, r7
2000a452:	4658      	mov	r0, fp
2000a454:	fa1f f888 	uxth.w	r8, r8
2000a458:	f7fe ffb6 	bl	200093c8 <__aeabi_uidiv>
2000a45c:	4639      	mov	r1, r7
2000a45e:	4604      	mov	r4, r0
2000a460:	4658      	mov	r0, fp
2000a462:	f7ff f8df 	bl	20009624 <__aeabi_uidivmod>
2000a466:	fb0a fa04 	mul.w	sl, sl, r4
2000a46a:	ea48 4801 	orr.w	r8, r8, r1, lsl #16
2000a46e:	45c2      	cmp	sl, r8
2000a470:	d906      	bls.n	2000a480 <__udivdi3+0x160>
2000a472:	3c01      	subs	r4, #1
2000a474:	eb18 0805 	adds.w	r8, r8, r5
2000a478:	d202      	bcs.n	2000a480 <__udivdi3+0x160>
2000a47a:	45c2      	cmp	sl, r8
2000a47c:	bf88      	it	hi
2000a47e:	3c01      	subhi	r4, #1
2000a480:	ea44 4409 	orr.w	r4, r4, r9, lsl #16
2000a484:	e001      	b.n	2000a48a <__udivdi3+0x16a>
2000a486:	2600      	movs	r6, #0
2000a488:	4634      	mov	r4, r6
2000a48a:	4631      	mov	r1, r6
2000a48c:	4620      	mov	r0, r4
2000a48e:	b003      	add	sp, #12
2000a490:	e8bd 8ff0 	ldmia.w	sp!, {r4, r5, r6, r7, r8, r9, sl, fp, pc}
2000a494:	f1c6 0020 	rsb	r0, r6, #32
2000a498:	40b3      	lsls	r3, r6
2000a49a:	fa32 f700 	lsrs.w	r7, r2, r0
2000a49e:	fa21 fb00 	lsr.w	fp, r1, r0
2000a4a2:	431f      	orrs	r7, r3
2000a4a4:	fa14 f206 	lsls.w	r2, r4, r6
2000a4a8:	fa28 f100 	lsr.w	r1, r8, r0
2000a4ac:	4658      	mov	r0, fp
2000a4ae:	ea4f 4a17 	mov.w	sl, r7, lsr #16
2000a4b2:	4311      	orrs	r1, r2
2000a4b4:	9100      	str	r1, [sp, #0]
2000a4b6:	4651      	mov	r1, sl
2000a4b8:	b2bb      	uxth	r3, r7
2000a4ba:	9301      	str	r3, [sp, #4]
2000a4bc:	f7fe ff84 	bl	200093c8 <__aeabi_uidiv>
2000a4c0:	4651      	mov	r1, sl
2000a4c2:	40b5      	lsls	r5, r6
2000a4c4:	4681      	mov	r9, r0
2000a4c6:	4658      	mov	r0, fp
2000a4c8:	f7ff f8ac 	bl	20009624 <__aeabi_uidivmod>
2000a4cc:	9c01      	ldr	r4, [sp, #4]
2000a4ce:	9800      	ldr	r0, [sp, #0]
2000a4d0:	fb04 f309 	mul.w	r3, r4, r9
2000a4d4:	ea4f 4c10 	mov.w	ip, r0, lsr #16
2000a4d8:	ea4c 4b01 	orr.w	fp, ip, r1, lsl #16
2000a4dc:	455b      	cmp	r3, fp
2000a4de:	d905      	bls.n	2000a4ec <__udivdi3+0x1cc>
2000a4e0:	eb1b 0b07 	adds.w	fp, fp, r7
2000a4e4:	f109 39ff 	add.w	r9, r9, #4294967295
2000a4e8:	f0c0 808e 	bcc.w	2000a608 <__udivdi3+0x2e8>
2000a4ec:	ebc3 0b0b 	rsb	fp, r3, fp
2000a4f0:	4651      	mov	r1, sl
2000a4f2:	4658      	mov	r0, fp
2000a4f4:	f7fe ff68 	bl	200093c8 <__aeabi_uidiv>
2000a4f8:	4651      	mov	r1, sl
2000a4fa:	4604      	mov	r4, r0
2000a4fc:	4658      	mov	r0, fp
2000a4fe:	f7ff f891 	bl	20009624 <__aeabi_uidivmod>
2000a502:	9801      	ldr	r0, [sp, #4]
2000a504:	9a00      	ldr	r2, [sp, #0]
2000a506:	fb00 f304 	mul.w	r3, r0, r4
2000a50a:	fa1f fc82 	uxth.w	ip, r2
2000a50e:	ea4c 4201 	orr.w	r2, ip, r1, lsl #16
2000a512:	4293      	cmp	r3, r2
2000a514:	d906      	bls.n	2000a524 <__udivdi3+0x204>
2000a516:	3c01      	subs	r4, #1
2000a518:	19d2      	adds	r2, r2, r7
2000a51a:	d203      	bcs.n	2000a524 <__udivdi3+0x204>
2000a51c:	4293      	cmp	r3, r2
2000a51e:	d901      	bls.n	2000a524 <__udivdi3+0x204>
2000a520:	19d2      	adds	r2, r2, r7
2000a522:	3c01      	subs	r4, #1
2000a524:	ea44 4409 	orr.w	r4, r4, r9, lsl #16
2000a528:	b2a8      	uxth	r0, r5
2000a52a:	1ad2      	subs	r2, r2, r3
2000a52c:	0c2d      	lsrs	r5, r5, #16
2000a52e:	fa1f fc84 	uxth.w	ip, r4
2000a532:	0c23      	lsrs	r3, r4, #16
2000a534:	fb00 f70c 	mul.w	r7, r0, ip
2000a538:	fb00 fe03 	mul.w	lr, r0, r3
2000a53c:	fb05 e10c 	mla	r1, r5, ip, lr
2000a540:	fb05 f503 	mul.w	r5, r5, r3
2000a544:	eb01 4117 	add.w	r1, r1, r7, lsr #16
2000a548:	458e      	cmp	lr, r1
2000a54a:	bf88      	it	hi
2000a54c:	f505 3580 	addhi.w	r5, r5, #65536	; 0x10000
2000a550:	eb05 4511 	add.w	r5, r5, r1, lsr #16
2000a554:	42aa      	cmp	r2, r5
2000a556:	d310      	bcc.n	2000a57a <__udivdi3+0x25a>
2000a558:	b2bf      	uxth	r7, r7
2000a55a:	fa08 f606 	lsl.w	r6, r8, r6
2000a55e:	eb07 4201 	add.w	r2, r7, r1, lsl #16
2000a562:	bf14      	ite	ne
2000a564:	f04f 0e00 	movne.w	lr, #0
2000a568:	f04f 0e01 	moveq.w	lr, #1
2000a56c:	4296      	cmp	r6, r2
2000a56e:	bf2c      	ite	cs
2000a570:	2600      	movcs	r6, #0
2000a572:	f00e 0601 	andcc.w	r6, lr, #1
2000a576:	2e00      	cmp	r6, #0
2000a578:	d087      	beq.n	2000a48a <__udivdi3+0x16a>
2000a57a:	3c01      	subs	r4, #1
2000a57c:	2600      	movs	r6, #0
2000a57e:	e784      	b.n	2000a48a <__udivdi3+0x16a>
2000a580:	40b5      	lsls	r5, r6
2000a582:	f1c6 0120 	rsb	r1, r6, #32
2000a586:	fa24 f901 	lsr.w	r9, r4, r1
2000a58a:	fa28 f201 	lsr.w	r2, r8, r1
2000a58e:	0c2f      	lsrs	r7, r5, #16
2000a590:	40b4      	lsls	r4, r6
2000a592:	4639      	mov	r1, r7
2000a594:	4648      	mov	r0, r9
2000a596:	4322      	orrs	r2, r4
2000a598:	9200      	str	r2, [sp, #0]
2000a59a:	f7fe ff15 	bl	200093c8 <__aeabi_uidiv>
2000a59e:	4639      	mov	r1, r7
2000a5a0:	fa1f fa85 	uxth.w	sl, r5
2000a5a4:	4683      	mov	fp, r0
2000a5a6:	4648      	mov	r0, r9
2000a5a8:	f7ff f83c 	bl	20009624 <__aeabi_uidivmod>
2000a5ac:	9b00      	ldr	r3, [sp, #0]
2000a5ae:	0c1a      	lsrs	r2, r3, #16
2000a5b0:	fb0a f30b 	mul.w	r3, sl, fp
2000a5b4:	ea42 4401 	orr.w	r4, r2, r1, lsl #16
2000a5b8:	42a3      	cmp	r3, r4
2000a5ba:	d903      	bls.n	2000a5c4 <__udivdi3+0x2a4>
2000a5bc:	1964      	adds	r4, r4, r5
2000a5be:	f10b 3bff 	add.w	fp, fp, #4294967295
2000a5c2:	d327      	bcc.n	2000a614 <__udivdi3+0x2f4>
2000a5c4:	1ae4      	subs	r4, r4, r3
2000a5c6:	4639      	mov	r1, r7
2000a5c8:	4620      	mov	r0, r4
2000a5ca:	f7fe fefd 	bl	200093c8 <__aeabi_uidiv>
2000a5ce:	4639      	mov	r1, r7
2000a5d0:	4681      	mov	r9, r0
2000a5d2:	4620      	mov	r0, r4
2000a5d4:	f7ff f826 	bl	20009624 <__aeabi_uidivmod>
2000a5d8:	9800      	ldr	r0, [sp, #0]
2000a5da:	fb0a f309 	mul.w	r3, sl, r9
2000a5de:	fa1f fc80 	uxth.w	ip, r0
2000a5e2:	ea4c 4401 	orr.w	r4, ip, r1, lsl #16
2000a5e6:	42a3      	cmp	r3, r4
2000a5e8:	d908      	bls.n	2000a5fc <__udivdi3+0x2dc>
2000a5ea:	1964      	adds	r4, r4, r5
2000a5ec:	f109 39ff 	add.w	r9, r9, #4294967295
2000a5f0:	d204      	bcs.n	2000a5fc <__udivdi3+0x2dc>
2000a5f2:	42a3      	cmp	r3, r4
2000a5f4:	bf84      	itt	hi
2000a5f6:	f109 39ff 	addhi.w	r9, r9, #4294967295
2000a5fa:	1964      	addhi	r4, r4, r5
2000a5fc:	fa08 f806 	lsl.w	r8, r8, r6
2000a600:	1ae4      	subs	r4, r4, r3
2000a602:	ea49 460b 	orr.w	r6, r9, fp, lsl #16
2000a606:	e706      	b.n	2000a416 <__udivdi3+0xf6>
2000a608:	455b      	cmp	r3, fp
2000a60a:	bf84      	itt	hi
2000a60c:	f109 39ff 	addhi.w	r9, r9, #4294967295
2000a610:	44bb      	addhi	fp, r7
2000a612:	e76b      	b.n	2000a4ec <__udivdi3+0x1cc>
2000a614:	42a3      	cmp	r3, r4
2000a616:	bf84      	itt	hi
2000a618:	f10b 3bff 	addhi.w	fp, fp, #4294967295
2000a61c:	1964      	addhi	r4, r4, r5
2000a61e:	e7d1      	b.n	2000a5c4 <__udivdi3+0x2a4>

2000a620 <font>:
2000a620:	0000 0000 3e00 4f5b 3e5b 6b3e 6b4f 1c3e     .....>[O[>>kOk>.
2000a630:	7c3e 1c3e 3c18 3c7e 1c18 7d57 1c57 5e1c     >|>..<~<..W}W..^
2000a640:	5e7f 001c 3c18 0018 e7ff e7c3 00ff 2418     .^...<.........$
2000a650:	0018 e7ff e7db 30ff 3a48 0e06 2926 2979     .......0H:..&)y)
2000a660:	4026 057f 0705 7f40 2505 5a3f e73c 5a3c     &@....@..%?Z<.<Z
2000a670:	3e7f 1c1c 0808 1c1c 7f3e 2214 227f 5f14     .>......>.."."._
2000a680:	005f 5f5f 0906 017f 007f 8966 6a95 6060     _.__......f..j``
2000a690:	6060 9460 ffa2 94a2 0408 047e 1008 7e20     ```.......~... ~
2000a6a0:	1020 0808 1c2a 0808 2a1c 0808 101e 1010      ...*....*......
2000a6b0:	0c10 0c1e 0c1e 3830 383e 0630 3e0e 060e     ......08>80..>..
2000a6c0:	0000 0000 0000 5f00 0000 0700 0700 1400     ......._........
2000a6d0:	147f 147f 2a24 2a7f 2312 0813 6264 4936     ....$*.*.#..db6I
2000a6e0:	2056 0050 0708 0003 1c00 4122 0000 2241     V P......."A..A"
2000a6f0:	001c 1c2a 1c7f 082a 3e08 0808 8000 3070     ..*...*..>....p0
2000a700:	0800 0808 0808 0000 6060 2000 0810 0204     ........``. ....
2000a710:	513e 4549 003e 7f42 0040 4972 4949 2146     >QIE>.B.@.rIIIF!
2000a720:	4941 334d 1418 7f12 2710 4545 3945 4a3c     AIM3.....'EEE9<J
2000a730:	4949 4131 1121 0709 4936 4949 4636 4949     II1A!...6III6FII
2000a740:	1e29 0000 0014 0000 3440 0000 0800 2214     ).......@4....."
2000a750:	1441 1414 1414 4100 1422 0208 5901 0609     A......A"....Y..
2000a760:	413e 595d 7c4e 1112 7c12 497f 4949 3e36     >A]YN|...|.III6>
2000a770:	4141 2241 417f 4141 7f3e 4949 4149 097f     AAA".AAA>.IIIA..
2000a780:	0909 3e01 4141 7351 087f 0808 007f 7f41     ...>AAQs......A.
2000a790:	0041 4020 3f41 7f01 1408 4122 407f 4040     A. @A?...."A.@@@
2000a7a0:	7f40 1c02 7f02 047f 1008 3e7f 4141 3e41     @..........>AAA>
2000a7b0:	097f 0909 3e06 5141 5e21 097f 2919 2646     .....>AQ!^...)F&
2000a7c0:	4949 3249 0103 017f 3f03 4040 3f40 201f     III2.....?@@@?. 
2000a7d0:	2040 3f1f 3840 3f40 1463 1408 0363 7804     @ .?@8@?c...c..x
2000a7e0:	0304 5961 4d49 0043 417f 4141 0402 1008     ..aYIMC..AAA....
2000a7f0:	0020 4141 7f41 0204 0201 4004 4040 4040      .AAA......@@@@@
2000a800:	0300 0807 2000 5454 4078 287f 4444 3838     ..... TTx@.(DD88
2000a810:	4444 2844 4438 2844 387f 5454 1854 0800     DDD(8DD(.8TTT...
2000a820:	097e 1802 a4a4 789c 087f 0404 0078 7d44     ~......x....x.D}
2000a830:	0040 4020 3d40 7f00 2810 0044 4100 407f     @. @@=...(D..A.@
2000a840:	7c00 7804 7804 087c 0404 3878 4444 3844     .|.x.x|...x8DDD8
2000a850:	18fc 2424 1818 2424 fc18 087c 0404 4808     ..$$..$$..|....H
2000a860:	5454 2454 0404 443f 3c24 4040 7c20 201c     TTT$..?D$<@@ |. 
2000a870:	2040 3c1c 3040 3c40 2844 2810 4c44 9090     @ .<@0@<D(.(DL..
2000a880:	7c90 6444 4c54 0044 3608 0041 0000 0077     .|DdTLD..6A...w.
2000a890:	0000 3641 0008 0102 0402 3c02 2326 3c26     ..A6.......<&#&<
2000a8a0:	a11e 61a1 3a12 4040 7a20 5438 5554 2159     ...a.:@@ z8TTUY!
2000a8b0:	5555 4179 5422 7854 2142 5455 4078 5420     UUyA"TTxB!UTx@ T
2000a8c0:	7955 0c40 521e 1272 5539 5555 3959 5454     Uy@..Rr.9UUUY9TT
2000a8d0:	5954 5539 5454 0058 4500 417c 0200 7d45     TY9UTTX..E|A..E}
2000a8e0:	0042 4501 407c 127d 1211 f07d 2528 f028     B..E|@}...}.(%(.
2000a8f0:	547c 4555 2000 5454 547c 0a7c 7f09 3249     |TUE. TT|T|...I2
2000a900:	4949 3249 443a 4444 323a 484a 3048 413a     III2:DDD:2JHH0:A
2000a910:	2141 3a7a 4042 7820 9d00 a0a0 3d7d 4242     A!z:B@ x....}=BB
2000a920:	3d42 403d 4040 3c3d ff24 2424 7e48 4349     B==@@@=<$.$$H~IC
2000a930:	2b66 fc2f 2b2f 09ff f629 c020 7e88 0309     f+/./+..). ..~..
2000a940:	5420 7954 0041 4400 417d 4830 4a48 3832      TTyA..D}A0HHJ28
2000a950:	4040 7a22 7a00 0a0a 7d72 190d 7d31 2926     @@"z.z..r}..1}&)
2000a960:	2f29 2628 2929 2629 4830 404d 3820 0808     )/(&)))&0HM@ 8..
2000a970:	0808 0808 0808 2f38 c810 baac 102f 3428     ......8/..../.(4
2000a980:	00fa 7b00 0000 1408 142a 2222 2a14 0814     ...{....*."".*..
2000a990:	0055 0055 aa55 aa55 aa55 55ff 55ff 00ff     U.U.U.U.U..U.U..
2000a9a0:	0000 00ff 1010 ff10 1400 1414 00ff 1010     ................
2000a9b0:	00ff 10ff f010 f010 1414 fc14 1400 f714     ................
2000a9c0:	ff00 0000 00ff 14ff f414 fc04 1414 1017     ................
2000a9d0:	101f 1f10 1f10 1414 1f14 1000 1010 00f0     ................
2000a9e0:	0000 1f00 1010 1010 101f 1010 f010 0010     ................
2000a9f0:	0000 10ff 1010 1010 1010 1010 10ff 0000     ................
2000aa00:	ff00 0014 ff00 ff00 0000 101f 0017 fc00     ................
2000aa10:	f404 1414 1017 1417 f414 f404 0000 00ff     ................
2000aa20:	14f7 1414 1414 1414 00f7 14f7 1414 1417     ................
2000aa30:	1010 101f 141f 1414 14f4 1010 10f0 00f0     ................
2000aa40:	1f00 1f10 0000 1f00 0014 0000 14fc 0000     ................
2000aa50:	10f0 10f0 ff10 ff10 1414 ff14 1014 1010     ................
2000aa60:	001f 0000 f000 ff10 ffff ffff f0f0 f0f0     ................
2000aa70:	fff0 ffff 0000 0000 ff00 0fff 0f0f 0f0f     ................
2000aa80:	4438 3844 fc44 4a4a 344a 027e 0602 0206     8DD8D.JJJ4~.....
2000aa90:	027e 027e 5563 4149 3863 4444 043c 7e40     ~.~.cUIAc8DD<.@~
2000aaa0:	1e20 0620 7e02 0202 a599 a5e7 1c99 492a      . ..~........*I
2000aab0:	1c2a 724c 7201 304c 4d4a 304d 4830 4878     *.Lr.rL0JMM00HxH
2000aac0:	bc30 5a62 3d46 493e 4949 7e00 0101 7e01     0.bZF=>III.~...~
2000aad0:	2a2a 2a2a 442a 5f44 4444 5140 444a 4040     *****DD_DD@QJD@@
2000aae0:	4a44 4051 0000 01ff e003 ff80 0000 0808     DJQ@............
2000aaf0:	6b6b 3608 3612 3624 0f06 0f09 0006 1800     kk.6.6$6........
2000ab00:	0018 0000 1010 3000 ff40 0101 1f00 0101     .......0@.......
2000ab10:	001e 1d19 1217 3c00 3c3c 003c 0000 0000     .......<<<<.....
2000ab20:	4552 2044 5542 5454 4e4f 4820 5449 0d0a     RED BUTTON HIT..
2000ab30:	0000 0000 5247 4545 204e 5542 5454 4e4f     ....GREEN BUTTON
2000ab40:	4820 5449 0d0a 0000 494c 454e 4220 5455      HIT....LINE BUT
2000ab50:	4f54 204e 4948 0a54 000d 0000 364e 2034     TON HIT.....N64 
2000ab60:	5542 5454 4e4f 4820 5449 0d0a 0000 0000     BUTTON HIT......
2000ab70:	6548 7061 6120 646e 7320 6174 6b63 6320     Heap and stack c
2000ab80:	6c6f 696c 6973 6e6f 000a 0000               ollision....

2000ab8c <C.18.2576>:
2000ab8c:	0001 0000 0002 0000 0004 0000 0001 0000     ................

2000ab9c <_global_impure_ptr>:
2000ab9c:	ae30 2000 0043 0000                         0.. C...

2000aba4 <blanks.3577>:
2000aba4:	2020 2020 2020 2020 2020 2020 2020 2020                     

2000abb4 <zeroes.3578>:
2000abb4:	3030 3030 3030 3030 3030 3030 3030 3030     0000000000000000
2000abc4:	3130 3332 3534 3736 3938 4241 4443 4645     0123456789ABCDEF
2000abd4:	0000 0000 4e49 0046 6e69 0066 414e 004e     ....INF.inf.NAN.
2000abe4:	616e 006e 3130 3332 3534 3736 3938 6261     nan.0123456789ab
2000abf4:	6463 6665 0000 0000 6e28 6c75 296c 0000     cdef....(null)..
2000ac04:	0030 0000 6e49 6966 696e 7974 0000 0000     0...Infinity....
2000ac14:	614e 004e                                   NaN.

2000ac18 <__sf_fake_stdin>:
	...

2000ac38 <__sf_fake_stdout>:
	...

2000ac58 <__sf_fake_stderr>:
	...

2000ac78 <charset>:
2000ac78:	acb0 2000                                   ... 

2000ac7c <lconv>:
2000ac7c:	acac 2000 abd4 2000 abd4 2000 abd4 2000     ... ... ... ... 
2000ac8c:	abd4 2000 abd4 2000 abd4 2000 abd4 2000     ... ... ... ... 
2000ac9c:	abd4 2000 abd4 2000 ffff ffff ffff ffff     ... ... ........
2000acac:	002e 0000 5349 2d4f 3838 3935 312d 0000     ....ISO-8859-1..
2000acbc:	0000 0000                                   ....

2000acc0 <__mprec_tens>:
2000acc0:	0000 0000 0000 3ff0 0000 0000 0000 4024     .......?......$@
2000acd0:	0000 0000 0000 4059 0000 0000 4000 408f     ......Y@.....@.@
2000ace0:	0000 0000 8800 40c3 0000 0000 6a00 40f8     .......@.....j.@
2000acf0:	0000 0000 8480 412e 0000 0000 12d0 4163     .......A......cA
2000ad00:	0000 0000 d784 4197 0000 0000 cd65 41cd     .......A....e..A
2000ad10:	0000 2000 a05f 4202 0000 e800 4876 4237     ... _..B....vH7B
2000ad20:	0000 a200 1a94 426d 0000 e540 309c 42a2     ......mB..@..0.B
2000ad30:	0000 1e90 bcc4 42d6 0000 2634 6bf5 430c     .......B..4&.k.C
2000ad40:	8000 37e0 c379 4341 a000 85d8 3457 4376     ...7y.AC....W4vC
2000ad50:	c800 674e c16d 43ab 3d00 6091 58e4 43e1     ..Ngm..C.=.`.X.C
2000ad60:	8c40 78b5 af1d 4415 ef50 d6e2 1ae4 444b     @..x...DP.....KD
2000ad70:	d592 064d f0cf 4480 4af6 c7e1 2d02 44b5     ..M....D.J...-.D
2000ad80:	9db4 79d9 7843 44ea                         ...yCx.D

2000ad88 <p05.2463>:
2000ad88:	0005 0000 0019 0000 007d 0000 0000 0000     ........}.......

2000ad98 <__mprec_bigtens>:
2000ad98:	8000 37e0 c379 4341 6e17 b505 b8b5 4693     ...7y.AC.n.....F
2000ada8:	f9f5 e93f 4f03 4d38 1d32 f930 7748 5a82     ..?..O8M2.0.Hw.Z
2000adb8:	bf3c 7f73 4fdd 7515                         <.s..O.u

2000adc0 <__mprec_tinytens>:
2000adc0:	89bc 97d8 d2b2 3c9c a733 d5a8 f623 3949     .......<3...#.I9
2000add0:	a73d 44f4 0ffd 32a5 979d cf8c ba08 255b     =..D...2......[%
2000ade0:	6f43 64ac 0628 0ac8                         Co.d(...

2000ade8 <_init>:
2000ade8:	b5f8      	push	{r3, r4, r5, r6, r7, lr}
2000adea:	bf00      	nop
2000adec:	bcf8      	pop	{r3, r4, r5, r6, r7}
2000adee:	bc08      	pop	{r3}
2000adf0:	469e      	mov	lr, r3
2000adf2:	4770      	bx	lr

2000adf4 <_fini>:
2000adf4:	b5f8      	push	{r3, r4, r5, r6, r7, lr}
2000adf6:	bf00      	nop
2000adf8:	bcf8      	pop	{r3, r4, r5, r6, r7}
2000adfa:	bc08      	pop	{r3}
2000adfc:	469e      	mov	lr, r3
2000adfe:	4770      	bx	lr

2000ae00 <__frame_dummy_init_array_entry>:
2000ae00:	0485 2000                                   ... 

2000ae04 <__do_global_dtors_aux_fini_array_entry>:
2000ae04:	0471 2000                                   q.. 
